Certificate Revocation List (CRL):
        Version 2 (0x1)
        Signature Algorithm: sha1WithRSAEncryption
        Issuer: /C=US/ST=Oregon/L=Portland/O=yaSSL/OU=Programming/CN=www.yassl.com/emailAddress=info@yassl.com
        Last Update: Aug 10 18:01:01 2012 GMT
        Next Update: Dec  8 18:01:01 2012 GMT
        CRL extensions:
            X509v3 CRL Number: 
                62
No Revoked Certificates.
    Signature Algorithm: sha1WithRSAEncryption
        1e:69:b2:c4:72:a7:b2:c9:e1:b9:ac:06:40:2c:c5:66:9a:07:
        6c:91:2e:17:09:c7:86:b4:62:2d:0f:1f:a3:a3:1c:93:ce:45:
        53:d5:57:94:a6:77:af:51:da:86:e4:1e:6f:57:c8:cc:5f:07:
        8d:a5:db:bd:b3:f7:cf:e2:11:3c:e2:51:79:7e:b3:a9:47:f7:
        c1:17:12:5b:7c:e5:c3:71:17:d2:ce:59:d4:0d:dc:45:ff:bc:
        fe:a7:76:7b:92:88:52:0c:a5:e0:79:75:86:50:27:15:2a:01:
        66:a6:ba:96:d4:9a:14:1d:92:7d:63:72:5f:25:9b:05:72:cb:
        ed:6d:7c:92:1f:4f:3e:64:cb:5d:80:9e:ad:c8:47:83:88:5b:
        3d:07:3f:d3:6a:2c:dd:c9:f7:09:bb:05:2f:9a:f4:73:15:f4:
        61:b1:47:87:9c:bf:c9:61:42:19:14:b8:67:9c:c5:c1:86:f1:
        e8:63:71:40:6c:2f:b1:c1:0c:1f:f4:c4:80:e2:d0:cb:88:6b:
        51:1e:e9:b0:06:19:7c:6d:85:cf:05:7f:fe:3d:35:79:9e:f0:
        5b:f4:06:63:d4:eb:d2:e2:70:29:a9:02:b4:c1:b4:bd:53:f4:
        8f:b3:df:37:91:44:d5:e8:c4:10:86:76:0e:49:2b:ba:9a:a4:
        dd:33:0e:7e
-----BEGIN X509 CRL-----
MIIB6DCB0QIBATANBgkqhkiG9w0BAQUFADCBjjELMAkGA1UEBhMCVVMxDzANBgNV
BAgTBk9yZWdvbjERMA8GA1UEBxMIUG9ydGxhbmQxDjAMBgNVBAoTBXlhU1NMMRQw
EgYDVQQLEwtQcm9ncmFtbWluZzEWMBQGA1UEAxMNd3d3Lnlhc3NsLmNvbTEdMBsG
CSqGSIb3DQEJARYOaW5mb0B5YXNzbC5jb20XDTEyMDgxMDE4MDEwMVoXDTEyMTIw
ODE4MDEwMVqgDjAMMAoGA1UdFAQDAgE+MA0GCSqGSIb3DQEBBQUAA4IBAQAeabLE
cqeyyeG5rAZALMVmmgdskS4XCceGtGItDx+joxyTzkVT1VeUpnevUdqG5B5vV8jM
XweNpdu9s/fP4hE84lF5frOpR/fBFxJbfOXDcRfSzlnUDdxF/7z+p3Z7kohSDKXg
eXWGUCcVKgFmprqW1JoUHZJ9Y3JfJZsFcsvtbXySH08+ZMtdgJ6tyEeDiFs9Bz/T
aizdyfcJuwUvmvRzFfRhsUeHnL/JYUIZFLhnnMXBhvHoY3FAbC+xwQwf9MSA4tDL
iGtRHumwBhl8bYXPBX/+PTV5nvBb9AZj1OvS4nApqQK0wbS9U/SPs983kUTV6MQQ
hnYOSSu6mqTdMw5+
-----END X509 CRL-----
