Certificate Revocation List (CRL):
        Version 2 (0x1)
    Signature Algorithm: sha1WithRSAEncryption
        Issuer: /C=US/ST=Montana/L=Bozeman/O=wolfSSL/OU=Programming/CN=www.wolfssl.com/emailAddress=info@wolfssl.com
        Last Update: Jul 11 20:39:48 2014 GMT
        Next Update: Jul 11 20:39:48 2015 GMT
        CRL extensions:
            X509v3 CRL Number: 
                2
No Revoked Certificates.
    Signature Algorithm: sha1WithRSAEncryption
         35:c1:34:91:04:d9:88:99:83:40:ef:09:ee:04:28:91:be:7a:
         b1:84:48:f4:f8:c5:9d:50:6c:67:56:4c:ee:b2:3a:32:5c:1d:
         1c:49:ef:58:72:a7:69:71:9a:d8:a6:68:0c:3e:ff:48:15:c7:
         44:28:67:6b:34:9d:c0:dc:c5:1b:d1:2f:e6:90:0f:45:7c:aa:
         0c:f9:3c:19:dd:55:a0:92:8a:a0:fe:93:1d:1f:42:ae:5f:7c:
         48:a5:de:61:89:94:bf:43:d3:c1:2d:e8:8b:f9:c5:6e:b9:8a:
         40:0e:6e:32:5e:39:83:cb:9b:76:6b:de:6e:6c:da:4e:1e:5c:
         69:d6:8c:08:0e:9f:de:4e:77:9d:f5:e9:97:29:b3:4c:e0:cb:
         ed:46:68:ed:e1:89:ac:d7:b9:11:ca:5a:ed:fe:e3:73:20:6e:
         01:e6:77:a8:48:c7:01:83:40:25:a5:ee:d7:ef:2f:af:b8:e2:
         2d:85:37:2a:80:8f:7f:6a:a7:32:29:86:42:66:40:d7:eb:87:
         44:66:54:5f:04:5f:7b:22:14:6c:4c:5d:f0:57:ac:33:e0:da:
         53:d6:13:52:ea:85:b2:89:de:41:e6:a6:f5:0d:34:47:37:75:
         26:b8:c4:f3:e0:1b:c6:32:3f:3b:65:0a:20:08:8e:c7:7e:6d:
         61:f1:aa:eb
-----BEGIN X509 CRL-----
MIIB7jCB1wIBATANBgkqhkiG9w0BAQUFADCBlDELMAkGA1UEBhMCVVMxEDAOBgNV
BAgMB01vbnRhbmExEDAOBgNVBAcMB0JvemVtYW4xEDAOBgNVBAoMB3dvbGZTU0wx
FDASBgNVBAsMC1Byb2dyYW1taW5nMRgwFgYDVQQDDA93d3cud29sZnNzbC5jb20x
HzAdBgkqhkiG9w0BCQEWEGluZm9Ad29sZnNzbC5jb20XDTE0MDcxMTIwMzk0OFoX
DTE1MDcxMTIwMzk0OFqgDjAMMAoGA1UdFAQDAgECMA0GCSqGSIb3DQEBBQUAA4IB
AQA1wTSRBNmImYNA7wnuBCiRvnqxhEj0+MWdUGxnVkzusjoyXB0cSe9YcqdpcZrY
pmgMPv9IFcdEKGdrNJ3A3MUb0S/mkA9FfKoM+TwZ3VWgkoqg/pMdH0KuX3xIpd5h
iZS/Q9PBLeiL+cVuuYpADm4yXjmDy5t2a95ubNpOHlxp1owIDp/eTned9emXKbNM
4MvtRmjt4Yms17kRylrt/uNzIG4B5neoSMcBg0Alpe7X7y+vuOIthTcqgI9/aqcy
KYZCZkDX64dEZlRfBF97IhRsTF3wV6wz4NpT1hNS6oWyid5B5qb1DTRHN3UmuMTz
4BvGMj87ZQogCI7Hfm1h8arr
-----END X509 CRL-----
