Certificate Revocation List (CRL):
        Version 2 (0x1)
        Signature Algorithm: sha1WithRSAEncryption
        Issuer: /C=US/ST=Montana/L=Bozeman/O=Sawtooth/OU=Consulting/CN=www.yassl.com/emailAddress=info@yassl.com
        Last Update: Aug 10 18:01:01 2012 GMT
        Next Update: Dec  8 18:01:01 2012 GMT
        CRL extensions:
            X509v3 CRL Number: 
                61
Revoked Certificates:
    Serial Number: 02
        Revocation Date: Aug 10 18:01:01 2012 GMT
    Signature Algorithm: sha1WithRSAEncryption
        5c:eb:53:33:02:74:bb:c1:37:37:81:1a:36:9c:eb:d0:28:87:
        12:56:1a:d8:ec:ae:8e:ef:42:d0:61:07:f0:f0:b5:e8:2a:16:
        5e:78:ab:e9:ad:62:f3:6c:c5:fe:7a:b5:c7:0e:8a:e3:0a:2d:
        63:b5:ec:c4:c1:1f:1e:c3:77:b7:24:10:4b:09:b1:d8:ea:40:
        4f:74:6a:9a:d7:57:bd:b9:d3:e2:42:81:81:b2:5c:42:d8:d3:
        21:3f:f2:05:e2:11:8f:ce:60:cc:3b:76:55:e6:5f:6d:71:13:
        b1:7e:2c:50:d2:29:fe:f2:ad:96:f9:ee:8f:5c:c3:0a:73:e7:
        78:c5:8f:6e:0d:35:66:64:4a:76:05:93:9f:eb:05:b2:c3:a1:
        f5:d5:4c:4b:6e:79:f2:8d:51:90:7c:9d:a9:f5:94:7f:93:fe:
        39:da:c1:fb:8c:94:66:1d:d4:40:a9:48:ee:3b:91:14:83:4e:
        b4:ea:93:07:f6:be:48:4a:ec:4c:26:61:2d:a2:66:01:c5:d8:
        d3:18:f6:d0:1b:d2:94:13:c9:94:84:54:e4:44:10:01:66:25:
        47:ee:b2:19:4a:65:e3:79:42:9e:12:af:a7:4a:a4:66:35:e3:
        1a:db:2c:80:ff:a4:9c:2e:6e:32:8e:50:5d:ec:7e:de:1a:01:
        a9:08:fc:a2
-----BEGIN X509 CRL-----
MIICADCB6QIBATANBgkqhkiG9w0BAQUFADCBkDELMAkGA1UEBhMCVVMxEDAOBgNV
BAgTB01vbnRhbmExEDAOBgNVBAcTB0JvemVtYW4xETAPBgNVBAoTCFNhd3Rvb3Ro
MRMwEQYDVQQLEwpDb25zdWx0aW5nMRYwFAYDVQQDEw13d3cueWFzc2wuY29tMR0w
GwYJKoZIhvcNAQkBFg5pbmZvQHlhc3NsLmNvbRcNMTIwODEwMTgwMTAxWhcNMTIx
MjA4MTgwMTAxWjAUMBICAQIXDTEyMDgxMDE4MDEwMVqgDjAMMAoGA1UdFAQDAgE9
MA0GCSqGSIb3DQEBBQUAA4IBAQBc61MzAnS7wTc3gRo2nOvQKIcSVhrY7K6O70LQ
YQfw8LXoKhZeeKvprWLzbMX+erXHDorjCi1jtezEwR8ew3e3JBBLCbHY6kBPdGqa
11e9udPiQoGBslxC2NMhP/IF4hGPzmDMO3ZV5l9tcROxfixQ0in+8q2W+e6PXMMK
c+d4xY9uDTVmZEp2BZOf6wWyw6H11UxLbnnyjVGQfJ2p9ZR/k/452sH7jJRmHdRA
qUjuO5EUg0606pMH9r5ISuxMJmEtomYBxdjTGPbQG9KUE8mUhFTkRBABZiVH7rIZ
SmXjeUKeEq+nSqRmNeMa2yyA/6ScLm4yjlBd7H7eGgGpCPyi
-----END X509 CRL-----
