Certificate Revocation List (CRL):
        Version 2 (0x1)
        Signature Algorithm: sha1WithRSAEncryption
        Issuer: /C=US/ST=Montana/L=Bozeman/O=Sawtooth/OU=Consulting/CN=www.yassl.com/emailAddress=info@yassl.com
        Last Update: Aug 10 18:01:01 2012 GMT
        Next Update: Dec  8 18:01:01 2012 GMT
        CRL extensions:
            X509v3 CRL Number: 
                60
No Revoked Certificates.
    Signature Algorithm: sha1WithRSAEncryption
        26:1c:06:6a:42:ff:8b:18:71:4e:ef:7c:02:74:43:6f:7b:83:
        99:2f:e1:4e:74:0f:f9:99:62:a1:90:88:11:1b:d8:59:3b:1e:
        34:dd:f4:92:81:6f:49:2c:9a:5f:ba:21:6f:11:95:19:6e:da:
        38:a4:4e:a0:7e:4a:fb:7c:c6:9f:c8:26:2d:9b:cd:e8:30:14:
        10:38:56:63:89:bf:a7:eb:11:0f:7c:81:60:d7:c3:ab:07:ef:
        6c:af:81:4d:b9:cd:6e:91:c6:42:13:01:d8:1a:62:cb:52:fd:
        44:0b:fa:9f:34:de:75:ba:5a:3d:df:d4:b1:7e:a0:b9:3f:f5:
        ed:a3:e6:ef:ef:20:95:45:3c:75:8c:a8:5c:ae:8c:e9:3c:f1:
        e6:34:fd:65:bb:9a:f9:5f:8c:96:7c:32:12:50:43:2b:30:94:
        4e:8a:f0:c3:5e:c9:e2:49:08:83:64:7a:3b:f3:d5:30:f3:78:
        4b:20:3c:51:d0:da:37:14:f4:c8:f2:ab:41:d2:c3:b9:7a:7f:
        42:17:42:79:a4:10:67:4e:84:d4:e9:a9:e8:dd:46:5d:b2:f4:
        e8:3d:1c:24:3c:81:e7:56:bb:43:11:e2:d9:a2:9d:ce:b5:78:
        ad:19:14:7c:d7:37:e8:bf:f7:30:fc:4d:05:a9:33:6b:12:9f:
        24:19:39:35
-----BEGIN X509 CRL-----
MIIB6jCB0wIBATANBgkqhkiG9w0BAQUFADCBkDELMAkGA1UEBhMCVVMxEDAOBgNV
BAgTB01vbnRhbmExEDAOBgNVBAcTB0JvemVtYW4xETAPBgNVBAoTCFNhd3Rvb3Ro
MRMwEQYDVQQLEwpDb25zdWx0aW5nMRYwFAYDVQQDEw13d3cueWFzc2wuY29tMR0w
GwYJKoZIhvcNAQkBFg5pbmZvQHlhc3NsLmNvbRcNMTIwODEwMTgwMTAxWhcNMTIx
MjA4MTgwMTAxWqAOMAwwCgYDVR0UBAMCATwwDQYJKoZIhvcNAQEFBQADggEBACYc
BmpC/4sYcU7vfAJ0Q297g5kv4U50D/mZYqGQiBEb2Fk7HjTd9JKBb0ksml+6IW8R
lRlu2jikTqB+Svt8xp/IJi2bzegwFBA4VmOJv6frEQ98gWDXw6sH72yvgU25zW6R
xkITAdgaYstS/UQL+p803nW6Wj3f1LF+oLk/9e2j5u/vIJVFPHWMqFyujOk88eY0
/WW7mvlfjJZ8MhJQQyswlE6K8MNeyeJJCINkejvz1TDzeEsgPFHQ2jcU9Mjyq0HS
w7l6f0IXQnmkEGdOhNTpqejdRl2y9Og9HCQ8gedWu0MR4tminc61eK0ZFHzXN+i/
9zD8TQWpM2sSnyQZOTU=
-----END X509 CRL-----
