Certificate:
    Data:
        Version: 3 (0x2)
        Serial Number: 3 (0x3)
    Signature Algorithm: sha256WithRSAEncryption
        Issuer: C=US, ST=Washington, L=Seattle, O=wolfSSL, OU=Engineering, CN=wolfSSL root CA/emailAddress=info@wolfssl.com
        Validity
            Not Before: Apr 13 15:23:10 2018 GMT
            Not After : Jan  7 15:23:10 2021 GMT
        Subject: C=US, ST=Washington, L=Seattle, O=wolfSSL, OU=Engineering, CN=wolfSSL REVOKED intermediate CA/emailAddress=info@wolfssl.com
        Subject Public Key Info:
            Public Key Algorithm: rsaEncryption
                Public-Key: (2048 bit)
                Modulus:
                    00:de:c5:04:10:7d:c2:21:e9:12:45:da:d5:ba:28:
                    fd:a6:f4:30:44:a0:df:f9:70:5e:17:26:97:59:5c:
                    31:eb:13:70:ea:4a:dd:58:3e:4f:33:14:66:59:69:
                    7a:aa:90:e0:7c:c4:b2:36:c1:0a:f4:df:3e:34:6c:
                    1a:e9:2b:f1:a5:92:7e:a9:68:70:ba:a4:68:88:f3:
                    ec:10:40:64:a5:64:7d:d9:1e:51:49:9d:7f:c8:cc:
                    2b:6d:71:2a:06:ff:e6:1f:84:28:8a:c1:ed:a8:52:
                    f4:89:a5:c0:77:d8:13:66:c2:65:a5:63:03:98:b0:
                    4b:05:4f:0c:84:a0:f4:2d:72:73:6b:fa:0d:e1:cf:
                    45:27:ed:a3:8c:02:d7:ee:99:e2:a1:f0:e3:a0:ad:
                    69:ed:59:e4:27:41:8f:ef:fa:83:73:8f:5f:2b:68:
                    89:13:46:26:dc:f6:28:6b:3b:b2:b8:9b:52:2a:17:
                    1b:dc:72:45:73:da:75:24:35:8b:00:5e:23:37:64:
                    6a:16:74:b8:ee:fe:b7:11:71:be:0a:73:c8:54:c2:
                    d9:04:d2:1b:f5:53:ac:8d:2a:4f:fe:33:79:e6:5e:
                    e7:f3:86:d3:dc:bb:4b:d7:39:7f:5b:3c:67:fe:5e:
                    88:51:05:96:f2:b4:9a:45:09:4c:51:f0:6a:4d:88:
                    2a:17
                Exponent: 65537 (0x10001)
        X509v3 extensions:
            X509v3 Basic Constraints: 
                CA:TRUE
            X509v3 Subject Key Identifier: 
                BB:15:9E:32:4D:E0:F8:AA:8A:B0:2E:0C:17:2B:5A:41:74:4B:06:45
            X509v3 Authority Key Identifier: 
                keyid:73:B0:1C:A4:2F:82:CB:CF:47:A5:38:D7:B0:04:82:3A:7E:72:15:21
                DirName:/C=US/ST=Washington/L=Seattle/O=wolfSSL/OU=Engineering/CN=wolfSSL root CA/emailAddress=info@wolfssl.com
                serial:63

            X509v3 Key Usage: 
                Certificate Sign, CRL Sign
            Authority Information Access: 
                OCSP - URI:http://127.0.0.1:22220

    Signature Algorithm: sha256WithRSAEncryption
         63:bf:90:58:0c:44:08:57:7d:94:7e:eb:fd:9d:90:f6:1d:a5:
         91:2a:32:38:a7:f7:39:c2:c0:9c:93:26:bc:f4:4b:81:0a:0f:
         07:2d:4f:a9:20:9a:3e:2c:24:0c:30:10:d7:be:96:ab:ee:1f:
         2c:f8:71:7c:1a:c1:ae:b7:64:e1:7e:18:53:c3:ae:d5:04:16:
         f7:e5:34:c2:d1:a3:31:d4:9b:f4:b7:c1:96:1f:a7:3c:3a:bf:
         fd:06:be:76:f4:da:95:f9:6f:be:4f:24:a7:0f:b0:2c:12:4d:
         d6:55:ea:f8:0a:30:91:32:4f:a3:14:6d:ec:cd:85:12:1f:da:
         78:8a:b1:9a:74:fb:fd:00:45:4a:30:83:45:16:a0:8f:b7:7f:
         23:33:91:c6:81:ac:f3:9b:cd:53:6b:9a:fa:36:9b:5d:3c:72:
         a8:73:4f:1e:b5:da:ba:08:3d:9b:ca:7a:d6:c2:bf:6e:9f:a5:
         9e:db:61:bc:a5:42:a7:d4:92:4a:7e:a3:3d:1b:aa:d3:c2:93:
         ad:ce:3b:0e:2b:61:44:1e:3c:61:54:0d:6a:26:21:54:c6:e0:
         ed:3d:da:27:cd:89:5a:f8:1f:0f:46:80:c1:f2:80:cc:52:f1:
         7f:ce:10:68:66:3f:ee:90:25:45:d4:f8:87:f9:5d:5d:74:3d:
         aa:3d:43:1c
-----BEGIN CERTIFICATE-----
MIIE9jCCA96gAwIBAgIBAzANBgkqhkiG9w0BAQsFADCBlzELMAkGA1UEBhMCVVMx
EzARBgNVBAgMCldhc2hpbmd0b24xEDAOBgNVBAcMB1NlYXR0bGUxEDAOBgNVBAoM
B3dvbGZTU0wxFDASBgNVBAsMC0VuZ2luZWVyaW5nMRgwFgYDVQQDDA93b2xmU1NM
IHJvb3QgQ0ExHzAdBgkqhkiG9w0BCQEWEGluZm9Ad29sZnNzbC5jb20wHhcNMTgw
NDEzMTUyMzEwWhcNMjEwMTA3MTUyMzEwWjCBpzELMAkGA1UEBhMCVVMxEzARBgNV
BAgMCldhc2hpbmd0b24xEDAOBgNVBAcMB1NlYXR0bGUxEDAOBgNVBAoMB3dvbGZT
U0wxFDASBgNVBAsMC0VuZ2luZWVyaW5nMSgwJgYDVQQDDB93b2xmU1NMIFJFVk9L
RUQgaW50ZXJtZWRpYXRlIENBMR8wHQYJKoZIhvcNAQkBFhBpbmZvQHdvbGZzc2wu
Y29tMIIBIjANBgkqhkiG9w0BAQEFAAOCAQ8AMIIBCgKCAQEA3sUEEH3CIekSRdrV
uij9pvQwRKDf+XBeFyaXWVwx6xNw6krdWD5PMxRmWWl6qpDgfMSyNsEK9N8+NGwa
6SvxpZJ+qWhwuqRoiPPsEEBkpWR92R5RSZ1/yMwrbXEqBv/mH4QoisHtqFL0iaXA
d9gTZsJlpWMDmLBLBU8MhKD0LXJza/oN4c9FJ+2jjALX7pniofDjoK1p7VnkJ0GP
7/qDc49fK2iJE0Ym3PYoazuyuJtSKhcb3HJFc9p1JDWLAF4jN2RqFnS47v63EXG+
CnPIVMLZBNIb9VOsjSpP/jN55l7n84bT3LtL1zl/Wzxn/l6IUQWW8rSaRQlMUfBq
TYgqFwIDAQABo4IBOTCCATUwDAYDVR0TBAUwAwEB/zAdBgNVHQ4EFgQUuxWeMk3g
+KqKsC4MFytaQXRLBkUwgcQGA1UdIwSBvDCBuYAUc7AcpC+Cy89HpTjXsASCOn5y
FSGhgZ2kgZowgZcxCzAJBgNVBAYTAlVTMRMwEQYDVQQIDApXYXNoaW5ndG9uMRAw
DgYDVQQHDAdTZWF0dGxlMRAwDgYDVQQKDAd3b2xmU1NMMRQwEgYDVQQLDAtFbmdp
bmVlcmluZzEYMBYGA1UEAwwPd29sZlNTTCByb290IENBMR8wHQYJKoZIhvcNAQkB
FhBpbmZvQHdvbGZzc2wuY29tggFjMAsGA1UdDwQEAwIBBjAyBggrBgEFBQcBAQQm
MCQwIgYIKwYBBQUHMAGGFmh0dHA6Ly8xMjcuMC4wLjE6MjIyMjAwDQYJKoZIhvcN
AQELBQADggEBAGO/kFgMRAhXfZR+6/2dkPYdpZEqMjin9znCwJyTJrz0S4EKDwct
T6kgmj4sJAwwENe+lqvuHyz4cXwawa63ZOF+GFPDrtUEFvflNMLRozHUm/S3wZYf
pzw6v/0Gvnb02pX5b75PJKcPsCwSTdZV6vgKMJEyT6MUbezNhRIf2niKsZp0+/0A
RUowg0UWoI+3fyMzkcaBrPObzVNrmvo2m108cqhzTx612roIPZvKetbCv26fpZ7b
YbylQqfUkkp+oz0bqtPCk63OOw4rYUQePGFUDWomIVTG4O092ifNiVr4Hw9GgMHy
gMxS8X/OEGhmP+6QJUXU+If5XV10Pao9Qxw=
-----END CERTIFICATE-----
Certificate:
    Data:
        Version: 3 (0x2)
        Serial Number: 99 (0x63)
    Signature Algorithm: sha256WithRSAEncryption
        Issuer: C=US, ST=Washington, L=Seattle, O=wolfSSL, OU=Engineering, CN=wolfSSL root CA/emailAddress=info@wolfssl.com
        Validity
            Not Before: Apr 13 15:23:10 2018 GMT
            Not After : Jan  7 15:23:10 2021 GMT
        Subject: C=US, ST=Washington, L=Seattle, O=wolfSSL, OU=Engineering, CN=wolfSSL root CA/emailAddress=info@wolfssl.com
        Subject Public Key Info:
            Public Key Algorithm: rsaEncryption
                Public-Key: (2048 bit)
                Modulus:
                    00:ab:2c:b4:2f:1d:06:09:ef:4e:29:86:84:7e:cc:
                    bf:a6:79:7c:f0:c0:c1:64:25:8c:75:b7:10:05:ca:
                    48:27:0c:0e:32:1c:b0:fe:99:85:39:b6:b9:a2:f7:
                    27:ff:6d:3c:8c:16:73:29:21:7f:8b:a6:54:71:90:
                    ad:cc:05:b9:9f:15:c7:0a:3f:5f:69:f4:0a:5f:8c:
                    71:b5:2c:bf:66:e2:03:9a:32:f4:d2:ec:2a:89:4b:
                    f9:35:88:14:33:47:4e:2e:05:79:01:ed:64:36:76:
                    b9:f8:85:cd:01:88:ac:c5:b2:b1:59:b8:cd:5a:f4:
                    09:09:38:9b:da:5a:cf:ce:78:99:1f:49:3d:41:d6:
                    06:7c:52:99:c8:97:d1:b3:80:3a:a2:4f:36:c4:c5:
                    96:30:77:31:38:c8:70:cc:e1:67:06:b3:2b:2f:93:
                    b5:69:cf:83:7e:88:53:9b:0f:46:21:4c:d6:05:36:
                    44:99:60:68:47:e5:32:01:12:d4:10:73:ae:9a:34:
                    94:fa:6e:b8:58:4f:7b:5b:8a:92:97:ad:fd:97:b9:
                    75:ca:c2:d4:45:7d:17:6b:cd:2f:f3:63:7a:0e:30:
                    b5:0b:a9:d9:a6:7c:74:60:9d:cc:09:03:43:f1:0f:
                    90:d3:b7:fe:6c:9f:d9:cd:78:4b:15:ae:8c:5b:f9:
                    99:81
                Exponent: 65537 (0x10001)
        X509v3 extensions:
            X509v3 Basic Constraints: 
                CA:TRUE
            X509v3 Subject Key Identifier: 
                73:B0:1C:A4:2F:82:CB:CF:47:A5:38:D7:B0:04:82:3A:7E:72:15:21
            X509v3 Authority Key Identifier: 
                keyid:73:B0:1C:A4:2F:82:CB:CF:47:A5:38:D7:B0:04:82:3A:7E:72:15:21
                DirName:/C=US/ST=Washington/L=Seattle/O=wolfSSL/OU=Engineering/CN=wolfSSL root CA/emailAddress=info@wolfssl.com
                serial:63

            X509v3 Key Usage: 
                Certificate Sign, CRL Sign
            Authority Information Access: 
                OCSP - URI:http://127.0.0.1:22220

    Signature Algorithm: sha256WithRSAEncryption
         6b:10:b1:f8:cb:77:ef:72:f5:f8:fc:70:6d:18:dc:34:fe:d7:
         95:d8:fd:85:8e:ca:4b:f3:be:1f:eb:14:08:dc:23:34:78:98:
         39:d7:9f:c3:52:f6:14:3d:e9:de:5c:c2:d8:b1:4b:a8:4c:5b:
         91:42:66:da:7f:3c:e9:03:20:5e:08:0f:76:79:b9:21:10:89:
         b7:73:46:44:7e:6e:28:0c:00:e4:f4:3e:65:aa:f5:c6:27:57:
         2c:bb:1d:ae:e5:94:57:a3:73:9e:6b:44:00:35:4a:f3:c7:34:
         9c:a2:a7:aa:62:9f:1d:ef:a8:6c:be:07:ad:ef:ae:ee:93:0b:
         ba:c3:59:4e:90:40:2d:00:5e:f0:0f:0a:de:18:2a:b3:97:31:
         63:84:ff:18:1c:b6:d8:7d:ee:33:ed:99:f0:f5:7f:88:58:b3:
         0d:90:db:eb:44:7e:06:37:61:d4:34:b9:f6:fd:3e:8d:07:e4:
         b5:b0:ae:09:ce:98:e4:b0:1b:d5:7b:53:94:dd:8a:b2:20:d6:
         b0:72:f8:b1:bc:76:df:16:86:39:7b:e4:a9:15:47:57:ae:ca:
         41:d6:3a:ba:15:d1:c0:b5:38:66:0b:0f:80:8b:a2:07:b4:fc:
         80:1f:a3:4c:1f:d2:65:97:c1:2c:ae:46:31:61:49:0d:d7:5f:
         ac:d2:a6:05
-----BEGIN CERTIFICATE-----
MIIE5jCCA86gAwIBAgIBYzANBgkqhkiG9w0BAQsFADCBlzELMAkGA1UEBhMCVVMx
EzARBgNVBAgMCldhc2hpbmd0b24xEDAOBgNVBAcMB1NlYXR0bGUxEDAOBgNVBAoM
B3dvbGZTU0wxFDASBgNVBAsMC0VuZ2luZWVyaW5nMRgwFgYDVQQDDA93b2xmU1NM
IHJvb3QgQ0ExHzAdBgkqhkiG9w0BCQEWEGluZm9Ad29sZnNzbC5jb20wHhcNMTgw
NDEzMTUyMzEwWhcNMjEwMTA3MTUyMzEwWjCBlzELMAkGA1UEBhMCVVMxEzARBgNV
BAgMCldhc2hpbmd0b24xEDAOBgNVBAcMB1NlYXR0bGUxEDAOBgNVBAoMB3dvbGZT
U0wxFDASBgNVBAsMC0VuZ2luZWVyaW5nMRgwFgYDVQQDDA93b2xmU1NMIHJvb3Qg
Q0ExHzAdBgkqhkiG9w0BCQEWEGluZm9Ad29sZnNzbC5jb20wggEiMA0GCSqGSIb3
DQEBAQUAA4IBDwAwggEKAoIBAQCrLLQvHQYJ704phoR+zL+meXzwwMFkJYx1txAF
ykgnDA4yHLD+mYU5trmi9yf/bTyMFnMpIX+LplRxkK3MBbmfFccKP19p9ApfjHG1
LL9m4gOaMvTS7CqJS/k1iBQzR04uBXkB7WQ2drn4hc0BiKzFsrFZuM1a9AkJOJva
Ws/OeJkfST1B1gZ8UpnIl9GzgDqiTzbExZYwdzE4yHDM4WcGsysvk7Vpz4N+iFOb
D0YhTNYFNkSZYGhH5TIBEtQQc66aNJT6brhYT3tbipKXrf2XuXXKwtRFfRdrzS/z
Y3oOMLULqdmmfHRgncwJA0PxD5DTt/5sn9nNeEsVroxb+ZmBAgMBAAGjggE5MIIB
NTAMBgNVHRMEBTADAQH/MB0GA1UdDgQWBBRzsBykL4LLz0elONewBII6fnIVITCB
xAYDVR0jBIG8MIG5gBRzsBykL4LLz0elONewBII6fnIVIaGBnaSBmjCBlzELMAkG
A1UEBhMCVVMxEzARBgNVBAgMCldhc2hpbmd0b24xEDAOBgNVBAcMB1NlYXR0bGUx
EDAOBgNVBAoMB3dvbGZTU0wxFDASBgNVBAsMC0VuZ2luZWVyaW5nMRgwFgYDVQQD
DA93b2xmU1NMIHJvb3QgQ0ExHzAdBgkqhkiG9w0BCQEWEGluZm9Ad29sZnNzbC5j
b22CAWMwCwYDVR0PBAQDAgEGMDIGCCsGAQUFBwEBBCYwJDAiBggrBgEFBQcwAYYW
aHR0cDovLzEyNy4wLjAuMToyMjIyMDANBgkqhkiG9w0BAQsFAAOCAQEAaxCx+Mt3
73L1+PxwbRjcNP7Xldj9hY7KS/O+H+sUCNwjNHiYOdefw1L2FD3p3lzC2LFLqExb
kUJm2n886QMgXggPdnm5IRCJt3NGRH5uKAwA5PQ+Zar1xidXLLsdruWUV6NznmtE
ADVK88c0nKKnqmKfHe+obL4Hre+u7pMLusNZTpBALQBe8A8K3hgqs5cxY4T/GBy2
2H3uM+2Z8PV/iFizDZDb60R+Bjdh1DS59v0+jQfktbCuCc6Y5LAb1XtTlN2KsiDW
sHL4sbx23xaGOXvkqRVHV67KQdY6uhXRwLU4ZgsPgIuiB7T8gB+jTB/SZZfBLK5G
MWFJDddfrNKmBQ==
-----END CERTIFICATE-----
