Certificate:
    Data:
        Version: 3 (0x2)
        Serial Number: 1 (0x1)
    Signature Algorithm: sha256WithRSAEncryption
        Issuer: C=US, ST=Washington, L=Seattle, O=wolfSSL, OU=Engineering, CN=wolfSSL root CA/emailAddress=info@wolfssl.com
        Validity
            Not Before: Apr 13 15:23:10 2018 GMT
            Not After : Jan  7 15:23:10 2021 GMT
        Subject: C=US, ST=Washington, L=Seattle, O=wolfSSL, OU=Engineering, CN=wolfSSL intermediate CA 1/emailAddress=info@wolfssl.com
        Subject Public Key Info:
            Public Key Algorithm: rsaEncryption
                Public-Key: (2048 bit)
                Modulus:
                    00:de:b4:c8:5c:77:e0:2d:b1:f5:b9:ad:16:47:35:
                    a0:35:65:65:c6:e1:40:ab:1e:b4:b9:13:b7:cb:8c:
                    bb:77:a5:76:da:6d:87:87:f6:4a:4d:13:e4:26:3e:
                    27:87:ee:5b:c7:6a:3f:45:30:61:55:5c:f6:35:d1:
                    65:fa:98:11:a3:a7:55:d5:be:91:82:4b:fc:be:90:
                    d6:50:53:63:9a:2c:22:e1:35:11:dc:78:02:97:8a:
                    e4:46:92:9c:53:08:76:de:1f:53:b6:b8:ca:77:3e:
                    79:6e:bc:d0:e3:0d:30:5b:4c:f6:94:0d:30:29:64:
                    9f:04:e5:db:fb:89:60:67:bb:af:26:83:51:77:24:
                    2f:2b:0b:a1:94:81:10:98:e8:eb:26:a8:1e:7c:e4:
                    c4:6c:67:06:95:55:4a:dd:52:f4:f2:60:6d:01:2b:
                    19:91:35:6d:a4:08:47:06:71:24:00:d9:de:c6:56:
                    f3:8b:53:2c:e2:9a:96:a5:f3:62:e5:c4:e3:23:f2:
                    d2:fc:21:ea:0f:62:76:8d:d5:99:48:ce:dc:58:c4:
                    bb:7f:da:94:2c:80:74:83:c5:e0:b0:15:7e:41:fd:
                    0e:f2:f4:f0:78:76:7b:ad:26:0d:aa:48:96:17:2f:
                    21:e3:95:2b:26:37:f9:aa:80:2f:fe:de:f6:5e:bc:
                    97:7f
                Exponent: 65537 (0x10001)
        X509v3 extensions:
            X509v3 Basic Constraints: 
                CA:TRUE
            X509v3 Subject Key Identifier: 
                83:C6:3A:89:2C:81:F4:02:D7:9D:4C:E2:2A:C0:71:82:64:44:DA:0E
            X509v3 Authority Key Identifier: 
                keyid:73:B0:1C:A4:2F:82:CB:CF:47:A5:38:D7:B0:04:82:3A:7E:72:15:21
                DirName:/C=US/ST=Washington/L=Seattle/O=wolfSSL/OU=Engineering/CN=wolfSSL root CA/emailAddress=info@wolfssl.com
                serial:63

            X509v3 Key Usage: 
                Certificate Sign, CRL Sign
            Authority Information Access: 
                OCSP - URI:http://127.0.0.1:22220

    Signature Algorithm: sha256WithRSAEncryption
         18:a3:09:fe:c3:53:c7:ce:11:f0:36:86:43:9c:46:9b:43:42:
         a0:20:6e:b6:32:29:34:22:fa:27:a1:00:0c:e5:51:c3:35:7b:
         2f:ce:2c:48:7f:47:cf:1b:45:f9:30:b2:d0:17:15:a0:c3:a8:
         3a:e4:5f:a4:96:e4:25:ea:4e:80:90:2e:8d:f5:19:98:ae:2a:
         6d:39:f0:06:8f:e6:0b:c4:2b:dd:07:4a:ad:3d:34:11:79:3d:
         15:db:65:c6:33:60:6b:2f:2d:47:26:bb:91:53:28:35:5c:fd:
         57:3b:27:1b:a1:85:03:24:74:84:f4:f2:b2:e3:53:41:83:9c:
         6b:5a:0c:0f:3b:c4:5f:a7:4b:8b:04:f2:0d:f5:81:aa:16:33:
         d2:f4:f5:8d:83:c1:10:2d:57:55:f8:d3:16:62:27:50:b2:57:
         20:1d:a3:07:0c:b8:8d:c5:5a:2f:d9:d3:c4:6a:c3:1e:51:10:
         de:7e:60:cf:d0:78:2c:00:d4:da:df:de:de:ee:ed:1d:25:da:
         6c:9f:57:69:2a:f1:a2:6c:8a:fe:72:c0:57:9f:f8:6e:b7:47:
         f1:4f:f6:4b:9c:a2:2a:d2:10:9c:4e:bc:b4:8a:a2:8e:51:5a:
         c1:e7:9c:f1:7c:9c:f9:7d:d7:9c:8f:ed:e9:57:91:0a:6c:4b:
         b4:ac:6f:30
-----BEGIN CERTIFICATE-----
MIIE8DCCA9igAwIBAgIBATANBgkqhkiG9w0BAQsFADCBlzELMAkGA1UEBhMCVVMx
EzARBgNVBAgMCldhc2hpbmd0b24xEDAOBgNVBAcMB1NlYXR0bGUxEDAOBgNVBAoM
B3dvbGZTU0wxFDASBgNVBAsMC0VuZ2luZWVyaW5nMRgwFgYDVQQDDA93b2xmU1NM
IHJvb3QgQ0ExHzAdBgkqhkiG9w0BCQEWEGluZm9Ad29sZnNzbC5jb20wHhcNMTgw
NDEzMTUyMzEwWhcNMjEwMTA3MTUyMzEwWjCBoTELMAkGA1UEBhMCVVMxEzARBgNV
BAgMCldhc2hpbmd0b24xEDAOBgNVBAcMB1NlYXR0bGUxEDAOBgNVBAoMB3dvbGZT
U0wxFDASBgNVBAsMC0VuZ2luZWVyaW5nMSIwIAYDVQQDDBl3b2xmU1NMIGludGVy
bWVkaWF0ZSBDQSAxMR8wHQYJKoZIhvcNAQkBFhBpbmZvQHdvbGZzc2wuY29tMIIB
IjANBgkqhkiG9w0BAQEFAAOCAQ8AMIIBCgKCAQEA3rTIXHfgLbH1ua0WRzWgNWVl
xuFAqx60uRO3y4y7d6V22m2Hh/ZKTRPkJj4nh+5bx2o/RTBhVVz2NdFl+pgRo6dV
1b6Rgkv8vpDWUFNjmiwi4TUR3HgCl4rkRpKcUwh23h9TtrjKdz55brzQ4w0wW0z2
lA0wKWSfBOXb+4lgZ7uvJoNRdyQvKwuhlIEQmOjrJqgefOTEbGcGlVVK3VL08mBt
ASsZkTVtpAhHBnEkANnexlbzi1Ms4pqWpfNi5cTjI/LS/CHqD2J2jdWZSM7cWMS7
f9qULIB0g8XgsBV+Qf0O8vTweHZ7rSYNqkiWFy8h45UrJjf5qoAv/t72XryXfwID
AQABo4IBOTCCATUwDAYDVR0TBAUwAwEB/zAdBgNVHQ4EFgQUg8Y6iSyB9ALXnUzi
KsBxgmRE2g4wgcQGA1UdIwSBvDCBuYAUc7AcpC+Cy89HpTjXsASCOn5yFSGhgZ2k
gZowgZcxCzAJBgNVBAYTAlVTMRMwEQYDVQQIDApXYXNoaW5ndG9uMRAwDgYDVQQH
DAdTZWF0dGxlMRAwDgYDVQQKDAd3b2xmU1NMMRQwEgYDVQQLDAtFbmdpbmVlcmlu
ZzEYMBYGA1UEAwwPd29sZlNTTCByb290IENBMR8wHQYJKoZIhvcNAQkBFhBpbmZv
QHdvbGZzc2wuY29tggFjMAsGA1UdDwQEAwIBBjAyBggrBgEFBQcBAQQmMCQwIgYI
KwYBBQUHMAGGFmh0dHA6Ly8xMjcuMC4wLjE6MjIyMjAwDQYJKoZIhvcNAQELBQAD
ggEBABijCf7DU8fOEfA2hkOcRptDQqAgbrYyKTQi+iehAAzlUcM1ey/OLEh/R88b
RfkwstAXFaDDqDrkX6SW5CXqToCQLo31GZiuKm058AaP5gvEK90HSq09NBF5PRXb
ZcYzYGsvLUcmu5FTKDVc/Vc7JxuhhQMkdIT08rLjU0GDnGtaDA87xF+nS4sE8g31
gaoWM9L09Y2DwRAtV1X40xZiJ1CyVyAdowcMuI3FWi/Z08Rqwx5REN5+YM/QeCwA
1Nrf3t7u7R0l2myfV2kq8aJsiv5ywFef+G63R/FP9kucoirSEJxOvLSKoo5RWsHn
nPF8nPl915yP7elXkQpsS7SsbzA=
-----END CERTIFICATE-----
Certificate:
    Data:
        Version: 3 (0x2)
        Serial Number: 99 (0x63)
    Signature Algorithm: sha256WithRSAEncryption
        Issuer: C=US, ST=Washington, L=Seattle, O=wolfSSL, OU=Engineering, CN=wolfSSL root CA/emailAddress=info@wolfssl.com
        Validity
            Not Before: Apr 13 15:23:10 2018 GMT
            Not After : Jan  7 15:23:10 2021 GMT
        Subject: C=US, ST=Washington, L=Seattle, O=wolfSSL, OU=Engineering, CN=wolfSSL root CA/emailAddress=info@wolfssl.com
        Subject Public Key Info:
            Public Key Algorithm: rsaEncryption
                Public-Key: (2048 bit)
                Modulus:
                    00:ab:2c:b4:2f:1d:06:09:ef:4e:29:86:84:7e:cc:
                    bf:a6:79:7c:f0:c0:c1:64:25:8c:75:b7:10:05:ca:
                    48:27:0c:0e:32:1c:b0:fe:99:85:39:b6:b9:a2:f7:
                    27:ff:6d:3c:8c:16:73:29:21:7f:8b:a6:54:71:90:
                    ad:cc:05:b9:9f:15:c7:0a:3f:5f:69:f4:0a:5f:8c:
                    71:b5:2c:bf:66:e2:03:9a:32:f4:d2:ec:2a:89:4b:
                    f9:35:88:14:33:47:4e:2e:05:79:01:ed:64:36:76:
                    b9:f8:85:cd:01:88:ac:c5:b2:b1:59:b8:cd:5a:f4:
                    09:09:38:9b:da:5a:cf:ce:78:99:1f:49:3d:41:d6:
                    06:7c:52:99:c8:97:d1:b3:80:3a:a2:4f:36:c4:c5:
                    96:30:77:31:38:c8:70:cc:e1:67:06:b3:2b:2f:93:
                    b5:69:cf:83:7e:88:53:9b:0f:46:21:4c:d6:05:36:
                    44:99:60:68:47:e5:32:01:12:d4:10:73:ae:9a:34:
                    94:fa:6e:b8:58:4f:7b:5b:8a:92:97:ad:fd:97:b9:
                    75:ca:c2:d4:45:7d:17:6b:cd:2f:f3:63:7a:0e:30:
                    b5:0b:a9:d9:a6:7c:74:60:9d:cc:09:03:43:f1:0f:
                    90:d3:b7:fe:6c:9f:d9:cd:78:4b:15:ae:8c:5b:f9:
                    99:81
                Exponent: 65537 (0x10001)
        X509v3 extensions:
            X509v3 Basic Constraints: 
                CA:TRUE
            X509v3 Subject Key Identifier: 
                73:B0:1C:A4:2F:82:CB:CF:47:A5:38:D7:B0:04:82:3A:7E:72:15:21
            X509v3 Authority Key Identifier: 
                keyid:73:B0:1C:A4:2F:82:CB:CF:47:A5:38:D7:B0:04:82:3A:7E:72:15:21
                DirName:/C=US/ST=Washington/L=Seattle/O=wolfSSL/OU=Engineering/CN=wolfSSL root CA/emailAddress=info@wolfssl.com
                serial:63

            X509v3 Key Usage: 
                Certificate Sign, CRL Sign
            Authority Information Access: 
                OCSP - URI:http://127.0.0.1:22220

    Signature Algorithm: sha256WithRSAEncryption
         6b:10:b1:f8:cb:77:ef:72:f5:f8:fc:70:6d:18:dc:34:fe:d7:
         95:d8:fd:85:8e:ca:4b:f3:be:1f:eb:14:08:dc:23:34:78:98:
         39:d7:9f:c3:52:f6:14:3d:e9:de:5c:c2:d8:b1:4b:a8:4c:5b:
         91:42:66:da:7f:3c:e9:03:20:5e:08:0f:76:79:b9:21:10:89:
         b7:73:46:44:7e:6e:28:0c:00:e4:f4:3e:65:aa:f5:c6:27:57:
         2c:bb:1d:ae:e5:94:57:a3:73:9e:6b:44:00:35:4a:f3:c7:34:
         9c:a2:a7:aa:62:9f:1d:ef:a8:6c:be:07:ad:ef:ae:ee:93:0b:
         ba:c3:59:4e:90:40:2d:00:5e:f0:0f:0a:de:18:2a:b3:97:31:
         63:84:ff:18:1c:b6:d8:7d:ee:33:ed:99:f0:f5:7f:88:58:b3:
         0d:90:db:eb:44:7e:06:37:61:d4:34:b9:f6:fd:3e:8d:07:e4:
         b5:b0:ae:09:ce:98:e4:b0:1b:d5:7b:53:94:dd:8a:b2:20:d6:
         b0:72:f8:b1:bc:76:df:16:86:39:7b:e4:a9:15:47:57:ae:ca:
         41:d6:3a:ba:15:d1:c0:b5:38:66:0b:0f:80:8b:a2:07:b4:fc:
         80:1f:a3:4c:1f:d2:65:97:c1:2c:ae:46:31:61:49:0d:d7:5f:
         ac:d2:a6:05
-----BEGIN CERTIFICATE-----
MIIE5jCCA86gAwIBAgIBYzANBgkqhkiG9w0BAQsFADCBlzELMAkGA1UEBhMCVVMx
EzARBgNVBAgMCldhc2hpbmd0b24xEDAOBgNVBAcMB1NlYXR0bGUxEDAOBgNVBAoM
B3dvbGZTU0wxFDASBgNVBAsMC0VuZ2luZWVyaW5nMRgwFgYDVQQDDA93b2xmU1NM
IHJvb3QgQ0ExHzAdBgkqhkiG9w0BCQEWEGluZm9Ad29sZnNzbC5jb20wHhcNMTgw
NDEzMTUyMzEwWhcNMjEwMTA3MTUyMzEwWjCBlzELMAkGA1UEBhMCVVMxEzARBgNV
BAgMCldhc2hpbmd0b24xEDAOBgNVBAcMB1NlYXR0bGUxEDAOBgNVBAoMB3dvbGZT
U0wxFDASBgNVBAsMC0VuZ2luZWVyaW5nMRgwFgYDVQQDDA93b2xmU1NMIHJvb3Qg
Q0ExHzAdBgkqhkiG9w0BCQEWEGluZm9Ad29sZnNzbC5jb20wggEiMA0GCSqGSIb3
DQEBAQUAA4IBDwAwggEKAoIBAQCrLLQvHQYJ704phoR+zL+meXzwwMFkJYx1txAF
ykgnDA4yHLD+mYU5trmi9yf/bTyMFnMpIX+LplRxkK3MBbmfFccKP19p9ApfjHG1
LL9m4gOaMvTS7CqJS/k1iBQzR04uBXkB7WQ2drn4hc0BiKzFsrFZuM1a9AkJOJva
Ws/OeJkfST1B1gZ8UpnIl9GzgDqiTzbExZYwdzE4yHDM4WcGsysvk7Vpz4N+iFOb
D0YhTNYFNkSZYGhH5TIBEtQQc66aNJT6brhYT3tbipKXrf2XuXXKwtRFfRdrzS/z
Y3oOMLULqdmmfHRgncwJA0PxD5DTt/5sn9nNeEsVroxb+ZmBAgMBAAGjggE5MIIB
NTAMBgNVHRMEBTADAQH/MB0GA1UdDgQWBBRzsBykL4LLz0elONewBII6fnIVITCB
xAYDVR0jBIG8MIG5gBRzsBykL4LLz0elONewBII6fnIVIaGBnaSBmjCBlzELMAkG
A1UEBhMCVVMxEzARBgNVBAgMCldhc2hpbmd0b24xEDAOBgNVBAcMB1NlYXR0bGUx
EDAOBgNVBAoMB3dvbGZTU0wxFDASBgNVBAsMC0VuZ2luZWVyaW5nMRgwFgYDVQQD
DA93b2xmU1NMIHJvb3QgQ0ExHzAdBgkqhkiG9w0BCQEWEGluZm9Ad29sZnNzbC5j
b22CAWMwCwYDVR0PBAQDAgEGMDIGCCsGAQUFBwEBBCYwJDAiBggrBgEFBQcwAYYW
aHR0cDovLzEyNy4wLjAuMToyMjIyMDANBgkqhkiG9w0BAQsFAAOCAQEAaxCx+Mt3
73L1+PxwbRjcNP7Xldj9hY7KS/O+H+sUCNwjNHiYOdefw1L2FD3p3lzC2LFLqExb
kUJm2n886QMgXggPdnm5IRCJt3NGRH5uKAwA5PQ+Zar1xidXLLsdruWUV6NznmtE
ADVK88c0nKKnqmKfHe+obL4Hre+u7pMLusNZTpBALQBe8A8K3hgqs5cxY4T/GBy2
2H3uM+2Z8PV/iFizDZDb60R+Bjdh1DS59v0+jQfktbCuCc6Y5LAb1XtTlN2KsiDW
sHL4sbx23xaGOXvkqRVHV67KQdY6uhXRwLU4ZgsPgIuiB7T8gB+jTB/SZZfBLK5G
MWFJDddfrNKmBQ==
-----END CERTIFICATE-----
