Certificate:
    Data:
        Version: 3 (0x2)
        Serial Number: 5 (0x5)
    Signature Algorithm: sha256WithRSAEncryption
        Issuer: C=US, ST=Washington, L=Seattle, O=wolfSSL, OU=Engineering, CN=wolfSSL intermediate CA 1/emailAddress=info@wolfssl.com
        Validity
            Not Before: Apr 13 15:23:10 2018 GMT
            Not After : Jan  7 15:23:10 2021 GMT
        Subject: C=US, ST=Washington, L=Seattle, O=wolfSSL, OU=Engineering, CN=www1.wolfssl.com/emailAddress=info@wolfssl.com
        Subject Public Key Info:
            Public Key Algorithm: rsaEncryption
                Public-Key: (2048 bit)
                Modulus:
                    00:e6:96:55:75:cf:8a:97:68:8c:b6:38:f6:7a:05:
                    be:33:b6:51:47:37:8a:f7:db:91:be:92:6b:b7:00:
                    8c:f2:c5:24:6e:18:e9:92:00:81:01:dc:b3:4c:28:
                    a9:b7:80:f1:96:cf:23:7a:2f:ae:f8:e3:0f:2d:d3:
                    5e:23:e7:db:4c:b2:5d:89:16:17:be:be:81:db:fb:
                    12:6d:28:4b:10:a0:12:04:27:c1:c9:d0:79:95:ef:
                    e8:8d:8c:59:9b:4e:72:7d:bc:49:2b:22:4e:f8:4f:
                    e2:0c:f1:e9:e9:97:f9:df:8c:5a:0a:aa:38:1d:43:
                    04:a3:a7:89:a1:e2:83:a4:4b:b5:4e:45:88:a6:22:
                    5d:ac:a9:58:67:88:c1:d5:61:ef:bd:11:05:27:94:
                    47:bb:33:a5:8a:ca:ee:1f:8d:c0:6e:24:af:cd:ca:
                    bf:80:47:71:95:ac:a9:f1:5d:23:6c:f5:4b:b4:a9:
                    e1:c4:66:fb:e5:c4:a1:9f:a7:51:d1:78:cd:2e:b4:
                    3f:2e:e2:82:f3:7f:c4:a7:f4:31:cf:76:27:3f:db:
                    2e:d2:6e:c3:47:23:82:a3:48:40:8c:a7:c1:13:f0:
                    63:50:54:43:f6:71:12:e1:6f:a5:7a:58:26:f7:fd:
                    8b:3b:70:18:a0:43:ba:01:6b:b3:f8:d5:be:05:13:
                    64:31
                Exponent: 65537 (0x10001)
        X509v3 extensions:
            X509v3 Basic Constraints: 
                CA:FALSE
            X509v3 Subject Key Identifier: 
                CC:55:15:00:E2:44:89:92:63:6D:10:5D:B9:9E:73:B6:5D:3A:19:CA
            X509v3 Authority Key Identifier: 
                keyid:83:C6:3A:89:2C:81:F4:02:D7:9D:4C:E2:2A:C0:71:82:64:44:DA:0E
                DirName:/C=US/ST=Washington/L=Seattle/O=wolfSSL/OU=Engineering/CN=wolfSSL root CA/emailAddress=info@wolfssl.com
                serial:01

            X509v3 Key Usage: 
                Digital Signature, Non Repudiation, Key Encipherment
            Authority Information Access: 
                OCSP - URI:http://127.0.0.1:22221

    Signature Algorithm: sha256WithRSAEncryption
         13:fc:55:34:0b:04:b3:16:06:81:b7:11:e8:ec:b4:37:3e:52:
         21:50:8a:48:3f:9b:3d:80:04:8e:d1:8e:b2:0f:84:f8:0a:8c:
         79:6e:65:e3:33:5f:29:9c:39:2b:3c:20:80:96:94:ee:87:2e:
         4a:05:7e:a7:30:8f:d8:ea:56:6d:ce:4b:e5:23:34:80:b1:cb:
         37:11:39:ad:60:3d:ce:87:d1:af:96:3c:53:03:5e:50:c9:70:
         ab:d1:38:ba:ea:53:d8:17:03:59:42:f3:cf:8f:68:98:31:4b:
         6b:8f:e6:67:b6:42:d1:9d:24:b5:ab:d3:40:81:bd:6d:d4:d7:
         8a:0d:49:11:eb:b6:be:27:d2:bb:f2:6d:3c:7e:e4:f4:d4:f1:
         03:88:57:8b:25:ce:3e:6e:62:2c:01:9d:1f:c1:11:15:ab:37:
         5a:56:1f:75:aa:5a:70:ac:57:d1:8a:38:c1:e5:a1:b0:1f:33:
         e3:84:7d:6b:f9:1a:f2:0a:9c:fa:ed:10:41:ad:56:57:9d:76:
         d0:d8:3d:ac:fd:f5:13:3d:01:8e:a3:2c:8f:bd:ab:4d:a9:39:
         52:c9:76:a2:80:49:18:20:8b:4b:85:86:11:1e:19:d1:26:6c:
         92:72:2c:28:eb:38:67:ce:a0:d3:4f:7c:f7:a8:fe:1a:3f:17:
         83:2b:b6:9a
-----BEGIN CERTIFICATE-----
MIIE7jCCA9agAwIBAgIBBTANBgkqhkiG9w0BAQsFADCBoTELMAkGA1UEBhMCVVMx
EzARBgNVBAgMCldhc2hpbmd0b24xEDAOBgNVBAcMB1NlYXR0bGUxEDAOBgNVBAoM
B3dvbGZTU0wxFDASBgNVBAsMC0VuZ2luZWVyaW5nMSIwIAYDVQQDDBl3b2xmU1NM
IGludGVybWVkaWF0ZSBDQSAxMR8wHQYJKoZIhvcNAQkBFhBpbmZvQHdvbGZzc2wu
Y29tMB4XDTE4MDQxMzE1MjMxMFoXDTIxMDEwNzE1MjMxMFowgZgxCzAJBgNVBAYT
AlVTMRMwEQYDVQQIDApXYXNoaW5ndG9uMRAwDgYDVQQHDAdTZWF0dGxlMRAwDgYD
VQQKDAd3b2xmU1NMMRQwEgYDVQQLDAtFbmdpbmVlcmluZzEZMBcGA1UEAwwQd3d3
MS53b2xmc3NsLmNvbTEfMB0GCSqGSIb3DQEJARYQaW5mb0B3b2xmc3NsLmNvbTCC
ASIwDQYJKoZIhvcNAQEBBQADggEPADCCAQoCggEBAOaWVXXPipdojLY49noFvjO2
UUc3ivfbkb6Sa7cAjPLFJG4Y6ZIAgQHcs0woqbeA8ZbPI3ovrvjjDy3TXiPn20yy
XYkWF76+gdv7Em0oSxCgEgQnwcnQeZXv6I2MWZtOcn28SSsiTvhP4gzx6emX+d+M
WgqqOB1DBKOniaHig6RLtU5FiKYiXaypWGeIwdVh770RBSeUR7szpYrK7h+NwG4k
r83Kv4BHcZWsqfFdI2z1S7Sp4cRm++XEoZ+nUdF4zS60Py7igvN/xKf0Mc92Jz/b
LtJuw0cjgqNIQIynwRPwY1BUQ/ZxEuFvpXpYJvf9iztwGKBDugFrs/jVvgUTZDEC
AwEAAaOCATYwggEyMAkGA1UdEwQCMAAwHQYDVR0OBBYEFMxVFQDiRImSY20QXbme
c7ZdOhnKMIHEBgNVHSMEgbwwgbmAFIPGOoksgfQC151M4irAcYJkRNoOoYGdpIGa
MIGXMQswCQYDVQQGEwJVUzETMBEGA1UECAwKV2FzaGluZ3RvbjEQMA4GA1UEBwwH
U2VhdHRsZTEQMA4GA1UECgwHd29sZlNTTDEUMBIGA1UECwwLRW5naW5lZXJpbmcx
GDAWBgNVBAMMD3dvbGZTU0wgcm9vdCBDQTEfMB0GCSqGSIb3DQEJARYQaW5mb0B3
b2xmc3NsLmNvbYIBATALBgNVHQ8EBAMCBeAwMgYIKwYBBQUHAQEEJjAkMCIGCCsG
AQUFBzABhhZodHRwOi8vMTI3LjAuMC4xOjIyMjIxMA0GCSqGSIb3DQEBCwUAA4IB
AQAT/FU0CwSzFgaBtxHo7LQ3PlIhUIpIP5s9gASO0Y6yD4T4Cox5bmXjM18pnDkr
PCCAlpTuhy5KBX6nMI/Y6lZtzkvlIzSAscs3ETmtYD3Oh9GvljxTA15QyXCr0Ti6
6lPYFwNZQvPPj2iYMUtrj+ZntkLRnSS1q9NAgb1t1NeKDUkR67a+J9K78m08fuT0
1PEDiFeLJc4+bmIsAZ0fwREVqzdaVh91qlpwrFfRijjB5aGwHzPjhH1r+RryCpz6
7RBBrVZXnXbQ2D2s/fUTPQGOoyyPvatNqTlSyXaigEkYIItLhYYRHhnRJmySciwo
6zhnzqDTT3z3qP4aPxeDK7aa
-----END CERTIFICATE-----
Certificate:
    Data:
        Version: 3 (0x2)
        Serial Number: 1 (0x1)
    Signature Algorithm: sha256WithRSAEncryption
        Issuer: C=US, ST=Washington, L=Seattle, O=wolfSSL, OU=Engineering, CN=wolfSSL root CA/emailAddress=info@wolfssl.com
        Validity
            Not Before: Apr 13 15:23:10 2018 GMT
            Not After : Jan  7 15:23:10 2021 GMT
        Subject: C=US, ST=Washington, L=Seattle, O=wolfSSL, OU=Engineering, CN=wolfSSL intermediate CA 1/emailAddress=info@wolfssl.com
        Subject Public Key Info:
            Public Key Algorithm: rsaEncryption
                Public-Key: (2048 bit)
                Modulus:
                    00:de:b4:c8:5c:77:e0:2d:b1:f5:b9:ad:16:47:35:
                    a0:35:65:65:c6:e1:40:ab:1e:b4:b9:13:b7:cb:8c:
                    bb:77:a5:76:da:6d:87:87:f6:4a:4d:13:e4:26:3e:
                    27:87:ee:5b:c7:6a:3f:45:30:61:55:5c:f6:35:d1:
                    65:fa:98:11:a3:a7:55:d5:be:91:82:4b:fc:be:90:
                    d6:50:53:63:9a:2c:22:e1:35:11:dc:78:02:97:8a:
                    e4:46:92:9c:53:08:76:de:1f:53:b6:b8:ca:77:3e:
                    79:6e:bc:d0:e3:0d:30:5b:4c:f6:94:0d:30:29:64:
                    9f:04:e5:db:fb:89:60:67:bb:af:26:83:51:77:24:
                    2f:2b:0b:a1:94:81:10:98:e8:eb:26:a8:1e:7c:e4:
                    c4:6c:67:06:95:55:4a:dd:52:f4:f2:60:6d:01:2b:
                    19:91:35:6d:a4:08:47:06:71:24:00:d9:de:c6:56:
                    f3:8b:53:2c:e2:9a:96:a5:f3:62:e5:c4:e3:23:f2:
                    d2:fc:21:ea:0f:62:76:8d:d5:99:48:ce:dc:58:c4:
                    bb:7f:da:94:2c:80:74:83:c5:e0:b0:15:7e:41:fd:
                    0e:f2:f4:f0:78:76:7b:ad:26:0d:aa:48:96:17:2f:
                    21:e3:95:2b:26:37:f9:aa:80:2f:fe:de:f6:5e:bc:
                    97:7f
                Exponent: 65537 (0x10001)
        X509v3 extensions:
            X509v3 Basic Constraints: 
                CA:TRUE
            X509v3 Subject Key Identifier: 
                83:C6:3A:89:2C:81:F4:02:D7:9D:4C:E2:2A:C0:71:82:64:44:DA:0E
            X509v3 Authority Key Identifier: 
                keyid:73:B0:1C:A4:2F:82:CB:CF:47:A5:38:D7:B0:04:82:3A:7E:72:15:21
                DirName:/C=US/ST=Washington/L=Seattle/O=wolfSSL/OU=Engineering/CN=wolfSSL root CA/emailAddress=info@wolfssl.com
                serial:63

            X509v3 Key Usage: 
                Certificate Sign, CRL Sign
            Authority Information Access: 
                OCSP - URI:http://127.0.0.1:22220

    Signature Algorithm: sha256WithRSAEncryption
         18:a3:09:fe:c3:53:c7:ce:11:f0:36:86:43:9c:46:9b:43:42:
         a0:20:6e:b6:32:29:34:22:fa:27:a1:00:0c:e5:51:c3:35:7b:
         2f:ce:2c:48:7f:47:cf:1b:45:f9:30:b2:d0:17:15:a0:c3:a8:
         3a:e4:5f:a4:96:e4:25:ea:4e:80:90:2e:8d:f5:19:98:ae:2a:
         6d:39:f0:06:8f:e6:0b:c4:2b:dd:07:4a:ad:3d:34:11:79:3d:
         15:db:65:c6:33:60:6b:2f:2d:47:26:bb:91:53:28:35:5c:fd:
         57:3b:27:1b:a1:85:03:24:74:84:f4:f2:b2:e3:53:41:83:9c:
         6b:5a:0c:0f:3b:c4:5f:a7:4b:8b:04:f2:0d:f5:81:aa:16:33:
         d2:f4:f5:8d:83:c1:10:2d:57:55:f8:d3:16:62:27:50:b2:57:
         20:1d:a3:07:0c:b8:8d:c5:5a:2f:d9:d3:c4:6a:c3:1e:51:10:
         de:7e:60:cf:d0:78:2c:00:d4:da:df:de:de:ee:ed:1d:25:da:
         6c:9f:57:69:2a:f1:a2:6c:8a:fe:72:c0:57:9f:f8:6e:b7:47:
         f1:4f:f6:4b:9c:a2:2a:d2:10:9c:4e:bc:b4:8a:a2:8e:51:5a:
         c1:e7:9c:f1:7c:9c:f9:7d:d7:9c:8f:ed:e9:57:91:0a:6c:4b:
         b4:ac:6f:30
-----BEGIN CERTIFICATE-----
MIIE8DCCA9igAwIBAgIBATANBgkqhkiG9w0BAQsFADCBlzELMAkGA1UEBhMCVVMx
EzARBgNVBAgMCldhc2hpbmd0b24xEDAOBgNVBAcMB1NlYXR0bGUxEDAOBgNVBAoM
B3dvbGZTU0wxFDASBgNVBAsMC0VuZ2luZWVyaW5nMRgwFgYDVQQDDA93b2xmU1NM
IHJvb3QgQ0ExHzAdBgkqhkiG9w0BCQEWEGluZm9Ad29sZnNzbC5jb20wHhcNMTgw
NDEzMTUyMzEwWhcNMjEwMTA3MTUyMzEwWjCBoTELMAkGA1UEBhMCVVMxEzARBgNV
BAgMCldhc2hpbmd0b24xEDAOBgNVBAcMB1NlYXR0bGUxEDAOBgNVBAoMB3dvbGZT
U0wxFDASBgNVBAsMC0VuZ2luZWVyaW5nMSIwIAYDVQQDDBl3b2xmU1NMIGludGVy
bWVkaWF0ZSBDQSAxMR8wHQYJKoZIhvcNAQkBFhBpbmZvQHdvbGZzc2wuY29tMIIB
IjANBgkqhkiG9w0BAQEFAAOCAQ8AMIIBCgKCAQEA3rTIXHfgLbH1ua0WRzWgNWVl
xuFAqx60uRO3y4y7d6V22m2Hh/ZKTRPkJj4nh+5bx2o/RTBhVVz2NdFl+pgRo6dV
1b6Rgkv8vpDWUFNjmiwi4TUR3HgCl4rkRpKcUwh23h9TtrjKdz55brzQ4w0wW0z2
lA0wKWSfBOXb+4lgZ7uvJoNRdyQvKwuhlIEQmOjrJqgefOTEbGcGlVVK3VL08mBt
ASsZkTVtpAhHBnEkANnexlbzi1Ms4pqWpfNi5cTjI/LS/CHqD2J2jdWZSM7cWMS7
f9qULIB0g8XgsBV+Qf0O8vTweHZ7rSYNqkiWFy8h45UrJjf5qoAv/t72XryXfwID
AQABo4IBOTCCATUwDAYDVR0TBAUwAwEB/zAdBgNVHQ4EFgQUg8Y6iSyB9ALXnUzi
KsBxgmRE2g4wgcQGA1UdIwSBvDCBuYAUc7AcpC+Cy89HpTjXsASCOn5yFSGhgZ2k
gZowgZcxCzAJBgNVBAYTAlVTMRMwEQYDVQQIDApXYXNoaW5ndG9uMRAwDgYDVQQH
DAdTZWF0dGxlMRAwDgYDVQQKDAd3b2xmU1NMMRQwEgYDVQQLDAtFbmdpbmVlcmlu
ZzEYMBYGA1UEAwwPd29sZlNTTCByb290IENBMR8wHQYJKoZIhvcNAQkBFhBpbmZv
QHdvbGZzc2wuY29tggFjMAsGA1UdDwQEAwIBBjAyBggrBgEFBQcBAQQmMCQwIgYI
KwYBBQUHMAGGFmh0dHA6Ly8xMjcuMC4wLjE6MjIyMjAwDQYJKoZIhvcNAQELBQAD
ggEBABijCf7DU8fOEfA2hkOcRptDQqAgbrYyKTQi+iehAAzlUcM1ey/OLEh/R88b
RfkwstAXFaDDqDrkX6SW5CXqToCQLo31GZiuKm058AaP5gvEK90HSq09NBF5PRXb
ZcYzYGsvLUcmu5FTKDVc/Vc7JxuhhQMkdIT08rLjU0GDnGtaDA87xF+nS4sE8g31
gaoWM9L09Y2DwRAtV1X40xZiJ1CyVyAdowcMuI3FWi/Z08Rqwx5REN5+YM/QeCwA
1Nrf3t7u7R0l2myfV2kq8aJsiv5ywFef+G63R/FP9kucoirSEJxOvLSKoo5RWsHn
nPF8nPl915yP7elXkQpsS7SsbzA=
-----END CERTIFICATE-----
Certificate:
    Data:
        Version: 3 (0x2)
        Serial Number: 99 (0x63)
    Signature Algorithm: sha256WithRSAEncryption
        Issuer: C=US, ST=Washington, L=Seattle, O=wolfSSL, OU=Engineering, CN=wolfSSL root CA/emailAddress=info@wolfssl.com
        Validity
            Not Before: Apr 13 15:23:10 2018 GMT
            Not After : Jan  7 15:23:10 2021 GMT
        Subject: C=US, ST=Washington, L=Seattle, O=wolfSSL, OU=Engineering, CN=wolfSSL root CA/emailAddress=info@wolfssl.com
        Subject Public Key Info:
            Public Key Algorithm: rsaEncryption
                Public-Key: (2048 bit)
                Modulus:
                    00:ab:2c:b4:2f:1d:06:09:ef:4e:29:86:84:7e:cc:
                    bf:a6:79:7c:f0:c0:c1:64:25:8c:75:b7:10:05:ca:
                    48:27:0c:0e:32:1c:b0:fe:99:85:39:b6:b9:a2:f7:
                    27:ff:6d:3c:8c:16:73:29:21:7f:8b:a6:54:71:90:
                    ad:cc:05:b9:9f:15:c7:0a:3f:5f:69:f4:0a:5f:8c:
                    71:b5:2c:bf:66:e2:03:9a:32:f4:d2:ec:2a:89:4b:
                    f9:35:88:14:33:47:4e:2e:05:79:01:ed:64:36:76:
                    b9:f8:85:cd:01:88:ac:c5:b2:b1:59:b8:cd:5a:f4:
                    09:09:38:9b:da:5a:cf:ce:78:99:1f:49:3d:41:d6:
                    06:7c:52:99:c8:97:d1:b3:80:3a:a2:4f:36:c4:c5:
                    96:30:77:31:38:c8:70:cc:e1:67:06:b3:2b:2f:93:
                    b5:69:cf:83:7e:88:53:9b:0f:46:21:4c:d6:05:36:
                    44:99:60:68:47:e5:32:01:12:d4:10:73:ae:9a:34:
                    94:fa:6e:b8:58:4f:7b:5b:8a:92:97:ad:fd:97:b9:
                    75:ca:c2:d4:45:7d:17:6b:cd:2f:f3:63:7a:0e:30:
                    b5:0b:a9:d9:a6:7c:74:60:9d:cc:09:03:43:f1:0f:
                    90:d3:b7:fe:6c:9f:d9:cd:78:4b:15:ae:8c:5b:f9:
                    99:81
                Exponent: 65537 (0x10001)
        X509v3 extensions:
            X509v3 Basic Constraints: 
                CA:TRUE
            X509v3 Subject Key Identifier: 
                73:B0:1C:A4:2F:82:CB:CF:47:A5:38:D7:B0:04:82:3A:7E:72:15:21
            X509v3 Authority Key Identifier: 
                keyid:73:B0:1C:A4:2F:82:CB:CF:47:A5:38:D7:B0:04:82:3A:7E:72:15:21
                DirName:/C=US/ST=Washington/L=Seattle/O=wolfSSL/OU=Engineering/CN=wolfSSL root CA/emailAddress=info@wolfssl.com
                serial:63

            X509v3 Key Usage: 
                Certificate Sign, CRL Sign
            Authority Information Access: 
                OCSP - URI:http://127.0.0.1:22220

    Signature Algorithm: sha256WithRSAEncryption
         6b:10:b1:f8:cb:77:ef:72:f5:f8:fc:70:6d:18:dc:34:fe:d7:
         95:d8:fd:85:8e:ca:4b:f3:be:1f:eb:14:08:dc:23:34:78:98:
         39:d7:9f:c3:52:f6:14:3d:e9:de:5c:c2:d8:b1:4b:a8:4c:5b:
         91:42:66:da:7f:3c:e9:03:20:5e:08:0f:76:79:b9:21:10:89:
         b7:73:46:44:7e:6e:28:0c:00:e4:f4:3e:65:aa:f5:c6:27:57:
         2c:bb:1d:ae:e5:94:57:a3:73:9e:6b:44:00:35:4a:f3:c7:34:
         9c:a2:a7:aa:62:9f:1d:ef:a8:6c:be:07:ad:ef:ae:ee:93:0b:
         ba:c3:59:4e:90:40:2d:00:5e:f0:0f:0a:de:18:2a:b3:97:31:
         63:84:ff:18:1c:b6:d8:7d:ee:33:ed:99:f0:f5:7f:88:58:b3:
         0d:90:db:eb:44:7e:06:37:61:d4:34:b9:f6:fd:3e:8d:07:e4:
         b5:b0:ae:09:ce:98:e4:b0:1b:d5:7b:53:94:dd:8a:b2:20:d6:
         b0:72:f8:b1:bc:76:df:16:86:39:7b:e4:a9:15:47:57:ae:ca:
         41:d6:3a:ba:15:d1:c0:b5:38:66:0b:0f:80:8b:a2:07:b4:fc:
         80:1f:a3:4c:1f:d2:65:97:c1:2c:ae:46:31:61:49:0d:d7:5f:
         ac:d2:a6:05
-----BEGIN CERTIFICATE-----
MIIE5jCCA86gAwIBAgIBYzANBgkqhkiG9w0BAQsFADCBlzELMAkGA1UEBhMCVVMx
EzARBgNVBAgMCldhc2hpbmd0b24xEDAOBgNVBAcMB1NlYXR0bGUxEDAOBgNVBAoM
B3dvbGZTU0wxFDASBgNVBAsMC0VuZ2luZWVyaW5nMRgwFgYDVQQDDA93b2xmU1NM
IHJvb3QgQ0ExHzAdBgkqhkiG9w0BCQEWEGluZm9Ad29sZnNzbC5jb20wHhcNMTgw
NDEzMTUyMzEwWhcNMjEwMTA3MTUyMzEwWjCBlzELMAkGA1UEBhMCVVMxEzARBgNV
BAgMCldhc2hpbmd0b24xEDAOBgNVBAcMB1NlYXR0bGUxEDAOBgNVBAoMB3dvbGZT
U0wxFDASBgNVBAsMC0VuZ2luZWVyaW5nMRgwFgYDVQQDDA93b2xmU1NMIHJvb3Qg
Q0ExHzAdBgkqhkiG9w0BCQEWEGluZm9Ad29sZnNzbC5jb20wggEiMA0GCSqGSIb3
DQEBAQUAA4IBDwAwggEKAoIBAQCrLLQvHQYJ704phoR+zL+meXzwwMFkJYx1txAF
ykgnDA4yHLD+mYU5trmi9yf/bTyMFnMpIX+LplRxkK3MBbmfFccKP19p9ApfjHG1
LL9m4gOaMvTS7CqJS/k1iBQzR04uBXkB7WQ2drn4hc0BiKzFsrFZuM1a9AkJOJva
Ws/OeJkfST1B1gZ8UpnIl9GzgDqiTzbExZYwdzE4yHDM4WcGsysvk7Vpz4N+iFOb
D0YhTNYFNkSZYGhH5TIBEtQQc66aNJT6brhYT3tbipKXrf2XuXXKwtRFfRdrzS/z
Y3oOMLULqdmmfHRgncwJA0PxD5DTt/5sn9nNeEsVroxb+ZmBAgMBAAGjggE5MIIB
NTAMBgNVHRMEBTADAQH/MB0GA1UdDgQWBBRzsBykL4LLz0elONewBII6fnIVITCB
xAYDVR0jBIG8MIG5gBRzsBykL4LLz0elONewBII6fnIVIaGBnaSBmjCBlzELMAkG
A1UEBhMCVVMxEzARBgNVBAgMCldhc2hpbmd0b24xEDAOBgNVBAcMB1NlYXR0bGUx
EDAOBgNVBAoMB3dvbGZTU0wxFDASBgNVBAsMC0VuZ2luZWVyaW5nMRgwFgYDVQQD
DA93b2xmU1NMIHJvb3QgQ0ExHzAdBgkqhkiG9w0BCQEWEGluZm9Ad29sZnNzbC5j
b22CAWMwCwYDVR0PBAQDAgEGMDIGCCsGAQUFBwEBBCYwJDAiBggrBgEFBQcwAYYW
aHR0cDovLzEyNy4wLjAuMToyMjIyMDANBgkqhkiG9w0BAQsFAAOCAQEAaxCx+Mt3
73L1+PxwbRjcNP7Xldj9hY7KS/O+H+sUCNwjNHiYOdefw1L2FD3p3lzC2LFLqExb
kUJm2n886QMgXggPdnm5IRCJt3NGRH5uKAwA5PQ+Zar1xidXLLsdruWUV6NznmtE
ADVK88c0nKKnqmKfHe+obL4Hre+u7pMLusNZTpBALQBe8A8K3hgqs5cxY4T/GBy2
2H3uM+2Z8PV/iFizDZDb60R+Bjdh1DS59v0+jQfktbCuCc6Y5LAb1XtTlN2KsiDW
sHL4sbx23xaGOXvkqRVHV67KQdY6uhXRwLU4ZgsPgIuiB7T8gB+jTB/SZZfBLK5G
MWFJDddfrNKmBQ==
-----END CERTIFICATE-----
