Certificate:
    Data:
        Version: 3 (0x2)
        Serial Number: 9 (0x9)
    Signature Algorithm: sha256WithRSAEncryption
        Issuer: C=US, ST=Washington, L=Seattle, O=wolfSSL, OU=Engineering, CN=wolfSSL REVOKED intermediate CA/emailAddress=info@wolfssl.com
        Validity
            Not Before: Apr 13 15:23:10 2018 GMT
            Not After : Jan  7 15:23:10 2021 GMT
        Subject: C=US, ST=Washington, L=Seattle, O=wolfSSL, OU=Engineering, CN=www5.wolfssl.com/emailAddress=info@wolfssl.com
        Subject Public Key Info:
            Public Key Algorithm: rsaEncryption
                Public-Key: (2048 bit)
                Modulus:
                    00:ac:73:6d:e9:fa:8c:36:72:3e:89:3b:52:29:bd:
                    14:70:a2:00:b4:08:58:b6:c6:c0:bf:80:6a:1f:a5:
                    f0:15:fc:f4:19:a2:67:f9:6a:5d:22:69:2e:9c:29:
                    53:1e:5a:4a:d1:27:d5:b8:3b:65:37:8a:a2:eb:1b:
                    d4:5d:90:11:35:11:af:e3:d1:8c:24:5b:b5:90:c0:
                    bf:de:cb:7a:05:71:1b:ef:76:d7:9d:43:47:85:dc:
                    24:b8:b8:54:fc:53:bf:c3:fd:e1:12:c6:fc:1b:6f:
                    95:aa:cf:bb:8e:22:af:83:bd:4e:6b:66:fe:7e:7e:
                    98:6f:b1:b9:fc:f9:8a:8a:18:92:9a:4c:27:5d:78:
                    6b:e9:d0:14:1c:ed:69:6d:29:4c:4e:52:e6:92:24:
                    53:b0:2e:c3:a4:94:8f:20:1c:29:5c:97:70:1a:32:
                    85:90:71:f7:d7:a5:99:4f:48:c7:3d:fc:3d:a7:e1:
                    f9:96:ea:c1:6b:ea:31:e0:9b:fb:68:3e:4b:ad:a4:
                    2b:06:90:c2:b4:27:ea:f3:a3:3e:6e:32:75:aa:70:
                    6a:e3:33:29:fb:42:09:94:79:a5:eb:3c:4e:89:02:
                    77:08:fd:da:ba:fc:14:c6:8e:c1:5e:db:6d:d0:07:
                    4f:02:79:60:e7:95:c3:c8:f4:54:83:21:12:79:03:
                    7f:e1
                Exponent: 65537 (0x10001)
        X509v3 extensions:
            X509v3 Basic Constraints: 
                CA:FALSE
            X509v3 Subject Key Identifier: 
                2A:48:B6:8B:00:F0:4B:35:73:94:07:87:52:A3:69:5E:E6:D8:42:87
            X509v3 Authority Key Identifier: 
                keyid:BB:15:9E:32:4D:E0:F8:AA:8A:B0:2E:0C:17:2B:5A:41:74:4B:06:45
                DirName:/C=US/ST=Washington/L=Seattle/O=wolfSSL/OU=Engineering/CN=wolfSSL root CA/emailAddress=info@wolfssl.com
                serial:03

            X509v3 Key Usage: 
                Digital Signature, Non Repudiation, Key Encipherment
            Authority Information Access: 
                OCSP - URI:http://127.0.0.1:22223

    Signature Algorithm: sha256WithRSAEncryption
         ba:fe:ad:1d:d4:33:69:13:86:4d:1a:ea:fc:a0:61:00:9a:bd:
         83:7d:53:3d:b5:63:a9:c8:c2:b6:10:4d:fb:5f:f2:e5:b1:e4:
         1a:9b:85:36:8f:3c:d3:09:98:4c:c5:3e:10:ed:a3:74:a5:3c:
         fc:d9:b2:80:38:6c:be:f4:8b:52:40:0e:45:e8:fd:a2:29:d8:
         5c:f9:1d:14:76:3d:8d:41:74:3c:56:05:d2:a3:2e:14:5b:35:
         95:97:cf:c1:01:cf:a2:26:38:0b:76:12:bd:c4:68:f2:f5:49:
         ed:7e:eb:4e:08:73:fe:82:06:8e:ce:c4:22:d5:16:ef:0e:62:
         d5:f1:08:b8:2e:02:75:23:52:04:cf:cb:aa:1c:ce:77:b6:3a:
         e9:78:53:c4:37:d4:cc:7f:96:5d:97:89:35:da:a6:23:77:87:
         60:4a:a8:f8:b6:e6:1a:00:c5:74:98:88:b2:01:fd:23:81:05:
         f5:bb:96:60:55:ae:3b:9f:bf:c9:82:e1:24:d6:1d:1f:5d:9c:
         f7:1b:cb:37:3e:4f:c8:ca:65:c1:33:69:75:62:83:bb:87:45:
         47:bd:b2:b6:55:ef:8f:7c:5f:fd:14:75:96:4f:3e:19:d8:88:
         67:5d:75:ae:77:8f:38:3f:a2:7e:f6:f8:b8:c8:57:28:10:9d:
         1e:cd:c3:5c
-----BEGIN CERTIFICATE-----
MIIE9DCCA9ygAwIBAgIBCTANBgkqhkiG9w0BAQsFADCBpzELMAkGA1UEBhMCVVMx
EzARBgNVBAgMCldhc2hpbmd0b24xEDAOBgNVBAcMB1NlYXR0bGUxEDAOBgNVBAoM
B3dvbGZTU0wxFDASBgNVBAsMC0VuZ2luZWVyaW5nMSgwJgYDVQQDDB93b2xmU1NM
IFJFVk9LRUQgaW50ZXJtZWRpYXRlIENBMR8wHQYJKoZIhvcNAQkBFhBpbmZvQHdv
bGZzc2wuY29tMB4XDTE4MDQxMzE1MjMxMFoXDTIxMDEwNzE1MjMxMFowgZgxCzAJ
BgNVBAYTAlVTMRMwEQYDVQQIDApXYXNoaW5ndG9uMRAwDgYDVQQHDAdTZWF0dGxl
MRAwDgYDVQQKDAd3b2xmU1NMMRQwEgYDVQQLDAtFbmdpbmVlcmluZzEZMBcGA1UE
AwwQd3d3NS53b2xmc3NsLmNvbTEfMB0GCSqGSIb3DQEJARYQaW5mb0B3b2xmc3Ns
LmNvbTCCASIwDQYJKoZIhvcNAQEBBQADggEPADCCAQoCggEBAKxzben6jDZyPok7
Uim9FHCiALQIWLbGwL+Aah+l8BX89BmiZ/lqXSJpLpwpUx5aStEn1bg7ZTeKousb
1F2QETURr+PRjCRbtZDAv97LegVxG+92151DR4XcJLi4VPxTv8P94RLG/BtvlarP
u44ir4O9Tmtm/n5+mG+xufz5iooYkppMJ114a+nQFBztaW0pTE5S5pIkU7Auw6SU
jyAcKVyXcBoyhZBx99elmU9Ixz38Pafh+ZbqwWvqMeCb+2g+S62kKwaQwrQn6vOj
Pm4ydapwauMzKftCCZR5pes8TokCdwj92rr8FMaOwV7bbdAHTwJ5YOeVw8j0VIMh
EnkDf+ECAwEAAaOCATYwggEyMAkGA1UdEwQCMAAwHQYDVR0OBBYEFCpItosA8Es1
c5QHh1KjaV7m2EKHMIHEBgNVHSMEgbwwgbmAFLsVnjJN4PiqirAuDBcrWkF0SwZF
oYGdpIGaMIGXMQswCQYDVQQGEwJVUzETMBEGA1UECAwKV2FzaGluZ3RvbjEQMA4G
A1UEBwwHU2VhdHRsZTEQMA4GA1UECgwHd29sZlNTTDEUMBIGA1UECwwLRW5naW5l
ZXJpbmcxGDAWBgNVBAMMD3dvbGZTU0wgcm9vdCBDQTEfMB0GCSqGSIb3DQEJARYQ
aW5mb0B3b2xmc3NsLmNvbYIBAzALBgNVHQ8EBAMCBeAwMgYIKwYBBQUHAQEEJjAk
MCIGCCsGAQUFBzABhhZodHRwOi8vMTI3LjAuMC4xOjIyMjIzMA0GCSqGSIb3DQEB
CwUAA4IBAQC6/q0d1DNpE4ZNGur8oGEAmr2DfVM9tWOpyMK2EE37X/LlseQam4U2
jzzTCZhMxT4Q7aN0pTz82bKAOGy+9ItSQA5F6P2iKdhc+R0Udj2NQXQ8VgXSoy4U
WzWVl8/BAc+iJjgLdhK9xGjy9UntfutOCHP+ggaOzsQi1RbvDmLV8Qi4LgJ1I1IE
z8uqHM53tjrpeFPEN9TMf5Zdl4k12qYjd4dgSqj4tuYaAMV0mIiyAf0jgQX1u5Zg
Va47n7/JguEk1h0fXZz3G8s3Pk/IymXBM2l1YoO7h0VHvbK2Ve+PfF/9FHWWTz4Z
2IhnXXWud484P6J+9vi4yFcoEJ0ezcNc
-----END CERTIFICATE-----
Certificate:
    Data:
        Version: 3 (0x2)
        Serial Number: 3 (0x3)
    Signature Algorithm: sha256WithRSAEncryption
        Issuer: C=US, ST=Washington, L=Seattle, O=wolfSSL, OU=Engineering, CN=wolfSSL root CA/emailAddress=info@wolfssl.com
        Validity
            Not Before: Apr 13 15:23:10 2018 GMT
            Not After : Jan  7 15:23:10 2021 GMT
        Subject: C=US, ST=Washington, L=Seattle, O=wolfSSL, OU=Engineering, CN=wolfSSL REVOKED intermediate CA/emailAddress=info@wolfssl.com
        Subject Public Key Info:
            Public Key Algorithm: rsaEncryption
                Public-Key: (2048 bit)
                Modulus:
                    00:de:c5:04:10:7d:c2:21:e9:12:45:da:d5:ba:28:
                    fd:a6:f4:30:44:a0:df:f9:70:5e:17:26:97:59:5c:
                    31:eb:13:70:ea:4a:dd:58:3e:4f:33:14:66:59:69:
                    7a:aa:90:e0:7c:c4:b2:36:c1:0a:f4:df:3e:34:6c:
                    1a:e9:2b:f1:a5:92:7e:a9:68:70:ba:a4:68:88:f3:
                    ec:10:40:64:a5:64:7d:d9:1e:51:49:9d:7f:c8:cc:
                    2b:6d:71:2a:06:ff:e6:1f:84:28:8a:c1:ed:a8:52:
                    f4:89:a5:c0:77:d8:13:66:c2:65:a5:63:03:98:b0:
                    4b:05:4f:0c:84:a0:f4:2d:72:73:6b:fa:0d:e1:cf:
                    45:27:ed:a3:8c:02:d7:ee:99:e2:a1:f0:e3:a0:ad:
                    69:ed:59:e4:27:41:8f:ef:fa:83:73:8f:5f:2b:68:
                    89:13:46:26:dc:f6:28:6b:3b:b2:b8:9b:52:2a:17:
                    1b:dc:72:45:73:da:75:24:35:8b:00:5e:23:37:64:
                    6a:16:74:b8:ee:fe:b7:11:71:be:0a:73:c8:54:c2:
                    d9:04:d2:1b:f5:53:ac:8d:2a:4f:fe:33:79:e6:5e:
                    e7:f3:86:d3:dc:bb:4b:d7:39:7f:5b:3c:67:fe:5e:
                    88:51:05:96:f2:b4:9a:45:09:4c:51:f0:6a:4d:88:
                    2a:17
                Exponent: 65537 (0x10001)
        X509v3 extensions:
            X509v3 Basic Constraints: 
                CA:TRUE
            X509v3 Subject Key Identifier: 
                BB:15:9E:32:4D:E0:F8:AA:8A:B0:2E:0C:17:2B:5A:41:74:4B:06:45
            X509v3 Authority Key Identifier: 
                keyid:73:B0:1C:A4:2F:82:CB:CF:47:A5:38:D7:B0:04:82:3A:7E:72:15:21
                DirName:/C=US/ST=Washington/L=Seattle/O=wolfSSL/OU=Engineering/CN=wolfSSL root CA/emailAddress=info@wolfssl.com
                serial:63

            X509v3 Key Usage: 
                Certificate Sign, CRL Sign
            Authority Information Access: 
                OCSP - URI:http://127.0.0.1:22220

    Signature Algorithm: sha256WithRSAEncryption
         63:bf:90:58:0c:44:08:57:7d:94:7e:eb:fd:9d:90:f6:1d:a5:
         91:2a:32:38:a7:f7:39:c2:c0:9c:93:26:bc:f4:4b:81:0a:0f:
         07:2d:4f:a9:20:9a:3e:2c:24:0c:30:10:d7:be:96:ab:ee:1f:
         2c:f8:71:7c:1a:c1:ae:b7:64:e1:7e:18:53:c3:ae:d5:04:16:
         f7:e5:34:c2:d1:a3:31:d4:9b:f4:b7:c1:96:1f:a7:3c:3a:bf:
         fd:06:be:76:f4:da:95:f9:6f:be:4f:24:a7:0f:b0:2c:12:4d:
         d6:55:ea:f8:0a:30:91:32:4f:a3:14:6d:ec:cd:85:12:1f:da:
         78:8a:b1:9a:74:fb:fd:00:45:4a:30:83:45:16:a0:8f:b7:7f:
         23:33:91:c6:81:ac:f3:9b:cd:53:6b:9a:fa:36:9b:5d:3c:72:
         a8:73:4f:1e:b5:da:ba:08:3d:9b:ca:7a:d6:c2:bf:6e:9f:a5:
         9e:db:61:bc:a5:42:a7:d4:92:4a:7e:a3:3d:1b:aa:d3:c2:93:
         ad:ce:3b:0e:2b:61:44:1e:3c:61:54:0d:6a:26:21:54:c6:e0:
         ed:3d:da:27:cd:89:5a:f8:1f:0f:46:80:c1:f2:80:cc:52:f1:
         7f:ce:10:68:66:3f:ee:90:25:45:d4:f8:87:f9:5d:5d:74:3d:
         aa:3d:43:1c
-----BEGIN CERTIFICATE-----
MIIE9jCCA96gAwIBAgIBAzANBgkqhkiG9w0BAQsFADCBlzELMAkGA1UEBhMCVVMx
EzARBgNVBAgMCldhc2hpbmd0b24xEDAOBgNVBAcMB1NlYXR0bGUxEDAOBgNVBAoM
B3dvbGZTU0wxFDASBgNVBAsMC0VuZ2luZWVyaW5nMRgwFgYDVQQDDA93b2xmU1NM
IHJvb3QgQ0ExHzAdBgkqhkiG9w0BCQEWEGluZm9Ad29sZnNzbC5jb20wHhcNMTgw
NDEzMTUyMzEwWhcNMjEwMTA3MTUyMzEwWjCBpzELMAkGA1UEBhMCVVMxEzARBgNV
BAgMCldhc2hpbmd0b24xEDAOBgNVBAcMB1NlYXR0bGUxEDAOBgNVBAoMB3dvbGZT
U0wxFDASBgNVBAsMC0VuZ2luZWVyaW5nMSgwJgYDVQQDDB93b2xmU1NMIFJFVk9L
RUQgaW50ZXJtZWRpYXRlIENBMR8wHQYJKoZIhvcNAQkBFhBpbmZvQHdvbGZzc2wu
Y29tMIIBIjANBgkqhkiG9w0BAQEFAAOCAQ8AMIIBCgKCAQEA3sUEEH3CIekSRdrV
uij9pvQwRKDf+XBeFyaXWVwx6xNw6krdWD5PMxRmWWl6qpDgfMSyNsEK9N8+NGwa
6SvxpZJ+qWhwuqRoiPPsEEBkpWR92R5RSZ1/yMwrbXEqBv/mH4QoisHtqFL0iaXA
d9gTZsJlpWMDmLBLBU8MhKD0LXJza/oN4c9FJ+2jjALX7pniofDjoK1p7VnkJ0GP
7/qDc49fK2iJE0Ym3PYoazuyuJtSKhcb3HJFc9p1JDWLAF4jN2RqFnS47v63EXG+
CnPIVMLZBNIb9VOsjSpP/jN55l7n84bT3LtL1zl/Wzxn/l6IUQWW8rSaRQlMUfBq
TYgqFwIDAQABo4IBOTCCATUwDAYDVR0TBAUwAwEB/zAdBgNVHQ4EFgQUuxWeMk3g
+KqKsC4MFytaQXRLBkUwgcQGA1UdIwSBvDCBuYAUc7AcpC+Cy89HpTjXsASCOn5y
FSGhgZ2kgZowgZcxCzAJBgNVBAYTAlVTMRMwEQYDVQQIDApXYXNoaW5ndG9uMRAw
DgYDVQQHDAdTZWF0dGxlMRAwDgYDVQQKDAd3b2xmU1NMMRQwEgYDVQQLDAtFbmdp
bmVlcmluZzEYMBYGA1UEAwwPd29sZlNTTCByb290IENBMR8wHQYJKoZIhvcNAQkB
FhBpbmZvQHdvbGZzc2wuY29tggFjMAsGA1UdDwQEAwIBBjAyBggrBgEFBQcBAQQm
MCQwIgYIKwYBBQUHMAGGFmh0dHA6Ly8xMjcuMC4wLjE6MjIyMjAwDQYJKoZIhvcN
AQELBQADggEBAGO/kFgMRAhXfZR+6/2dkPYdpZEqMjin9znCwJyTJrz0S4EKDwct
T6kgmj4sJAwwENe+lqvuHyz4cXwawa63ZOF+GFPDrtUEFvflNMLRozHUm/S3wZYf
pzw6v/0Gvnb02pX5b75PJKcPsCwSTdZV6vgKMJEyT6MUbezNhRIf2niKsZp0+/0A
RUowg0UWoI+3fyMzkcaBrPObzVNrmvo2m108cqhzTx612roIPZvKetbCv26fpZ7b
YbylQqfUkkp+oz0bqtPCk63OOw4rYUQePGFUDWomIVTG4O092ifNiVr4Hw9GgMHy
gMxS8X/OEGhmP+6QJUXU+If5XV10Pao9Qxw=
-----END CERTIFICATE-----
Certificate:
    Data:
        Version: 3 (0x2)
        Serial Number: 99 (0x63)
    Signature Algorithm: sha256WithRSAEncryption
        Issuer: C=US, ST=Washington, L=Seattle, O=wolfSSL, OU=Engineering, CN=wolfSSL root CA/emailAddress=info@wolfssl.com
        Validity
            Not Before: Apr 13 15:23:10 2018 GMT
            Not After : Jan  7 15:23:10 2021 GMT
        Subject: C=US, ST=Washington, L=Seattle, O=wolfSSL, OU=Engineering, CN=wolfSSL root CA/emailAddress=info@wolfssl.com
        Subject Public Key Info:
            Public Key Algorithm: rsaEncryption
                Public-Key: (2048 bit)
                Modulus:
                    00:ab:2c:b4:2f:1d:06:09:ef:4e:29:86:84:7e:cc:
                    bf:a6:79:7c:f0:c0:c1:64:25:8c:75:b7:10:05:ca:
                    48:27:0c:0e:32:1c:b0:fe:99:85:39:b6:b9:a2:f7:
                    27:ff:6d:3c:8c:16:73:29:21:7f:8b:a6:54:71:90:
                    ad:cc:05:b9:9f:15:c7:0a:3f:5f:69:f4:0a:5f:8c:
                    71:b5:2c:bf:66:e2:03:9a:32:f4:d2:ec:2a:89:4b:
                    f9:35:88:14:33:47:4e:2e:05:79:01:ed:64:36:76:
                    b9:f8:85:cd:01:88:ac:c5:b2:b1:59:b8:cd:5a:f4:
                    09:09:38:9b:da:5a:cf:ce:78:99:1f:49:3d:41:d6:
                    06:7c:52:99:c8:97:d1:b3:80:3a:a2:4f:36:c4:c5:
                    96:30:77:31:38:c8:70:cc:e1:67:06:b3:2b:2f:93:
                    b5:69:cf:83:7e:88:53:9b:0f:46:21:4c:d6:05:36:
                    44:99:60:68:47:e5:32:01:12:d4:10:73:ae:9a:34:
                    94:fa:6e:b8:58:4f:7b:5b:8a:92:97:ad:fd:97:b9:
                    75:ca:c2:d4:45:7d:17:6b:cd:2f:f3:63:7a:0e:30:
                    b5:0b:a9:d9:a6:7c:74:60:9d:cc:09:03:43:f1:0f:
                    90:d3:b7:fe:6c:9f:d9:cd:78:4b:15:ae:8c:5b:f9:
                    99:81
                Exponent: 65537 (0x10001)
        X509v3 extensions:
            X509v3 Basic Constraints: 
                CA:TRUE
            X509v3 Subject Key Identifier: 
                73:B0:1C:A4:2F:82:CB:CF:47:A5:38:D7:B0:04:82:3A:7E:72:15:21
            X509v3 Authority Key Identifier: 
                keyid:73:B0:1C:A4:2F:82:CB:CF:47:A5:38:D7:B0:04:82:3A:7E:72:15:21
                DirName:/C=US/ST=Washington/L=Seattle/O=wolfSSL/OU=Engineering/CN=wolfSSL root CA/emailAddress=info@wolfssl.com
                serial:63

            X509v3 Key Usage: 
                Certificate Sign, CRL Sign
            Authority Information Access: 
                OCSP - URI:http://127.0.0.1:22220

    Signature Algorithm: sha256WithRSAEncryption
         6b:10:b1:f8:cb:77:ef:72:f5:f8:fc:70:6d:18:dc:34:fe:d7:
         95:d8:fd:85:8e:ca:4b:f3:be:1f:eb:14:08:dc:23:34:78:98:
         39:d7:9f:c3:52:f6:14:3d:e9:de:5c:c2:d8:b1:4b:a8:4c:5b:
         91:42:66:da:7f:3c:e9:03:20:5e:08:0f:76:79:b9:21:10:89:
         b7:73:46:44:7e:6e:28:0c:00:e4:f4:3e:65:aa:f5:c6:27:57:
         2c:bb:1d:ae:e5:94:57:a3:73:9e:6b:44:00:35:4a:f3:c7:34:
         9c:a2:a7:aa:62:9f:1d:ef:a8:6c:be:07:ad:ef:ae:ee:93:0b:
         ba:c3:59:4e:90:40:2d:00:5e:f0:0f:0a:de:18:2a:b3:97:31:
         63:84:ff:18:1c:b6:d8:7d:ee:33:ed:99:f0:f5:7f:88:58:b3:
         0d:90:db:eb:44:7e:06:37:61:d4:34:b9:f6:fd:3e:8d:07:e4:
         b5:b0:ae:09:ce:98:e4:b0:1b:d5:7b:53:94:dd:8a:b2:20:d6:
         b0:72:f8:b1:bc:76:df:16:86:39:7b:e4:a9:15:47:57:ae:ca:
         41:d6:3a:ba:15:d1:c0:b5:38:66:0b:0f:80:8b:a2:07:b4:fc:
         80:1f:a3:4c:1f:d2:65:97:c1:2c:ae:46:31:61:49:0d:d7:5f:
         ac:d2:a6:05
-----BEGIN CERTIFICATE-----
MIIE5jCCA86gAwIBAgIBYzANBgkqhkiG9w0BAQsFADCBlzELMAkGA1UEBhMCVVMx
EzARBgNVBAgMCldhc2hpbmd0b24xEDAOBgNVBAcMB1NlYXR0bGUxEDAOBgNVBAoM
B3dvbGZTU0wxFDASBgNVBAsMC0VuZ2luZWVyaW5nMRgwFgYDVQQDDA93b2xmU1NM
IHJvb3QgQ0ExHzAdBgkqhkiG9w0BCQEWEGluZm9Ad29sZnNzbC5jb20wHhcNMTgw
NDEzMTUyMzEwWhcNMjEwMTA3MTUyMzEwWjCBlzELMAkGA1UEBhMCVVMxEzARBgNV
BAgMCldhc2hpbmd0b24xEDAOBgNVBAcMB1NlYXR0bGUxEDAOBgNVBAoMB3dvbGZT
U0wxFDASBgNVBAsMC0VuZ2luZWVyaW5nMRgwFgYDVQQDDA93b2xmU1NMIHJvb3Qg
Q0ExHzAdBgkqhkiG9w0BCQEWEGluZm9Ad29sZnNzbC5jb20wggEiMA0GCSqGSIb3
DQEBAQUAA4IBDwAwggEKAoIBAQCrLLQvHQYJ704phoR+zL+meXzwwMFkJYx1txAF
ykgnDA4yHLD+mYU5trmi9yf/bTyMFnMpIX+LplRxkK3MBbmfFccKP19p9ApfjHG1
LL9m4gOaMvTS7CqJS/k1iBQzR04uBXkB7WQ2drn4hc0BiKzFsrFZuM1a9AkJOJva
Ws/OeJkfST1B1gZ8UpnIl9GzgDqiTzbExZYwdzE4yHDM4WcGsysvk7Vpz4N+iFOb
D0YhTNYFNkSZYGhH5TIBEtQQc66aNJT6brhYT3tbipKXrf2XuXXKwtRFfRdrzS/z
Y3oOMLULqdmmfHRgncwJA0PxD5DTt/5sn9nNeEsVroxb+ZmBAgMBAAGjggE5MIIB
NTAMBgNVHRMEBTADAQH/MB0GA1UdDgQWBBRzsBykL4LLz0elONewBII6fnIVITCB
xAYDVR0jBIG8MIG5gBRzsBykL4LLz0elONewBII6fnIVIaGBnaSBmjCBlzELMAkG
A1UEBhMCVVMxEzARBgNVBAgMCldhc2hpbmd0b24xEDAOBgNVBAcMB1NlYXR0bGUx
EDAOBgNVBAoMB3dvbGZTU0wxFDASBgNVBAsMC0VuZ2luZWVyaW5nMRgwFgYDVQQD
DA93b2xmU1NMIHJvb3QgQ0ExHzAdBgkqhkiG9w0BCQEWEGluZm9Ad29sZnNzbC5j
b22CAWMwCwYDVR0PBAQDAgEGMDIGCCsGAQUFBwEBBCYwJDAiBggrBgEFBQcwAYYW
aHR0cDovLzEyNy4wLjAuMToyMjIyMDANBgkqhkiG9w0BAQsFAAOCAQEAaxCx+Mt3
73L1+PxwbRjcNP7Xldj9hY7KS/O+H+sUCNwjNHiYOdefw1L2FD3p3lzC2LFLqExb
kUJm2n886QMgXggPdnm5IRCJt3NGRH5uKAwA5PQ+Zar1xidXLLsdruWUV6NznmtE
ADVK88c0nKKnqmKfHe+obL4Hre+u7pMLusNZTpBALQBe8A8K3hgqs5cxY4T/GBy2
2H3uM+2Z8PV/iFizDZDb60R+Bjdh1DS59v0+jQfktbCuCc6Y5LAb1XtTlN2KsiDW
sHL4sbx23xaGOXvkqRVHV67KQdY6uhXRwLU4ZgsPgIuiB7T8gB+jTB/SZZfBLK5G
MWFJDddfrNKmBQ==
-----END CERTIFICATE-----
