Certificate Revocation List (CRL):
        Version 2 (0x1)
    Signature Algorithm: sha256WithRSAEncryption
        Issuer: /C=US/ST=Montana/L=Bozeman/O=wolfSSL_2048/OU=Programming-2048/CN=www.wolfssl.com/emailAddress=info@wolfssl.com
        Last Update: May 29 22:47:57 2018 GMT
        Next Update: Jan  7 22:47:57 2021 GMT
        CRL extensions:
            X509v3 CRL Number: 
                6
Revoked Certificates:
    Serial Number: 02
        Revocation Date: May 29 22:47:57 2018 GMT
    Signature Algorithm: sha256WithRSAEncryption
         7b:c2:9a:bc:3a:b4:15:d0:fc:7c:8c:cd:da:23:30:08:7b:2d:
         8e:a7:2a:d7:e0:2e:c7:a6:2b:54:c9:0b:2f:d6:52:6c:98:c6:
         2a:fb:5d:68:0f:43:26:d6:c6:63:8c:79:1f:53:df:55:a9:64:
         88:da:da:09:49:90:11:dd:d2:43:87:14:f7:54:37:8d:57:52:
         72:af:56:0a:cf:93:f1:46:fa:ed:f8:cd:af:a9:9e:26:ec:45:
         e3:ec:3f:ed:7e:48:10:cf:3a:94:45:8f:24:e0:e6:41:2e:1e:
         bf:11:a9:4b:d3:d9:b3:1e:95:5b:6b:9b:68:18:a3:74:08:a6:
         87:b2:f3:a8:9a:33:5b:8b:97:09:16:72:68:8b:52:a2:79:2a:
         e7:b5:aa:17:4e:b3:99:60:8f:30:35:c0:19:6a:0f:1a:23:b9:
         bc:5a:8c:99:0e:cd:e4:bd:a3:6e:47:5e:e9:c1:53:97:40:ec:
         56:0b:24:cf:e5:7f:aa:1e:62:4d:46:a1:21:85:c7:b8:1b:74:
         d4:03:52:d7:50:58:70:e0:db:03:66:ef:77:cc:6d:1e:a1:4d:
         84:45:c5:c2:15:d0:88:76:73:44:be:7b:8b:f2:94:b6:5b:99:
         d4:69:7e:0f:4a:4e:90:ed:a9:b8:19:92:e1:b5:64:75:56:26:
         f9:c1:2f:06
-----BEGIN X509 CRL-----
MIICDjCB9wIBATANBgkqhkiG9w0BAQsFADCBnjELMAkGA1UEBhMCVVMxEDAOBgNV
BAgMB01vbnRhbmExEDAOBgNVBAcMB0JvemVtYW4xFTATBgNVBAoMDHdvbGZTU0xf
MjA0ODEZMBcGA1UECwwQUHJvZ3JhbW1pbmctMjA0ODEYMBYGA1UEAwwPd3d3Lndv
bGZzc2wuY29tMR8wHQYJKoZIhvcNAQkBFhBpbmZvQHdvbGZzc2wuY29tFw0xODA1
MjkyMjQ3NTdaFw0yMTAxMDcyMjQ3NTdaMBQwEgIBAhcNMTgwNTI5MjI0NzU3WqAO
MAwwCgYDVR0UBAMCAQYwDQYJKoZIhvcNAQELBQADggEBAHvCmrw6tBXQ/HyMzdoj
MAh7LY6nKtfgLsemK1TJCy/WUmyYxir7XWgPQybWxmOMeR9T31WpZIja2glJkBHd
0kOHFPdUN41XUnKvVgrPk/FG+u34za+pnibsRePsP+1+SBDPOpRFjyTg5kEuHr8R
qUvT2bMelVtrm2gYo3QIpoey86iaM1uLlwkWcmiLUqJ5Kue1qhdOs5lgjzA1wBlq
DxojubxajJkOzeS9o25HXunBU5dA7FYLJM/lf6oeYk1GoSGFx7gbdNQDUtdQWHDg
2wNm73fMbR6hTYRFxcIV0Ih2c0S+e4vylLZbmdRpfg9KTpDtqbgZkuG1ZHVWJvnB
LwY=
-----END X509 CRL-----
