Certificate Revocation List (CRL):
        Version 2 (0x1)
    Signature Algorithm: sha256WithRSAEncryption
        Issuer: /C=US/ST=Montana/L=Bozeman/O=Sawtooth/OU=Consulting/CN=www.wolfssl.com/emailAddress=info@wolfssl.com
        Last Update: May 29 22:47:57 2018 GMT
        Next Update: Jan  7 22:47:57 2021 GMT
        CRL extensions:
            X509v3 CRL Number: 
                3
Revoked Certificates:
    Serial Number: 01
        Revocation Date: May 29 22:47:57 2018 GMT
    Serial Number: 02
        Revocation Date: May 29 22:47:57 2018 GMT
    Signature Algorithm: sha256WithRSAEncryption
         b4:bb:8c:be:03:d7:e3:38:93:ef:31:1c:11:a4:de:77:9a:5d:
         11:4c:5c:e4:7b:e5:c7:ac:6a:b4:bc:2a:f9:5a:01:bd:72:20:
         77:b6:46:4b:8c:c3:25:d7:c4:a6:39:fe:cf:9a:99:9d:af:02:
         3e:15:fe:38:b2:04:7e:99:74:63:61:07:8e:8e:f7:23:b4:96:
         b8:85:2f:01:cb:e6:e4:c3:3d:cb:31:e7:60:38:02:3b:8a:da:
         15:d2:37:34:8b:da:3d:c7:c8:0d:f6:1f:da:f5:ac:66:a1:0d:
         22:73:a5:78:76:88:04:ec:7c:80:8b:a0:99:40:4b:56:aa:aa:
         8e:01:7b:66:b7:6e:9e:5b:82:e7:4c:9d:99:27:8f:cb:cb:26:
         c1:38:ed:bc:3c:e5:07:79:0b:79:7c:29:60:08:72:01:fc:9a:
         2a:60:7e:93:f3:a8:a5:29:93:58:e6:8d:2f:6a:02:d5:70:7e:
         cc:fd:69:6f:b4:09:60:c0:da:bb:ca:b1:e1:e2:91:85:9c:a3:
         46:73:99:19:4d:77:e5:1c:80:33:04:34:5d:c1:e3:88:6d:b1:
         10:6c:79:9a:dd:e9:ac:d8:82:f6:0d:f0:7c:4b:de:fd:f1:17:
         04:54:8e:56:ec:3c:79:06:17:30:42:39:d5:98:0d:bb:78:b3:
         9f:4e:5b:87
-----BEGIN X509 CRL-----
MIICGTCCAQECAQEwDQYJKoZIhvcNAQELBQAwgZQxCzAJBgNVBAYTAlVTMRAwDgYD
VQQIDAdNb250YW5hMRAwDgYDVQQHDAdCb3plbWFuMREwDwYDVQQKDAhTYXd0b290
aDETMBEGA1UECwwKQ29uc3VsdGluZzEYMBYGA1UEAwwPd3d3LndvbGZzc2wuY29t
MR8wHQYJKoZIhvcNAQkBFhBpbmZvQHdvbGZzc2wuY29tFw0xODA1MjkyMjQ3NTda
Fw0yMTAxMDcyMjQ3NTdaMCgwEgIBARcNMTgwNTI5MjI0NzU3WjASAgECFw0xODA1
MjkyMjQ3NTdaoA4wDDAKBgNVHRQEAwIBAzANBgkqhkiG9w0BAQsFAAOCAQEAtLuM
vgPX4ziT7zEcEaTed5pdEUxc5Hvlx6xqtLwq+VoBvXIgd7ZGS4zDJdfEpjn+z5qZ
na8CPhX+OLIEfpl0Y2EHjo73I7SWuIUvAcvm5MM9yzHnYDgCO4raFdI3NIvaPcfI
DfYf2vWsZqENInOleHaIBOx8gIugmUBLVqqqjgF7ZrdunluC50ydmSePy8smwTjt
vDzlB3kLeXwpYAhyAfyaKmB+k/OopSmTWOaNL2oC1XB+zP1pb7QJYMDau8qx4eKR
hZyjRnOZGU135RyAMwQ0XcHjiG2xEGx5mt3prNiC9g3wfEve/fEXBFSOVuw8eQYX
MEI51ZgNu3izn05bhw==
-----END X509 CRL-----
