Certificate Revocation List (CRL):
        Version 2 (0x1)
    Signature Algorithm: sha1WithRSAEncryption
        Issuer: /C=US/ST=Montana/L=Bozeman/O=Sawtooth/OU=Consulting/CN=www.wolfssl.com/emailAddress=info@wolfssl.com
        Last Update: Jul 11 20:36:35 2014 GMT
        Next Update: Jul 11 20:36:35 2015 GMT
        CRL extensions:
            X509v3 CRL Number: 
                1
No Revoked Certificates.
    Signature Algorithm: sha1WithRSAEncryption
         b4:54:84:e9:f8:c3:5c:e4:c4:a1:9a:71:eb:bc:46:96:09:bd:
         84:9d:4c:ac:29:a8:23:12:9d:80:8e:18:30:85:92:94:72:04:
         6d:74:05:31:e0:1b:20:b1:ef:6f:44:98:e8:d4:20:74:b1:ec:
         9f:fe:ad:74:14:66:ad:6f:5b:7a:45:02:b5:6f:a8:d3:bd:dc:
         88:94:d1:e2:78:e1:11:44:95:57:7d:d9:8c:7e:09:dc:aa:4f:
         07:e0:59:f2:09:30:d5:7c:a0:6c:54:88:d0:76:88:33:11:61:
         20:9d:3d:89:49:3b:85:be:e7:c0:38:f1:08:be:44:7a:1d:4c:
         e4:84:7a:40:23:6f:85:bd:67:7b:77:7e:00:78:d2:3c:e2:a8:
         47:ba:5c:21:c4:78:15:81:a2:9e:a6:9c:c4:47:4c:ee:97:81:
         18:91:5e:18:2b:92:e8:06:1f:dc:f2:51:e1:b3:14:bf:c3:c5:
         9c:78:ce:41:2e:61:0b:71:ad:ea:9e:2d:bb:2e:e4:98:a9:14:
         47:3f:00:65:4e:09:17:82:ee:be:ea:48:1e:2e:a5:92:64:ce:
         e9:b1:ee:ce:01:5b:e8:e3:fe:ba:dd:8c:eb:ad:34:32:15:00:
         56:4d:fe:9d:60:bf:a1:cd:9e:1b:61:94:21:0a:b1:98:4f:ec:
         c1:af:b3:dc
-----BEGIN X509 CRL-----
MIIB7jCB1wIBATANBgkqhkiG9w0BAQUFADCBlDELMAkGA1UEBhMCVVMxEDAOBgNV
BAgMB01vbnRhbmExEDAOBgNVBAcMB0JvemVtYW4xETAPBgNVBAoMCFNhd3Rvb3Ro
MRMwEQYDVQQLDApDb25zdWx0aW5nMRgwFgYDVQQDDA93d3cud29sZnNzbC5jb20x
HzAdBgkqhkiG9w0BCQEWEGluZm9Ad29sZnNzbC5jb20XDTE0MDcxMTIwMzYzNVoX
DTE1MDcxMTIwMzYzNVqgDjAMMAoGA1UdFAQDAgEBMA0GCSqGSIb3DQEBBQUAA4IB
AQC0VITp+MNc5MShmnHrvEaWCb2EnUysKagjEp2AjhgwhZKUcgRtdAUx4Bsgse9v
RJjo1CB0seyf/q10FGatb1t6RQK1b6jTvdyIlNHieOERRJVXfdmMfgncqk8H4Fny
CTDVfKBsVIjQdogzEWEgnT2JSTuFvufAOPEIvkR6HUzkhHpAI2+FvWd7d34AeNI8
4qhHulwhxHgVgaKeppzER0zul4EYkV4YK5LoBh/c8lHhsxS/w8WceM5BLmELca3q
ni27LuSYqRRHPwBlTgkXgu6+6kgeLqWSZM7pse7OAVvo4/663YzrrTQyFQBWTf6d
YL+hzZ4bYZQhCrGYT+zBr7Pc
-----END X509 CRL-----
