Certificate Revocation List (CRL):
        Version 2 (0x1)
    Signature Algorithm: sha256WithRSAEncryption
        Issuer: /C=US/ST=Montana/L=Bozeman/O=Sawtooth/OU=Consulting/CN=www.wolfssl.com/emailAddress=info@wolfssl.com
        Last Update: May  7 18:21:01 2015 GMT
        Next Update: Jan 31 18:21:01 2018 GMT
        CRL extensions:
            X509v3 CRL Number: 
                2
Revoked Certificates:
    Serial Number: 01
        Revocation Date: May  7 18:21:01 2015 GMT
    Signature Algorithm: sha256WithRSAEncryption
         b7:34:2b:1c:09:6b:a2:9c:12:4f:fd:ef:69:4c:a4:1d:f2:39:
         52:29:98:78:b2:86:ea:54:9b:29:e5:c2:88:0e:2f:f9:d2:5b:
         9d:49:37:68:26:6c:45:61:d4:9d:05:ef:2d:ca:78:0a:d0:28:
         c1:25:f2:f7:6a:ad:df:1d:eb:8a:66:64:4d:0c:02:91:fb:ff:
         70:b4:36:b6:e4:79:17:d5:18:6a:72:17:e1:8b:31:49:04:98:
         96:88:42:ea:8c:fe:91:40:5a:c5:ad:3b:da:9a:47:43:d6:e9:
         f6:59:75:49:91:a9:e4:8b:c8:03:60:6b:36:69:87:71:f1:5b:
         92:00:51:bb:fe:d5:4f:0d:0e:f2:56:38:e3:b6:cb:76:11:7b:
         17:ad:a5:da:37:87:f2:49:af:73:42:56:ed:6c:a1:8d:46:5c:
         dd:00:a7:8f:1f:5a:dd:d7:87:89:43:30:32:fe:e2:d4:b1:29:
         12:11:ef:22:0d:8f:7f:c5:33:3b:a9:a7:52:0c:25:b8:0c:e6:
         8a:8b:68:8f:55:84:65:04:c7:44:48:36:02:4d:4e:43:09:1d:
         1f:3b:f9:4a:0e:ff:59:42:ca:be:0e:a7:79:89:19:31:73:5a:
         45:6c:70:56:4d:1b:8a:59:c4:6d:ca:bc:f7:41:c4:f6:f0:fd:
         9c:7e:f1:7e
-----BEGIN X509 CRL-----
MIICBDCB7QIBATANBgkqhkiG9w0BAQsFADCBlDELMAkGA1UEBhMCVVMxEDAOBgNV
BAgMB01vbnRhbmExEDAOBgNVBAcMB0JvemVtYW4xETAPBgNVBAoMCFNhd3Rvb3Ro
MRMwEQYDVQQLDApDb25zdWx0aW5nMRgwFgYDVQQDDA93d3cud29sZnNzbC5jb20x
HzAdBgkqhkiG9w0BCQEWEGluZm9Ad29sZnNzbC5jb20XDTE1MDUwNzE4MjEwMVoX
DTE4MDEzMTE4MjEwMVowFDASAgEBFw0xNTA1MDcxODIxMDFaoA4wDDAKBgNVHRQE
AwIBAjANBgkqhkiG9w0BAQsFAAOCAQEAtzQrHAlropwST/3vaUykHfI5UimYeLKG
6lSbKeXCiA4v+dJbnUk3aCZsRWHUnQXvLcp4CtAowSXy92qt3x3rimZkTQwCkfv/
cLQ2tuR5F9UYanIX4YsxSQSYlohC6oz+kUBaxa072ppHQ9bp9ll1SZGp5IvIA2Br
NmmHcfFbkgBRu/7VTw0O8lY447bLdhF7F62l2jeH8kmvc0JW7WyhjUZc3QCnjx9a
3deHiUMwMv7i1LEpEhHvIg2Pf8UzO6mnUgwluAzmiotoj1WEZQTHREg2Ak1OQwkd
Hzv5Sg7/WULKvg6neYkZMXNaRWxwVk0bilnEbcq890HE9vD9nH7xfg==
-----END X509 CRL-----
