Certificate Revocation List (CRL):
        Version 2 (0x1)
    Signature Algorithm: sha256WithRSAEncryption
        Issuer: /C=US/ST=Montana/L=Bozeman/O=Sawtooth/OU=Consulting/CN=www.wolfssl.com/emailAddress=info@wolfssl.com
        Last Update: May 29 22:47:57 2018 GMT
        Next Update: Jan  7 22:47:57 2021 GMT
        CRL extensions:
            X509v3 CRL Number: 
                2
Revoked Certificates:
    Serial Number: 02
        Revocation Date: May 29 22:47:57 2018 GMT
    Signature Algorithm: sha256WithRSAEncryption
         6b:c1:26:13:77:62:8e:4e:a9:e5:87:b6:f6:66:c8:1f:cc:6a:
         20:94:f0:f6:a5:c6:b7:aa:03:b7:60:cf:74:16:5e:2f:c6:10:
         8c:82:c9:31:da:20:23:c0:9e:f0:64:4b:cc:d8:6c:ec:57:1a:
         5c:27:ec:36:db:64:f0:28:b2:34:33:d2:aa:1b:55:e7:4a:1f:
         c2:51:e9:b8:32:a8:be:53:ee:21:65:f7:c5:92:d0:0d:98:db:
         65:50:7f:35:98:21:5b:52:a0:1e:ce:79:af:66:de:55:81:11:
         0f:b0:8d:20:a8:48:f3:ff:ca:99:69:04:d8:c6:ec:98:de:8b:
         56:e1:53:cf:0b:da:47:91:9e:27:ff:d2:2d:a3:65:61:80:89:
         64:20:65:12:41:ce:8e:c8:55:a5:90:8d:fa:02:45:6b:28:6e:
         28:ab:5a:94:c3:49:37:d0:b1:8e:d1:3b:9f:da:7e:36:73:d9:
         8d:a5:60:97:71:51:6f:7b:88:90:84:14:0a:50:31:3c:e1:63:
         d6:dd:26:e9:f5:63:b2:ae:54:4e:8f:80:aa:2b:4c:94:ab:08:
         16:03:b0:31:3a:16:f3:c6:20:0a:00:c9:52:7c:88:72:23:8d:
         80:c9:98:45:c3:44:1e:84:99:b8:53:1e:67:23:bc:aa:80:f6:
         77:58:0a:7a
-----BEGIN X509 CRL-----
MIICBDCB7QIBATANBgkqhkiG9w0BAQsFADCBlDELMAkGA1UEBhMCVVMxEDAOBgNV
BAgMB01vbnRhbmExEDAOBgNVBAcMB0JvemVtYW4xETAPBgNVBAoMCFNhd3Rvb3Ro
MRMwEQYDVQQLDApDb25zdWx0aW5nMRgwFgYDVQQDDA93d3cud29sZnNzbC5jb20x
HzAdBgkqhkiG9w0BCQEWEGluZm9Ad29sZnNzbC5jb20XDTE4MDUyOTIyNDc1N1oX
DTIxMDEwNzIyNDc1N1owFDASAgECFw0xODA1MjkyMjQ3NTdaoA4wDDAKBgNVHRQE
AwIBAjANBgkqhkiG9w0BAQsFAAOCAQEAa8EmE3dijk6p5Ye29mbIH8xqIJTw9qXG
t6oDt2DPdBZeL8YQjILJMdogI8Ce8GRLzNhs7FcaXCfsNttk8CiyNDPSqhtV50of
wlHpuDKovlPuIWX3xZLQDZjbZVB/NZghW1KgHs55r2beVYERD7CNIKhI8//KmWkE
2MbsmN6LVuFTzwvaR5GeJ//SLaNlYYCJZCBlEkHOjshVpZCN+gJFayhuKKtalMNJ
N9CxjtE7n9p+NnPZjaVgl3FRb3uIkIQUClAxPOFj1t0m6fVjsq5UTo+AqitMlKsI
FgOwMToW88YgCgDJUnyIciONgMmYRcNEHoSZuFMeZyO8qoD2d1gKeg==
-----END X509 CRL-----
