Certificate Revocation List (CRL):
        Version 2 (0x1)
    Signature Algorithm: sha256WithRSAEncryption
        Issuer: /C=US/ST=Montana/L=Bozeman/O=Sawtooth/OU=Consulting/CN=www.wolfssl.com/emailAddress=info@wolfssl.com
        Last Update: May  7 18:21:01 2015 GMT
        Next Update: Jan 31 18:21:01 2018 GMT
        CRL extensions:
            X509v3 CRL Number: 
                1
No Revoked Certificates.
    Signature Algorithm: sha256WithRSAEncryption
         96:e2:b9:11:e0:e5:25:be:ab:69:e5:fa:8a:5c:7f:fc:6f:1d:
         8f:4a:54:70:f8:2e:87:fa:b0:f6:fd:3f:8f:9c:75:8a:eb:62:
         cc:dd:2c:0a:8c:31:9e:30:3f:22:9b:91:50:6b:43:fd:32:8a:
         79:ea:0b:6b:68:6c:82:9c:79:da:20:95:83:25:5e:09:fc:57:
         2d:19:f9:bc:5a:67:95:98:65:dc:2d:91:13:2a:81:c2:6d:ff:
         12:48:6f:a4:ce:8a:b2:d3:19:b8:c2:86:e0:ba:91:3f:bb:ec:
         c6:79:83:50:95:19:95:28:eb:ef:ff:bb:16:8f:3c:7d:4c:d1:
         3e:c3:82:22:8f:c5:e8:0e:b3:64:8f:5d:53:32:d5:98:64:9c:
         36:c4:6a:cf:68:21:4f:a8:4e:90:37:76:dc:05:70:66:2d:bc:
         a0:d8:19:5c:96:90:d6:b9:09:56:46:07:be:3c:ae:08:bb:26:
         26:21:2c:d1:48:01:88:28:bc:21:a4:97:b7:3b:f0:7e:67:73:
         84:cf:21:43:e7:dd:53:9d:6a:59:c3:e5:98:c9:69:71:c3:e3:
         70:28:ba:f9:69:0a:af:78:e5:83:02:13:7e:08:70:8c:f3:8b:
         5d:96:b0:78:b9:d9:99:c5:1e:b7:45:dc:28:32:1a:d0:50:4b:
         f4:41:92:19
-----BEGIN X509 CRL-----
MIIB7jCB1wIBATANBgkqhkiG9w0BAQsFADCBlDELMAkGA1UEBhMCVVMxEDAOBgNV
BAgMB01vbnRhbmExEDAOBgNVBAcMB0JvemVtYW4xETAPBgNVBAoMCFNhd3Rvb3Ro
MRMwEQYDVQQLDApDb25zdWx0aW5nMRgwFgYDVQQDDA93d3cud29sZnNzbC5jb20x
HzAdBgkqhkiG9w0BCQEWEGluZm9Ad29sZnNzbC5jb20XDTE1MDUwNzE4MjEwMVoX
DTE4MDEzMTE4MjEwMVqgDjAMMAoGA1UdFAQDAgEBMA0GCSqGSIb3DQEBCwUAA4IB
AQCW4rkR4OUlvqtp5fqKXH/8bx2PSlRw+C6H+rD2/T+PnHWK62LM3SwKjDGeMD8i
m5FQa0P9Mop56gtraGyCnHnaIJWDJV4J/FctGfm8WmeVmGXcLZETKoHCbf8SSG+k
zoqy0xm4wobgupE/u+zGeYNQlRmVKOvv/7sWjzx9TNE+w4Iij8XoDrNkj11TMtWY
ZJw2xGrPaCFPqE6QN3bcBXBmLbyg2BlclpDWuQlWRge+PK4IuyYmISzRSAGIKLwh
pJe3O/B+Z3OEzyFD591TnWpZw+WYyWlxw+NwKLr5aQqveOWDAhN+CHCM84tdlrB4
udmZxR63RdwoMhrQUEv0QZIZ
-----END X509 CRL-----
