Certificate Revocation List (CRL):
        Version 2 (0x1)
    Signature Algorithm: sha256WithRSAEncryption
        Issuer: /C=US/ST=Montana/L=Bozeman/OU=Engineering/CN=*localhost/emailAddress=info@wolfssl.com
        Last Update: Sep 19 21:21:24 2018 GMT
        Next Update: Jun 15 21:21:24 2021 GMT
        CRL extensions:
            X509v3 CRL Number: 
                1
No Revoked Certificates.
    Signature Algorithm: sha256WithRSAEncryption
         0f:0e:30:ee:50:7a:50:b0:8d:06:74:9a:67:0b:3f:44:c1:13:
         58:4e:87:0c:0c:8d:89:44:6e:29:f2:14:0c:5e:57:65:88:fb:
         b9:56:a7:99:71:3d:12:16:25:d1:38:19:9d:76:41:e6:e0:37:
         0e:0a:52:93:26:19:c3:9d:27:10:29:d4:30:5f:1a:9f:9f:0a:
         2e:c0:3a:7c:07:f0:fe:c4:ad:7b:84:a8:2e:e5:06:a9:8d:dd:
         b2:2b:bf:e8:ac:e8:d8:30:2b:eb:5f:67:ca:4a:b8:d5:be:7b:
         37:0d:04:ef:ad:9d:5d:9c:a3:02:5c:cd:97:4a:78:7c:16:2b:
         7d:90:b5:8a:ef:3d:68:53:72:5b:21:92:8b:a3:48:72:f8:f3:
         6a:c0:10:93:0f:de:43:d0:7a:b0:f6:13:e9:96:64:5d:d9:a7:
         11:e5:ea:72:09:5e:be:a0:6b:54:e8:fb:23:b7:58:a4:a0:88:
         d9:cc:22:25:9a:1a:1a:83:40:99:97:05:0f:7f:e6:a9:ee:1a:
         a2:6a:4d:f2:60:f3:46:5d:95:3a:03:a6:8a:a0:79:16:f7:3c:
         1f:16:29:02:7b:c8:bb:98:d9:ed:b0:a3:fb:4a:2a:9e:00:0a:
         cf:42:94:fa:14:73:4f:26:ed:a2:97:8d:a5:86:0f:72:e9:7b:
         06:da:35:08
-----BEGIN X509 CRL-----
MIIB1jCBvwIBATANBgkqhkiG9w0BAQsFADB9MQswCQYDVQQGEwJVUzEQMA4GA1UE
CAwHTW9udGFuYTEQMA4GA1UEBwwHQm96ZW1hbjEUMBIGA1UECwwLRW5naW5lZXJp
bmcxEzARBgNVBAMMCipsb2NhbGhvc3QxHzAdBgkqhkiG9w0BCQEWEGluZm9Ad29s
ZnNzbC5jb20XDTE4MDkxOTIxMjEyNFoXDTIxMDYxNTIxMjEyNFqgDjAMMAoGA1Ud
FAQDAgEBMA0GCSqGSIb3DQEBCwUAA4IBAQAPDjDuUHpQsI0GdJpnCz9EwRNYTocM
DI2JRG4p8hQMXldliPu5VqeZcT0SFiXROBmddkHm4DcOClKTJhnDnScQKdQwXxqf
nwouwDp8B/D+xK17hKgu5Qapjd2yK7/orOjYMCvrX2fKSrjVvns3DQTvrZ1dnKMC
XM2XSnh8Fit9kLWK7z1oU3JbIZKLo0hy+PNqwBCTD95D0Hqw9hPplmRd2acR5epy
CV6+oGtU6Psjt1ikoIjZzCIlmhoag0CZlwUPf+ap7hqiak3yYPNGXZU6A6aKoHkW
9zwfFikCe8i7mNntsKP7SiqeAArPQpT6FHNPJu2il42lhg9y6XsG2jUI
-----END X509 CRL-----
