Certificate Revocation List (CRL):
        Version 2 (0x1)
    Signature Algorithm: sha256WithRSAEncryption
        Issuer: /C=US/ST=Montana/L=Bozeman/OU=Engineering/CN=www.nomatch.com/emailAddress=info@wolfssl.com
        Last Update: Sep 19 21:21:24 2018 GMT
        Next Update: Jun 15 21:21:24 2021 GMT
        CRL extensions:
            X509v3 CRL Number: 
                1
No Revoked Certificates.
    Signature Algorithm: sha256WithRSAEncryption
         01:b3:58:8d:bf:27:46:70:f1:cc:29:71:24:0b:ba:e3:fc:d4:
         c8:30:09:3a:5e:e5:61:c7:d2:02:61:63:ba:e1:06:25:eb:4e:
         04:77:dc:31:4d:59:84:63:ee:09:5d:41:dd:07:8f:07:15:71:
         79:cb:6c:67:a9:e5:53:01:7d:98:b0:d0:a2:36:7a:8c:bf:51:
         84:78:0e:b3:d8:ef:7c:b7:9e:de:c0:09:46:3d:43:e0:9d:a1:
         d7:77:d2:a6:28:f7:9e:92:82:ba:a9:cc:a8:d0:2b:f8:09:9b:
         fd:e4:2d:e6:d4:d5:60:2e:31:48:e8:55:3f:54:e9:f4:c4:78:
         4d:0a:43:9d:3a:2e:44:9a:e7:63:25:73:e7:c4:fb:71:2b:0d:
         3e:ad:e6:95:7d:60:95:4f:f6:cf:a7:52:59:e0:4b:f2:51:46:
         0a:0c:9c:2e:2d:55:ae:57:76:a7:4b:8e:48:53:87:f7:e3:3c:
         44:9b:70:17:96:c4:dc:f0:d1:43:a8:5e:59:5c:2d:4d:88:e6:
         07:20:e4:75:09:dd:c4:9a:46:5c:c5:1f:20:f8:8a:dc:07:3d:
         f2:31:11:cd:43:d8:72:c7:8b:83:78:c1:e3:a5:bc:8e:87:2b:
         be:fd:66:0f:ab:4b:82:df:9e:71:e8:de:69:4c:c0:93:e6:9f:
         9c:78:b0:05
-----BEGIN X509 CRL-----
MIIB3DCBxQIBATANBgkqhkiG9w0BAQsFADCBgjELMAkGA1UEBhMCVVMxEDAOBgNV
BAgMB01vbnRhbmExEDAOBgNVBAcMB0JvemVtYW4xFDASBgNVBAsMC0VuZ2luZWVy
aW5nMRgwFgYDVQQDDA93d3cubm9tYXRjaC5jb20xHzAdBgkqhkiG9w0BCQEWEGlu
Zm9Ad29sZnNzbC5jb20XDTE4MDkxOTIxMjEyNFoXDTIxMDYxNTIxMjEyNFqgDjAM
MAoGA1UdFAQDAgEBMA0GCSqGSIb3DQEBCwUAA4IBAQABs1iNvydGcPHMKXEkC7rj
/NTIMAk6XuVhx9ICYWO64QYl604Ed9wxTVmEY+4JXUHdB48HFXF5y2xnqeVTAX2Y
sNCiNnqMv1GEeA6z2O98t57ewAlGPUPgnaHXd9KmKPeekoK6qcyo0Cv4CZv95C3m
1NVgLjFI6FU/VOn0xHhNCkOdOi5EmudjJXPnxPtxKw0+reaVfWCVT/bPp1JZ4Evy
UUYKDJwuLVWuV3anS45IU4f34zxEm3AXlsTc8NFDqF5ZXC1NiOYHIOR1Cd3EmkZc
xR8g+IrcBz3yMRHNQ9hyx4uDeMHjpbyOhyu+/WYPq0uC355x6N5pTMCT5p+ceLAF
-----END X509 CRL-----
