Certificate Revocation List (CRL):
        Version 2 (0x1)
    Signature Algorithm: sha256WithRSAEncryption
        Issuer: /C=US/ST=Montana/L=Bozeman/OU=Engineering/CN=localhost/emailAddress=info@wolfssl.com
        Last Update: Sep 19 21:21:24 2018 GMT
        Next Update: Jun 15 21:21:24 2021 GMT
        CRL extensions:
            X509v3 CRL Number: 
                1
No Revoked Certificates.
    Signature Algorithm: sha256WithRSAEncryption
         2c:f5:7a:4f:67:06:9b:f2:56:8c:e1:00:05:70:60:5b:60:51:
         ad:65:7e:10:69:c9:84:98:b6:66:33:18:ba:f8:86:f9:23:e3:
         ac:42:53:1d:27:5d:28:6a:d7:1c:a2:28:4d:02:01:c4:23:c1:
         b8:ac:d3:ba:e1:75:d0:2e:ad:98:78:39:f2:c1:6b:7b:4b:78:
         f2:f6:49:6f:92:2e:59:91:e9:de:7f:ef:62:5e:77:df:1c:a9:
         1a:d5:b8:63:1f:53:0e:b7:28:f8:5e:61:11:1b:b4:dd:9c:85:
         77:45:7d:31:fc:61:ab:55:f9:8d:50:ce:56:a0:ff:c0:a8:60:
         b5:7a:ec:f1:6a:c8:94:be:89:41:47:a2:22:d9:9d:8e:f7:36:
         d2:6f:bc:ce:04:3d:b7:9d:5c:82:37:59:9f:67:15:78:a0:a7:
         c1:2f:01:d5:f0:ac:0f:34:21:d7:16:c8:dc:b1:af:60:e0:b1:
         de:88:6f:d9:e5:32:c2:63:01:79:e6:10:ef:30:ef:c2:c6:08:
         89:cc:21:76:b8:ee:18:bc:88:66:7a:88:89:b4:ba:d9:02:00:
         92:73:6a:b5:84:ec:0c:9c:fc:d1:c1:0f:f2:e2:18:30:a6:be:
         1d:99:8b:16:26:65:fd:fe:15:48:16:1d:68:0b:1e:b4:a0:0d:
         ec:93:cb:a2
-----BEGIN X509 CRL-----
MIIB1TCBvgIBATANBgkqhkiG9w0BAQsFADB8MQswCQYDVQQGEwJVUzEQMA4GA1UE
CAwHTW9udGFuYTEQMA4GA1UEBwwHQm96ZW1hbjEUMBIGA1UECwwLRW5naW5lZXJp
bmcxEjAQBgNVBAMMCWxvY2FsaG9zdDEfMB0GCSqGSIb3DQEJARYQaW5mb0B3b2xm
c3NsLmNvbRcNMTgwOTE5MjEyMTI0WhcNMjEwNjE1MjEyMTI0WqAOMAwwCgYDVR0U
BAMCAQEwDQYJKoZIhvcNAQELBQADggEBACz1ek9nBpvyVozhAAVwYFtgUa1lfhBp
yYSYtmYzGLr4hvkj46xCUx0nXShq1xyiKE0CAcQjwbis07rhddAurZh4OfLBa3tL
ePL2SW+SLlmR6d5/72Jed98cqRrVuGMfUw63KPheYREbtN2chXdFfTH8YatV+Y1Q
zlag/8CoYLV67PFqyJS+iUFHoiLZnY73NtJvvM4EPbedXII3WZ9nFXigp8EvAdXw
rA80IdcWyNyxr2Dgsd6Ib9nlMsJjAXnmEO8w78LGCInMIXa47hi8iGZ6iIm0utkC
AJJzarWE7Ayc/NHBD/LiGDCmvh2ZixYmZf3+FUgWHWgLHrSgDeyTy6I=
-----END X509 CRL-----
