Certificate:
    Data:
        Version: 3 (0x2)
        Serial Number: 100 (0x64)
        Signature Algorithm: sha256WithRSAEncryption
        Issuer: C = US, ST = Montana, L = Bozeman, O = Sawtooth, OU = Consulting, CN = www.wolfssl.com, emailAddress = info@wolfssl.com
        Validity
            Not Before: Oct 11 00:28:09 2019 GMT
            Not After : Jul  7 00:28:09 2022 GMT
        Subject: C = US, ST = Washington, L = Seattle, O = wolfSSL Inc., OU = Engineering, CN = chainD-ICA1-pathlen127, emailAddress = info@wolfssl.com
        Subject Public Key Info:
            Public Key Algorithm: rsaEncryption
                RSA Public-Key: (2048 bit)
                Modulus:
                    00:d7:81:78:a9:19:99:12:d1:cf:3d:51:54:1d:d3:
                    14:94:ed:3e:de:ff:e0:23:e4:f7:23:fc:5c:49:24:
                    d8:36:93:e6:2a:ee:a7:ab:c6:8d:c9:ad:40:45:c9:
                    44:06:47:4c:0d:65:09:dd:db:e2:f0:bd:cd:79:1c:
                    ec:d1:8d:de:f2:ff:66:f5:b2:bd:43:cc:58:7f:1d:
                    db:4b:97:a5:83:5c:87:5e:9b:73:87:c8:1d:2b:47:
                    92:55:e4:db:be:51:d5:eb:76:c2:aa:59:72:7b:f6:
                    27:2f:be:c0:db:dc:3c:f2:e2:19:c9:b0:30:bb:2e:
                    a2:95:48:06:bd:8e:9d:bd:8c:6b:5e:c6:9a:73:4b:
                    6c:b0:20:96:47:44:d3:09:6b:6a:2b:fa:86:5f:1d:
                    0b:a7:62:22:72:d5:56:1c:aa:97:8c:ce:57:a3:0f:
                    e6:bc:cd:63:54:55:60:87:50:eb:fa:8c:e9:15:70:
                    b3:5c:4d:0e:27:60:fd:07:6e:8c:ec:3f:a0:25:c5:
                    01:59:a3:fc:2d:80:4b:84:4c:10:b5:c8:a7:6b:b1:
                    e5:c5:c1:9a:b0:d6:4b:30:21:ba:42:65:e0:3f:59:
                    cf:7f:49:4b:3b:cf:62:06:f4:89:ae:5b:81:5d:15:
                    63:fb:7c:29:a6:b5:cf:f3:b5:b5:66:06:4f:a3:da:
                    67:39
                Exponent: 65537 (0x10001)
        X509v3 extensions:
            X509v3 Subject Key Identifier: 
                67:78:F9:AD:1C:53:41:1F:46:BD:49:9B:73:2E:7C:DC:5C:2D:0B:FB
            X509v3 Authority Key Identifier: 
                keyid:27:8E:67:11:74:C3:26:1D:3F:ED:33:63:B3:A4:D8:1D:30:E5:E8:D5
                DirName:/C=US/ST=Montana/L=Bozeman/O=Sawtooth/OU=Consulting/CN=www.wolfssl.com/emailAddress=info@wolfssl.com
                serial:86:FF:F5:8E:10:DE:B8:FB

            X509v3 Basic Constraints: 
                CA:TRUE, pathlen:127
            X509v3 Key Usage: 
                Certificate Sign, CRL Sign
    Signature Algorithm: sha256WithRSAEncryption
         12:87:4f:82:bb:5a:21:b0:95:f6:b5:2b:95:53:a5:10:fc:f6:
         fe:7e:03:9c:fa:cf:d7:d5:a1:72:1d:33:69:1b:0e:07:07:62:
         74:9b:0c:2b:46:d2:b8:80:b1:72:f3:c1:83:13:62:fd:dd:17:
         15:14:0b:64:57:26:db:70:e5:3d:44:88:05:f9:91:b0:9a:4a:
         c0:f9:87:3c:70:16:d6:1c:58:51:d9:b9:b8:ac:11:d2:4d:94:
         58:cf:fd:9e:74:51:28:b0:4f:ed:7d:88:25:ce:6b:eb:5e:ca:
         e8:f9:ce:31:e1:b9:2d:e6:d9:0c:13:ff:3f:24:1f:fa:25:e8:
         cd:cd:25:88:e7:98:dc:b5:f8:cd:21:d2:a8:71:d1:b9:18:dd:
         18:5d:0b:97:a7:82:04:d5:e8:36:29:4b:dc:7f:d9:42:85:55:
         81:dc:da:f9:ca:58:38:f3:2c:df:b4:2c:23:65:d3:17:01:ed:
         f4:8b:f6:9b:0b:b5:32:ea:28:cb:c2:fb:16:2a:fe:3d:3d:0b:
         e6:f3:bf:8f:43:75:a7:d1:b8:c9:04:31:4f:60:3a:3a:4a:b0:
         1b:16:7d:24:b8:78:be:be:7a:80:a5:81:8c:77:7c:aa:79:75:
         4d:3f:a2:14:36:5a:81:1f:6c:44:7d:d1:9a:db:a6:f6:e3:48:
         d3:bb:ea:9c
-----BEGIN CERTIFICATE-----
MIIEwzCCA6ugAwIBAgIBZDANBgkqhkiG9w0BAQsFADCBlDELMAkGA1UEBhMCVVMx
EDAOBgNVBAgMB01vbnRhbmExEDAOBgNVBAcMB0JvemVtYW4xETAPBgNVBAoMCFNh
d3Rvb3RoMRMwEQYDVQQLDApDb25zdWx0aW5nMRgwFgYDVQQDDA93d3cud29sZnNz
bC5jb20xHzAdBgkqhkiG9w0BCQEWEGluZm9Ad29sZnNzbC5jb20wHhcNMTkxMDEx
MDAyODA5WhcNMjIwNzA3MDAyODA5WjCBozELMAkGA1UEBhMCVVMxEzARBgNVBAgM
Cldhc2hpbmd0b24xEDAOBgNVBAcMB1NlYXR0bGUxFTATBgNVBAoMDHdvbGZTU0wg
SW5jLjEUMBIGA1UECwwLRW5naW5lZXJpbmcxHzAdBgNVBAMMFmNoYWluRC1JQ0Ex
LXBhdGhsZW4xMjcxHzAdBgkqhkiG9w0BCQEWEGluZm9Ad29sZnNzbC5jb20wggEi
MA0GCSqGSIb3DQEBAQUAA4IBDwAwggEKAoIBAQDXgXipGZkS0c89UVQd0xSU7T7e
/+Aj5Pcj/FxJJNg2k+Yq7qerxo3JrUBFyUQGR0wNZQnd2+Lwvc15HOzRjd7y/2b1
sr1DzFh/HdtLl6WDXIdem3OHyB0rR5JV5Nu+UdXrdsKqWXJ79icvvsDb3Dzy4hnJ
sDC7LqKVSAa9jp29jGtexppzS2ywIJZHRNMJa2or+oZfHQunYiJy1VYcqpeMzlej
D+a8zWNUVWCHUOv6jOkVcLNcTQ4nYP0HbozsP6AlxQFZo/wtgEuETBC1yKdrseXF
wZqw1kswIbpCZeA/Wc9/SUs7z2IG9ImuW4FdFWP7fCmmtc/ztbVmBk+j2mc5AgMB
AAGjggENMIIBCTAdBgNVHQ4EFgQUZ3j5rRxTQR9GvUmbcy583FwtC/swgckGA1Ud
IwSBwTCBvoAUJ45nEXTDJh0/7TNjs6TYHTDl6NWhgZqkgZcwgZQxCzAJBgNVBAYT
AlVTMRAwDgYDVQQIDAdNb250YW5hMRAwDgYDVQQHDAdCb3plbWFuMREwDwYDVQQK
DAhTYXd0b290aDETMBEGA1UECwwKQ29uc3VsdGluZzEYMBYGA1UEAwwPd3d3Lndv
bGZzc2wuY29tMR8wHQYJKoZIhvcNAQkBFhBpbmZvQHdvbGZzc2wuY29tggkAhv/1
jhDeuPswDwYDVR0TBAgwBgEB/wIBfzALBgNVHQ8EBAMCAQYwDQYJKoZIhvcNAQEL
BQADggEBABKHT4K7WiGwlfa1K5VTpRD89v5+A5z6z9fVoXIdM2kbDgcHYnSbDCtG
0riAsXLzwYMTYv3dFxUUC2RXJttw5T1EiAX5kbCaSsD5hzxwFtYcWFHZubisEdJN
lFjP/Z50USiwT+19iCXOa+teyuj5zjHhuS3m2QwT/z8kH/ol6M3NJYjnmNy1+M0h
0qhx0bkY3RhdC5enggTV6DYpS9x/2UKFVYHc2vnKWDjzLN+0LCNl0xcB7fSL9psL
tTLqKMvC+xYq/j09C+bzv49DdafRuMkEMU9gOjpKsBsWfSS4eL6+eoClgYx3fKp5
dU0/ohQ2WoEfbER90ZrbpvbjSNO76pw=
-----END CERTIFICATE-----
