Certificate:
    Data:
        Version: 3 (0x2)
        Serial Number: 101 (0x65)
        Signature Algorithm: sha256WithRSAEncryption
        Issuer: C = US, ST = Washington, L = Seattle, O = wolfSSL Inc., OU = Engineering, CN = chainA-ICA1-pathlen0, emailAddress = info@wolfssl.com
        Validity
            Not Before: Oct 11 00:28:08 2019 GMT
            Not After : Jul  7 00:28:08 2022 GMT
        Subject: C = US, ST = Washington, L = Seattle, O = wolfSSL Inc., OU = Engineering, CN = chainA-entity, emailAddress = info@wolfssl.com
        Subject Public Key Info:
            Public Key Algorithm: rsaEncryption
                RSA Public-Key: (2048 bit)
                Modulus:
                    00:d0:7a:d8:c8:6c:4f:a5:cd:72:25:87:ff:12:a3:
                    65:0e:1d:1f:78:b2:d7:1a:65:a1:e7:4e:bd:05:b5:
                    05:3e:39:3e:85:ad:90:c7:5b:a5:81:42:b5:01:00:
                    57:87:29:a3:45:ce:f4:02:fa:80:8f:3b:8e:99:40:
                    2c:fc:c8:b0:8b:2b:19:c3:20:c6:af:db:a0:d9:d5:
                    70:32:6d:66:c3:ca:c4:ea:63:fb:08:0e:35:bc:50:
                    7f:85:c7:62:f4:e2:85:e4:89:59:52:71:f2:e3:d1:
                    63:3e:1d:08:6d:ff:86:cb:e5:eb:bc:1f:de:13:f0:
                    b2:f8:92:ee:23:9d:64:e7:b0:49:6f:26:a2:64:bc:
                    9c:18:8a:f3:c6:db:83:a4:6c:b0:56:23:16:40:57:
                    b0:95:5e:1b:3d:c5:3f:10:7a:84:e0:3e:bb:78:e8:
                    7d:c1:63:f3:fe:ee:af:16:db:ce:28:02:21:df:8b:
                    ca:f3:c3:1e:d1:47:c0:59:5f:1c:48:ec:50:6a:e3:
                    cc:fb:b6:16:45:40:c8:50:cf:dc:3e:2d:2d:cb:cd:
                    19:2a:17:74:41:7f:bc:26:4d:cd:97:b2:2b:67:57:
                    8e:6e:75:b5:d8:ec:6b:69:ab:09:3d:95:85:2c:0f:
                    d7:8d:29:75:1f:9b:88:56:bc:e8:11:a3:c8:65:e5:
                    2b:23
                Exponent: 65537 (0x10001)
        X509v3 extensions:
            X509v3 Subject Key Identifier: 
                D6:56:A1:9C:F1:66:E4:05:17:36:32:74:BA:72:97:50:13:58:B3:3D
            X509v3 Authority Key Identifier: 
                keyid:A8:10:EA:C8:EF:4F:00:CD:E3:79:C3:EB:DF:F6:C8:86:9D:44:6C:26
                DirName:/C=US/ST=Montana/L=Bozeman/O=Sawtooth/OU=Consulting/CN=www.wolfssl.com/emailAddress=info@wolfssl.com
                serial:64

            X509v3 Basic Constraints: 
                CA:FALSE
    Signature Algorithm: sha256WithRSAEncryption
         72:8d:c5:a7:a8:d5:4a:bc:d9:72:ef:46:79:53:5c:e8:32:10:
         f5:29:ee:b0:6c:ef:68:80:a3:f6:0f:fe:ba:73:ce:a9:c4:93:
         01:ba:78:eb:a9:4a:f3:32:e2:4c:74:6c:f7:23:c9:70:44:a1:
         d1:f7:59:d7:fd:34:12:ab:81:91:16:20:60:59:dd:ff:d5:6f:
         1f:d6:25:d9:95:85:7f:9d:dc:18:49:39:44:43:03:03:98:db:
         2e:03:a8:88:27:13:d2:a5:52:0e:15:a0:e5:5d:15:81:2b:3d:
         1c:cb:41:58:46:d3:4f:37:be:ae:45:eb:7d:9c:52:91:50:98:
         a5:c1:e6:7b:1a:60:e0:d6:61:7e:88:19:b7:ec:8a:33:07:24:
         04:9f:78:89:50:97:9c:a4:1e:15:fc:ef:bf:29:4d:c3:8c:19:
         d7:59:68:30:d2:08:d8:80:d8:7e:32:31:2b:ee:cf:7f:b4:47:
         a4:bb:7d:cf:b6:64:9d:55:5c:e9:44:0a:43:ed:3b:c2:ae:1d:
         34:1c:bf:7e:5b:91:8c:26:76:fb:68:d9:3e:6b:68:22:ae:60:
         56:d3:4e:f3:b7:d1:de:da:47:03:2e:22:74:85:ea:52:de:22:
         fd:90:55:21:8d:b2:e4:35:c3:15:44:f6:1a:01:3c:0a:56:f8:
         89:98:59:4a
-----BEGIN CERTIFICATE-----
MIIEqjCCA5KgAwIBAgIBZTANBgkqhkiG9w0BAQsFADCBoTELMAkGA1UEBhMCVVMx
EzARBgNVBAgMCldhc2hpbmd0b24xEDAOBgNVBAcMB1NlYXR0bGUxFTATBgNVBAoM
DHdvbGZTU0wgSW5jLjEUMBIGA1UECwwLRW5naW5lZXJpbmcxHTAbBgNVBAMMFGNo
YWluQS1JQ0ExLXBhdGhsZW4wMR8wHQYJKoZIhvcNAQkBFhBpbmZvQHdvbGZzc2wu
Y29tMB4XDTE5MTAxMTAwMjgwOFoXDTIyMDcwNzAwMjgwOFowgZoxCzAJBgNVBAYT
AlVTMRMwEQYDVQQIDApXYXNoaW5ndG9uMRAwDgYDVQQHDAdTZWF0dGxlMRUwEwYD
VQQKDAx3b2xmU1NMIEluYy4xFDASBgNVBAsMC0VuZ2luZWVyaW5nMRYwFAYDVQQD
DA1jaGFpbkEtZW50aXR5MR8wHQYJKoZIhvcNAQkBFhBpbmZvQHdvbGZzc2wuY29t
MIIBIjANBgkqhkiG9w0BAQEFAAOCAQ8AMIIBCgKCAQEA0HrYyGxPpc1yJYf/EqNl
Dh0feLLXGmWh5069BbUFPjk+ha2Qx1ulgUK1AQBXhymjRc70AvqAjzuOmUAs/Miw
iysZwyDGr9ug2dVwMm1mw8rE6mP7CA41vFB/hcdi9OKF5IlZUnHy49FjPh0Ibf+G
y+XrvB/eE/Cy+JLuI51k57BJbyaiZLycGIrzxtuDpGywViMWQFewlV4bPcU/EHqE
4D67eOh9wWPz/u6vFtvOKAIh34vK88Me0UfAWV8cSOxQauPM+7YWRUDIUM/cPi0t
y80ZKhd0QX+8Jk3Nl7IrZ1eObnW12OxraasJPZWFLA/XjSl1H5uIVrzoEaPIZeUr
IwIDAQABo4HxMIHuMB0GA1UdDgQWBBTWVqGc8WbkBRc2MnS6cpdQE1izPTCBwQYD
VR0jBIG5MIG2gBSoEOrI708AzeN5w+vf9siGnURsJqGBmqSBlzCBlDELMAkGA1UE
BhMCVVMxEDAOBgNVBAgMB01vbnRhbmExEDAOBgNVBAcMB0JvemVtYW4xETAPBgNV
BAoMCFNhd3Rvb3RoMRMwEQYDVQQLDApDb25zdWx0aW5nMRgwFgYDVQQDDA93d3cu
d29sZnNzbC5jb20xHzAdBgkqhkiG9w0BCQEWEGluZm9Ad29sZnNzbC5jb22CAWQw
CQYDVR0TBAIwADANBgkqhkiG9w0BAQsFAAOCAQEAco3Fp6jVSrzZcu9GeVNc6DIQ
9SnusGzvaICj9g/+unPOqcSTAbp466lK8zLiTHRs9yPJcESh0fdZ1/00EquBkRYg
YFnd/9VvH9Yl2ZWFf53cGEk5REMDA5jbLgOoiCcT0qVSDhWg5V0VgSs9HMtBWEbT
Tze+rkXrfZxSkVCYpcHmexpg4NZhfogZt+yKMwckBJ94iVCXnKQeFfzvvylNw4wZ
11loMNII2IDYfjIxK+7Pf7RHpLt9z7ZknVVc6UQKQ+07wq4dNBy/fluRjCZ2+2jZ
PmtoIq5gVtNO87fR3tpHAy4idIXqUt4i/ZBVIY2y5DXDFUT2GgE8Clb4iZhZSg==
-----END CERTIFICATE-----
Certificate:
    Data:
        Version: 3 (0x2)
        Serial Number: 100 (0x64)
        Signature Algorithm: sha256WithRSAEncryption
        Issuer: C = US, ST = Montana, L = Bozeman, O = Sawtooth, OU = Consulting, CN = www.wolfssl.com, emailAddress = info@wolfssl.com
        Validity
            Not Before: Oct 11 00:28:08 2019 GMT
            Not After : Jul  7 00:28:08 2022 GMT
        Subject: C = US, ST = Washington, L = Seattle, O = wolfSSL Inc., OU = Engineering, CN = chainA-ICA1-pathlen0, emailAddress = info@wolfssl.com
        Subject Public Key Info:
            Public Key Algorithm: rsaEncryption
                RSA Public-Key: (2048 bit)
                Modulus:
                    00:b2:2b:a1:3f:be:c0:58:bd:3a:bc:0d:19:ac:ca:
                    7f:b9:3b:f0:8c:30:ff:04:b1:34:7e:26:86:96:36:
                    6b:53:2e:44:1d:a1:f4:bc:51:79:55:05:ca:bb:a0:
                    a7:9d:33:01:93:96:14:67:ec:f4:c3:2e:66:27:d1:
                    41:68:34:ac:8d:64:63:d8:55:86:9d:62:24:99:ed:
                    b7:ff:cb:4d:9d:40:54:d5:e3:aa:45:a6:a6:db:fe:
                    73:42:94:42:c1:d0:32:5c:c4:21:ae:9c:93:00:b7:
                    4a:1f:9e:95:a6:28:6d:4b:d8:c0:65:e7:ed:a3:6d:
                    ca:18:b3:fa:df:c9:67:1a:75:23:60:83:a5:03:5f:
                    61:bd:e5:d6:8d:9d:05:47:23:7e:a0:8d:d1:7f:42:
                    4e:38:ac:ce:70:bc:bf:7b:05:5b:0f:82:02:b0:9a:
                    8d:c0:14:ca:d0:45:5e:97:10:d1:a1:e1:23:da:dc:
                    69:9c:ce:53:cc:68:89:c6:40:4d:69:bc:ab:4f:c7:
                    11:5e:62:a2:df:e2:a5:34:7c:39:36:27:67:34:11:
                    04:2c:2a:b3:16:db:8e:fd:d7:7b:1d:93:5f:33:c2:
                    ca:96:22:2a:43:82:8a:48:46:07:13:ff:6c:1c:b0:
                    ba:0b:f0:cd:3f:4c:dc:34:17:8f:22:70:69:9d:22:
                    d7:c7
                Exponent: 65537 (0x10001)
        X509v3 extensions:
            X509v3 Subject Key Identifier: 
                A8:10:EA:C8:EF:4F:00:CD:E3:79:C3:EB:DF:F6:C8:86:9D:44:6C:26
            X509v3 Authority Key Identifier: 
                keyid:27:8E:67:11:74:C3:26:1D:3F:ED:33:63:B3:A4:D8:1D:30:E5:E8:D5
                DirName:/C=US/ST=Montana/L=Bozeman/O=Sawtooth/OU=Consulting/CN=www.wolfssl.com/emailAddress=info@wolfssl.com
                serial:86:FF:F5:8E:10:DE:B8:FB

            X509v3 Basic Constraints: 
                CA:TRUE, pathlen:0
            X509v3 Key Usage: 
                Certificate Sign, CRL Sign
    Signature Algorithm: sha256WithRSAEncryption
         2a:15:34:be:88:ed:0b:5d:97:b4:c0:9e:f7:45:a2:ba:bb:a0:
         7f:a0:b3:93:15:79:38:27:36:25:91:5d:73:10:bb:d0:f9:f3:
         e9:5f:98:c6:9b:6b:da:08:60:48:3e:26:17:2b:ae:22:08:ac:
         10:ed:a1:28:65:96:7f:94:75:c8:da:6c:c9:f6:4c:4c:b1:a3:
         45:4b:74:c7:de:49:f6:c1:1c:2c:eb:41:3c:2d:56:52:75:5b:
         7c:13:c0:dc:41:34:02:c0:e5:5e:79:71:65:ac:d1:f3:36:f7:
         55:d5:13:8f:0a:42:49:d9:fc:7f:5c:a4:cb:ad:7b:72:2f:98:
         e2:56:92:9e:11:1a:b2:9d:5b:b9:2c:14:1e:51:f5:c5:b7:2c:
         c2:39:52:90:0f:4e:04:5e:59:23:6f:d8:f9:75:2b:54:b0:6e:
         98:0a:54:3a:45:fd:9a:63:31:ce:a3:a8:ae:7b:be:03:81:a5:
         18:d3:00:51:a4:29:d4:f7:8d:53:31:72:85:80:c0:62:71:06:
         2b:07:b6:0a:b2:12:cf:2b:bd:99:34:6b:5e:ea:94:0c:1a:e8:
         2b:ee:e5:d6:3d:cb:7a:f6:f8:6e:e4:e2:f4:25:07:13:11:b1:
         18:b3:75:29:40:dc:bc:31:57:37:71:7c:09:bb:74:1c:9e:b4:
         3e:1d:47:20
-----BEGIN CERTIFICATE-----
MIIEwTCCA6mgAwIBAgIBZDANBgkqhkiG9w0BAQsFADCBlDELMAkGA1UEBhMCVVMx
EDAOBgNVBAgMB01vbnRhbmExEDAOBgNVBAcMB0JvemVtYW4xETAPBgNVBAoMCFNh
d3Rvb3RoMRMwEQYDVQQLDApDb25zdWx0aW5nMRgwFgYDVQQDDA93d3cud29sZnNz
bC5jb20xHzAdBgkqhkiG9w0BCQEWEGluZm9Ad29sZnNzbC5jb20wHhcNMTkxMDEx
MDAyODA4WhcNMjIwNzA3MDAyODA4WjCBoTELMAkGA1UEBhMCVVMxEzARBgNVBAgM
Cldhc2hpbmd0b24xEDAOBgNVBAcMB1NlYXR0bGUxFTATBgNVBAoMDHdvbGZTU0wg
SW5jLjEUMBIGA1UECwwLRW5naW5lZXJpbmcxHTAbBgNVBAMMFGNoYWluQS1JQ0Ex
LXBhdGhsZW4wMR8wHQYJKoZIhvcNAQkBFhBpbmZvQHdvbGZzc2wuY29tMIIBIjAN
BgkqhkiG9w0BAQEFAAOCAQ8AMIIBCgKCAQEAsiuhP77AWL06vA0ZrMp/uTvwjDD/
BLE0fiaGljZrUy5EHaH0vFF5VQXKu6CnnTMBk5YUZ+z0wy5mJ9FBaDSsjWRj2FWG
nWIkme23/8tNnUBU1eOqRaam2/5zQpRCwdAyXMQhrpyTALdKH56VpihtS9jAZeft
o23KGLP638lnGnUjYIOlA19hveXWjZ0FRyN+oI3Rf0JOOKzOcLy/ewVbD4ICsJqN
wBTK0EVelxDRoeEj2txpnM5TzGiJxkBNabyrT8cRXmKi3+KlNHw5NidnNBEELCqz
FtuO/dd7HZNfM8LKliIqQ4KKSEYHE/9sHLC6C/DNP0zcNBePInBpnSLXxwIDAQAB
o4IBDTCCAQkwHQYDVR0OBBYEFKgQ6sjvTwDN43nD69/2yIadRGwmMIHJBgNVHSME
gcEwgb6AFCeOZxF0wyYdP+0zY7Ok2B0w5ejVoYGapIGXMIGUMQswCQYDVQQGEwJV
UzEQMA4GA1UECAwHTW9udGFuYTEQMA4GA1UEBwwHQm96ZW1hbjERMA8GA1UECgwI
U2F3dG9vdGgxEzARBgNVBAsMCkNvbnN1bHRpbmcxGDAWBgNVBAMMD3d3dy53b2xm
c3NsLmNvbTEfMB0GCSqGSIb3DQEJARYQaW5mb0B3b2xmc3NsLmNvbYIJAIb/9Y4Q
3rj7MA8GA1UdEwQIMAYBAf8CAQAwCwYDVR0PBAQDAgEGMA0GCSqGSIb3DQEBCwUA
A4IBAQAqFTS+iO0LXZe0wJ73RaK6u6B/oLOTFXk4JzYlkV1zELvQ+fPpX5jGm2va
CGBIPiYXK64iCKwQ7aEoZZZ/lHXI2mzJ9kxMsaNFS3TH3kn2wRws60E8LVZSdVt8
E8DcQTQCwOVeeXFlrNHzNvdV1ROPCkJJ2fx/XKTLrXtyL5jiVpKeERqynVu5LBQe
UfXFtyzCOVKQD04EXlkjb9j5dStUsG6YClQ6Rf2aYzHOo6iue74DgaUY0wBRpCnU
941TMXKFgMBicQYrB7YKshLPK72ZNGte6pQMGugr7uXWPct69vhu5OL0JQcTEbEY
s3UpQNy8MVc3cXwJu3QcnrQ+HUcg
-----END CERTIFICATE-----
