Certificate:
    Data:
        Version: 3 (0x2)
        Serial Number: 100 (0x64)
        Signature Algorithm: sha256WithRSAEncryption
        Issuer: C = US, ST = Washington, L = Seattle, O = wolfSSL Inc., OU = Engineering, CN = chainH-ICA3-pathlen2, emailAddress = info@wolfssl.com
        Validity
            Not Before: Oct 11 00:28:09 2019 GMT
            Not After : Jul  7 00:28:09 2022 GMT
        Subject: C = US, ST = Washington, L = Seattle, O = wolfSSL Inc., OU = Engineering, CN = chainH-ICA2-pathlen2, emailAddress = info@wolfssl.com
        Subject Public Key Info:
            Public Key Algorithm: rsaEncryption
                RSA Public-Key: (2048 bit)
                Modulus:
                    00:d9:b5:af:4b:ba:83:03:23:df:50:28:a8:c2:0c:
                    2c:f0:04:cb:2d:04:9b:1e:f5:f4:68:bc:d4:8e:b4:
                    cd:46:04:a2:f5:14:9e:3e:33:d6:76:2d:54:f9:d5:
                    41:b5:7a:47:93:1a:54:80:a4:3d:8b:9d:80:ea:1c:
                    3a:3a:bb:d1:d4:b6:f1:f2:a3:bd:9e:5d:b8:85:01:
                    d7:c8:a0:27:f6:67:41:94:c5:95:91:11:cb:96:fc:
                    95:a9:bc:b5:be:58:77:5c:2b:9b:e9:24:7e:8b:6e:
                    10:a7:d5:3a:fa:05:21:27:14:d8:d2:5f:a2:58:12:
                    b4:d9:bd:88:1a:f1:e7:4c:9d:60:31:0b:1f:3f:8b:
                    af:3a:d9:ca:cf:d4:73:1b:b8:b0:3d:d5:96:5d:4e:
                    a3:62:8f:56:eb:3d:4c:f0:21:4f:f4:8c:c7:55:dd:
                    a6:dc:d9:15:a1:12:db:73:4d:bf:18:89:42:92:0e:
                    83:be:4f:aa:ee:8f:a8:ef:a1:27:01:73:16:29:c0:
                    e8:8c:23:c8:ff:95:68:cd:53:67:49:e5:73:b1:ec:
                    62:60:51:20:e8:a6:49:28:f5:2b:16:30:e8:8b:a6:
                    2f:f4:b7:37:99:8c:32:30:97:5d:16:bf:6b:5e:ba:
                    34:1f:d6:1b:2e:fc:79:f0:00:61:aa:a0:7a:2f:7b:
                    d2:83
                Exponent: 65537 (0x10001)
        X509v3 extensions:
            X509v3 Subject Key Identifier: 
                80:49:61:8C:1D:13:08:56:B5:42:68:D5:B2:EA:89:2C:B4:8B:05:87
            X509v3 Authority Key Identifier: 
                keyid:56:54:36:BE:23:2F:20:89:6D:A6:BA:9A:45:A4:88:0E:40:35:FD:F5
                DirName:/C=US/ST=Washington/L=Seattle/O=wolfSSL Inc./OU=Engineering/CN=chainH-ICA4-pathlen2/emailAddress=info@wolfssl.com
                serial:64

            X509v3 Basic Constraints: 
                CA:TRUE, pathlen:2
            X509v3 Key Usage: 
                Certificate Sign, CRL Sign
    Signature Algorithm: sha256WithRSAEncryption
         16:6f:a3:cd:f6:de:87:1c:86:f8:b4:b8:e6:e0:dc:11:2f:f3:
         bb:f1:57:34:ec:1a:59:8a:81:63:40:01:df:53:24:a7:50:b0:
         6d:3d:29:2a:41:e7:08:71:0f:37:4b:10:b5:95:ae:a0:81:ba:
         ba:b5:3e:72:48:be:6b:9e:be:34:3b:0d:15:f8:8f:9d:24:68:
         01:0c:d4:4a:0d:86:d5:b3:71:b6:d6:8e:71:44:16:7e:e3:db:
         ba:7d:0e:5f:b3:2f:e2:60:f9:ff:bc:91:a6:ae:3c:ba:30:e4:
         f5:55:bf:1e:72:0b:cc:5e:b4:7e:1f:09:aa:b4:52:bd:8c:2c:
         37:d0:0d:82:b4:ec:ff:c1:cf:91:a2:43:24:b8:b4:c0:ac:f2:
         29:eb:84:1d:49:ef:a4:8f:65:b3:06:01:2f:23:cf:a6:27:42:
         cd:99:17:b9:69:40:1d:df:99:f6:f8:c4:61:cc:4a:a1:f0:38:
         ce:4e:c4:27:f6:8f:d2:ae:74:5f:39:93:66:77:55:b2:25:8d:
         7e:7f:7d:b4:2b:f1:ee:83:9e:7b:f5:31:3f:d7:27:53:e6:21:
         bd:69:a5:ca:0e:d8:6e:54:67:56:bf:f3:ec:e8:e1:aa:a4:76:
         fa:0d:42:d4:7d:26:bd:f5:e5:25:ee:81:c4:ed:59:eb:0a:54:
         d3:c9:18:30
-----BEGIN CERTIFICATE-----
MIIE0zCCA7ugAwIBAgIBZDANBgkqhkiG9w0BAQsFADCBoTELMAkGA1UEBhMCVVMx
EzARBgNVBAgMCldhc2hpbmd0b24xEDAOBgNVBAcMB1NlYXR0bGUxFTATBgNVBAoM
DHdvbGZTU0wgSW5jLjEUMBIGA1UECwwLRW5naW5lZXJpbmcxHTAbBgNVBAMMFGNo
YWluSC1JQ0EzLXBhdGhsZW4yMR8wHQYJKoZIhvcNAQkBFhBpbmZvQHdvbGZzc2wu
Y29tMB4XDTE5MTAxMTAwMjgwOVoXDTIyMDcwNzAwMjgwOVowgaExCzAJBgNVBAYT
AlVTMRMwEQYDVQQIDApXYXNoaW5ndG9uMRAwDgYDVQQHDAdTZWF0dGxlMRUwEwYD
VQQKDAx3b2xmU1NMIEluYy4xFDASBgNVBAsMC0VuZ2luZWVyaW5nMR0wGwYDVQQD
DBRjaGFpbkgtSUNBMi1wYXRobGVuMjEfMB0GCSqGSIb3DQEJARYQaW5mb0B3b2xm
c3NsLmNvbTCCASIwDQYJKoZIhvcNAQEBBQADggEPADCCAQoCggEBANm1r0u6gwMj
31AoqMIMLPAEyy0Emx719Gi81I60zUYEovUUnj4z1nYtVPnVQbV6R5MaVICkPYud
gOocOjq70dS28fKjvZ5duIUB18igJ/ZnQZTFlZERy5b8lam8tb5Yd1wrm+kkfotu
EKfVOvoFIScU2NJfolgStNm9iBrx50ydYDELHz+LrzrZys/Ucxu4sD3Vll1Oo2KP
Vus9TPAhT/SMx1XdptzZFaES23NNvxiJQpIOg75Pqu6PqO+hJwFzFinA6IwjyP+V
aM1TZ0nlc7HsYmBRIOimSSj1KxYw6IumL/S3N5mMMjCXXRa/a166NB/WGy78efAA
Yaqgei970oMCAwEAAaOCARIwggEOMB0GA1UdDgQWBBSASWGMHRMIVrVCaNWy6oks
tIsFhzCBzgYDVR0jBIHGMIHDgBRWVDa+Iy8giW2muppFpIgOQDX99aGBp6SBpDCB
oTELMAkGA1UEBhMCVVMxEzARBgNVBAgMCldhc2hpbmd0b24xEDAOBgNVBAcMB1Nl
YXR0bGUxFTATBgNVBAoMDHdvbGZTU0wgSW5jLjEUMBIGA1UECwwLRW5naW5lZXJp
bmcxHTAbBgNVBAMMFGNoYWluSC1JQ0E0LXBhdGhsZW4yMR8wHQYJKoZIhvcNAQkB
FhBpbmZvQHdvbGZzc2wuY29tggFkMA8GA1UdEwQIMAYBAf8CAQIwCwYDVR0PBAQD
AgEGMA0GCSqGSIb3DQEBCwUAA4IBAQAWb6PN9t6HHIb4tLjm4NwRL/O78Vc07BpZ
ioFjQAHfUySnULBtPSkqQecIcQ83SxC1la6ggbq6tT5ySL5rnr40Ow0V+I+dJGgB
DNRKDYbVs3G21o5xRBZ+49u6fQ5fsy/iYPn/vJGmrjy6MOT1Vb8ecgvMXrR+Hwmq
tFK9jCw30A2CtOz/wc+RokMkuLTArPIp64QdSe+kj2WzBgEvI8+mJ0LNmRe5aUAd
35n2+MRhzEqh8DjOTsQn9o/SrnRfOZNmd1WyJY1+f320K/Hug5579TE/1ydT5iG9
aaXKDthuVGdWv/Ps6OGqpHb6DULUfSa99eUl7oHE7VnrClTTyRgw
-----END CERTIFICATE-----
