Certificate:
    Data:
        Version: 3 (0x2)
        Serial Number: 100 (0x64)
        Signature Algorithm: sha256WithRSAEncryption
        Issuer: C = US, ST = Washington, L = Seattle, O = wolfSSL Inc., OU = Engineering, CN = chainH-ICA2-pathlen2, emailAddress = info@wolfssl.com
        Validity
            Not Before: Oct 11 00:28:10 2019 GMT
            Not After : Jul  7 00:28:10 2022 GMT
        Subject: C = US, ST = Washington, L = Seattle, O = wolfSSL Inc., OU = Engineering, CN = chainH-ICA1-pathlen0, emailAddress = info@wolfssl.com
        Subject Public Key Info:
            Public Key Algorithm: rsaEncryption
                RSA Public-Key: (2048 bit)
                Modulus:
                    00:c7:f4:a6:7e:f2:cb:4f:6e:04:18:d3:53:d5:cf:
                    bf:7e:97:d1:74:94:fe:db:ad:61:3f:12:20:67:f3:
                    10:83:7b:51:43:a3:0c:20:b7:35:63:f1:0a:ee:59:
                    74:82:72:fb:d1:d4:12:71:ec:0e:8f:69:c9:fb:af:
                    a7:2f:c4:3b:2c:66:34:ab:ac:80:c2:6d:4a:0e:54:
                    fe:f6:3e:3a:00:25:84:a7:cb:42:d5:e8:47:04:94:
                    e4:68:c3:f5:32:ad:21:89:d8:5e:f9:88:ee:7d:ce:
                    91:a3:16:fc:87:76:1f:2f:1d:4c:b1:2f:3d:4d:f4:
                    0a:6c:04:fd:49:cf:51:88:49:c4:03:65:63:1e:c8:
                    f1:34:1d:44:34:58:af:f5:ec:90:2a:8c:a9:38:7b:
                    dc:fa:5f:ed:00:ed:08:53:4d:f7:36:10:ed:71:41:
                    aa:e3:bf:e8:5d:ee:4e:36:39:57:7e:f4:fd:c3:f7:
                    8a:52:0f:f1:37:72:2b:ae:90:77:00:d6:7c:ec:ec:
                    ee:8d:f8:4b:fb:39:0a:45:49:81:31:41:3f:a9:bb:
                    7b:1c:8a:cf:31:09:c7:94:a7:70:4a:d4:bb:ea:61:
                    3d:9a:a1:8e:1b:8b:02:3b:1f:1f:c4:85:e9:7f:63:
                    0c:ea:e5:91:83:a8:5b:25:34:7c:a8:68:eb:97:6f:
                    74:99
                Exponent: 65537 (0x10001)
        X509v3 extensions:
            X509v3 Subject Key Identifier: 
                48:80:87:28:EF:E6:28:0F:03:9B:DF:33:48:10:A0:E5:20:B3:69:50
            X509v3 Authority Key Identifier: 
                keyid:80:49:61:8C:1D:13:08:56:B5:42:68:D5:B2:EA:89:2C:B4:8B:05:87
                DirName:/C=US/ST=Washington/L=Seattle/O=wolfSSL Inc./OU=Engineering/CN=chainH-ICA3-pathlen2/emailAddress=info@wolfssl.com
                serial:64

            X509v3 Basic Constraints: 
                CA:TRUE, pathlen:0
            X509v3 Key Usage: 
                Certificate Sign, CRL Sign
    Signature Algorithm: sha256WithRSAEncryption
         5f:77:d6:d2:55:4e:25:be:4b:f4:9f:9d:a8:ff:92:ac:4d:19:
         1f:0b:50:5b:51:01:7f:b8:a2:56:0d:cd:0c:c8:66:7a:08:bf:
         1e:07:6a:a5:6d:ad:68:c4:bb:da:99:d7:f3:62:bb:b5:28:de:
         47:dc:e2:b0:e1:27:cd:14:4b:7d:1c:7d:1a:60:eb:37:6f:fc:
         ff:4e:1f:9f:ce:52:da:b4:a7:f4:6c:92:b5:65:b5:8f:53:1b:
         d8:bd:7d:f6:a8:7e:23:9f:7d:b6:09:18:f2:a3:17:55:aa:fe:
         57:87:3d:a9:18:52:76:6e:fe:7c:ed:2a:85:45:63:d3:4d:7b:
         f2:5e:ff:0f:a7:ae:24:ef:5f:71:66:25:29:31:9e:4a:12:a0:
         56:5b:39:2c:79:64:d0:1a:fb:97:99:df:42:9c:23:b4:f1:1d:
         be:fc:da:41:16:b1:a0:fc:3a:b8:6e:a7:cf:3c:21:ea:22:7c:
         f6:d2:a1:25:96:1e:b9:2f:eb:bf:61:c2:ee:58:c6:a1:7e:d0:
         73:e3:fd:58:62:ca:44:95:2b:b1:a8:d0:f8:1a:0d:40:9a:fb:
         b1:27:4b:fc:57:4c:32:b5:09:5e:6e:ac:1d:dc:bc:77:f5:1b:
         27:88:40:df:70:da:f7:28:32:ef:8f:2e:53:41:78:69:e9:3e:
         7b:64:da:e4
-----BEGIN CERTIFICATE-----
MIIE0zCCA7ugAwIBAgIBZDANBgkqhkiG9w0BAQsFADCBoTELMAkGA1UEBhMCVVMx
EzARBgNVBAgMCldhc2hpbmd0b24xEDAOBgNVBAcMB1NlYXR0bGUxFTATBgNVBAoM
DHdvbGZTU0wgSW5jLjEUMBIGA1UECwwLRW5naW5lZXJpbmcxHTAbBgNVBAMMFGNo
YWluSC1JQ0EyLXBhdGhsZW4yMR8wHQYJKoZIhvcNAQkBFhBpbmZvQHdvbGZzc2wu
Y29tMB4XDTE5MTAxMTAwMjgxMFoXDTIyMDcwNzAwMjgxMFowgaExCzAJBgNVBAYT
AlVTMRMwEQYDVQQIDApXYXNoaW5ndG9uMRAwDgYDVQQHDAdTZWF0dGxlMRUwEwYD
VQQKDAx3b2xmU1NMIEluYy4xFDASBgNVBAsMC0VuZ2luZWVyaW5nMR0wGwYDVQQD
DBRjaGFpbkgtSUNBMS1wYXRobGVuMDEfMB0GCSqGSIb3DQEJARYQaW5mb0B3b2xm
c3NsLmNvbTCCASIwDQYJKoZIhvcNAQEBBQADggEPADCCAQoCggEBAMf0pn7yy09u
BBjTU9XPv36X0XSU/tutYT8SIGfzEIN7UUOjDCC3NWPxCu5ZdIJy+9HUEnHsDo9p
yfuvpy/EOyxmNKusgMJtSg5U/vY+OgAlhKfLQtXoRwSU5GjD9TKtIYnYXvmI7n3O
kaMW/Id2Hy8dTLEvPU30CmwE/UnPUYhJxANlYx7I8TQdRDRYr/XskCqMqTh73Ppf
7QDtCFNN9zYQ7XFBquO/6F3uTjY5V370/cP3ilIP8TdyK66QdwDWfOzs7o34S/s5
CkVJgTFBP6m7exyKzzEJx5SncErUu+phPZqhjhuLAjsfH8SF6X9jDOrlkYOoWyU0
fKho65dvdJkCAwEAAaOCARIwggEOMB0GA1UdDgQWBBRIgIco7+YoDwOb3zNIEKDl
ILNpUDCBzgYDVR0jBIHGMIHDgBSASWGMHRMIVrVCaNWy6okstIsFh6GBp6SBpDCB
oTELMAkGA1UEBhMCVVMxEzARBgNVBAgMCldhc2hpbmd0b24xEDAOBgNVBAcMB1Nl
YXR0bGUxFTATBgNVBAoMDHdvbGZTU0wgSW5jLjEUMBIGA1UECwwLRW5naW5lZXJp
bmcxHTAbBgNVBAMMFGNoYWluSC1JQ0EzLXBhdGhsZW4yMR8wHQYJKoZIhvcNAQkB
FhBpbmZvQHdvbGZzc2wuY29tggFkMA8GA1UdEwQIMAYBAf8CAQAwCwYDVR0PBAQD
AgEGMA0GCSqGSIb3DQEBCwUAA4IBAQBfd9bSVU4lvkv0n52o/5KsTRkfC1BbUQF/
uKJWDc0MyGZ6CL8eB2qlba1oxLvamdfzYru1KN5H3OKw4SfNFEt9HH0aYOs3b/z/
Th+fzlLatKf0bJK1ZbWPUxvYvX32qH4jn322CRjyoxdVqv5Xhz2pGFJ2bv587SqF
RWPTTXvyXv8Pp64k719xZiUpMZ5KEqBWWzkseWTQGvuXmd9CnCO08R2+/NpBFrGg
/Dq4bqfPPCHqInz20qEllh65L+u/YcLuWMahftBz4/1YYspElSuxqND4Gg1Amvux
J0v8V0wytQlebqwd3Lx39RsniEDfcNr3KDLvjy5TQXhp6T57ZNrk
-----END CERTIFICATE-----
