Certificate:
    Data:
        Version: 3 (0x2)
        Serial Number: 101 (0x65)
        Signature Algorithm: sha256WithRSAEncryption
        Issuer: C = US, ST = Washington, L = Seattle, O = wolfSSL Inc., OU = Engineering, CN = chainD-ICA1-pathlen127, emailAddress = info@wolfssl.com
        Validity
            Not Before: Oct 11 00:28:09 2019 GMT
            Not After : Jul  7 00:28:09 2022 GMT
        Subject: C = US, ST = Washington, L = Seattle, O = wolfSSL Inc., OU = Engineering, CN = chainD-entity, emailAddress = info@wolfssl.com
        Subject Public Key Info:
            Public Key Algorithm: rsaEncryption
                RSA Public-Key: (2048 bit)
                Modulus:
                    00:e2:5d:f4:bd:06:b6:a1:21:3a:2d:7f:cc:f2:5a:
                    15:36:28:0a:f2:bb:16:b5:ec:f9:e7:5b:92:ec:17:
                    75:76:89:f4:1b:7c:a9:79:cb:62:4b:55:8a:ca:cc:
                    f9:f0:a9:a2:05:61:ee:d8:8b:d0:5d:c5:49:bc:7d:
                    28:26:7d:3a:22:cc:20:71:55:4c:3a:f7:24:d7:95:
                    ac:ce:18:7d:0d:7b:20:4f:11:a9:7b:02:08:09:e6:
                    85:91:e4:4e:80:b9:a4:76:0f:28:cc:07:f6:f2:be:
                    c1:54:63:d2:b7:81:59:09:0b:c1:bd:0d:27:70:55:
                    c7:5f:bc:54:ee:73:16:7e:d2:b4:4c:df:a8:a9:81:
                    cc:e3:a6:8c:eb:e3:98:49:84:0b:a0:da:f3:e1:5f:
                    32:69:6a:b0:50:69:4f:96:72:04:3f:e7:1c:80:b1:
                    2c:6f:7d:ff:41:f2:bb:0b:17:b7:b5:ce:21:ea:e6:
                    c2:bd:cd:28:08:40:43:04:e5:40:e2:7d:41:35:b5:
                    51:bf:e8:20:01:99:85:a2:38:f1:6e:69:40:da:6e:
                    9f:d3:40:63:89:19:de:4d:49:d2:79:10:b6:2a:bb:
                    6f:66:fa:25:5f:96:c1:e8:38:96:e3:e5:28:28:b4:
                    ca:3c:21:1c:95:cd:b5:5e:50:f1:c9:3e:c2:4c:f2:
                    cb:33
                Exponent: 65537 (0x10001)
        X509v3 extensions:
            X509v3 Subject Key Identifier: 
                58:92:0B:B2:E4:12:D8:A3:31:37:D9:89:F2:9E:6E:62:22:40:42:82
            X509v3 Authority Key Identifier: 
                keyid:67:78:F9:AD:1C:53:41:1F:46:BD:49:9B:73:2E:7C:DC:5C:2D:0B:FB
                DirName:/C=US/ST=Montana/L=Bozeman/O=Sawtooth/OU=Consulting/CN=www.wolfssl.com/emailAddress=info@wolfssl.com
                serial:64

            X509v3 Basic Constraints: 
                CA:FALSE
    Signature Algorithm: sha256WithRSAEncryption
         58:fd:0d:2f:47:32:d2:11:b4:b5:a5:b5:ea:26:23:66:85:cc:
         46:b5:42:fc:63:98:57:14:84:ca:2a:02:30:9e:a0:64:d4:24:
         cb:42:2e:53:a3:0f:d7:24:46:cb:37:0c:ba:d9:73:50:11:15:
         d0:4a:4a:f5:10:15:db:c9:e5:e6:a2:c3:91:89:70:c8:df:59:
         c3:2f:c3:94:a4:50:5b:f5:d8:71:e8:ba:fa:85:ee:aa:f4:b1:
         64:29:54:62:08:cc:89:a3:41:be:df:03:d3:75:f8:92:41:95:
         4b:06:cc:95:30:ef:a8:6f:01:9a:2e:bc:a0:7e:4c:08:4e:d4:
         f0:91:fe:b4:a3:67:0f:9c:5d:4d:7d:ad:04:d7:cf:e4:79:d8:
         b2:18:78:33:fd:a3:cb:14:d3:50:1b:50:62:ef:9d:1b:88:8d:
         7b:42:76:ce:c7:88:70:58:40:f4:bf:7c:1e:c5:26:8c:23:b7:
         7e:d2:85:67:c7:fe:ae:59:98:06:60:54:43:1e:31:74:25:c9:
         1e:4c:05:d2:6d:01:3e:33:ac:5d:42:c5:47:c4:20:9f:04:30:
         ca:c7:22:63:bd:8e:16:0a:42:4c:5b:2c:3b:b4:77:3c:b4:43:
         bb:6d:4d:40:d6:ed:30:df:29:a4:3e:e2:78:c3:4f:11:a4:53:
         65:33:e0:c9
-----BEGIN CERTIFICATE-----
MIIErDCCA5SgAwIBAgIBZTANBgkqhkiG9w0BAQsFADCBozELMAkGA1UEBhMCVVMx
EzARBgNVBAgMCldhc2hpbmd0b24xEDAOBgNVBAcMB1NlYXR0bGUxFTATBgNVBAoM
DHdvbGZTU0wgSW5jLjEUMBIGA1UECwwLRW5naW5lZXJpbmcxHzAdBgNVBAMMFmNo
YWluRC1JQ0ExLXBhdGhsZW4xMjcxHzAdBgkqhkiG9w0BCQEWEGluZm9Ad29sZnNz
bC5jb20wHhcNMTkxMDExMDAyODA5WhcNMjIwNzA3MDAyODA5WjCBmjELMAkGA1UE
BhMCVVMxEzARBgNVBAgMCldhc2hpbmd0b24xEDAOBgNVBAcMB1NlYXR0bGUxFTAT
BgNVBAoMDHdvbGZTU0wgSW5jLjEUMBIGA1UECwwLRW5naW5lZXJpbmcxFjAUBgNV
BAMMDWNoYWluRC1lbnRpdHkxHzAdBgkqhkiG9w0BCQEWEGluZm9Ad29sZnNzbC5j
b20wggEiMA0GCSqGSIb3DQEBAQUAA4IBDwAwggEKAoIBAQDiXfS9BrahITotf8zy
WhU2KAryuxa17PnnW5LsF3V2ifQbfKl5y2JLVYrKzPnwqaIFYe7Yi9BdxUm8fSgm
fToizCBxVUw69yTXlazOGH0NeyBPEal7AggJ5oWR5E6AuaR2DyjMB/byvsFUY9K3
gVkJC8G9DSdwVcdfvFTucxZ+0rRM36ipgczjpozr45hJhAug2vPhXzJparBQaU+W
cgQ/5xyAsSxvff9B8rsLF7e1ziHq5sK9zSgIQEME5UDifUE1tVG/6CABmYWiOPFu
aUDabp/TQGOJGd5NSdJ5ELYqu29m+iVflsHoOJbj5SgotMo8IRyVzbVeUPHJPsJM
8sszAgMBAAGjgfEwge4wHQYDVR0OBBYEFFiSC7LkEtijMTfZifKebmIiQEKCMIHB
BgNVHSMEgbkwgbaAFGd4+a0cU0EfRr1Jm3MufNxcLQv7oYGapIGXMIGUMQswCQYD
VQQGEwJVUzEQMA4GA1UECAwHTW9udGFuYTEQMA4GA1UEBwwHQm96ZW1hbjERMA8G
A1UECgwIU2F3dG9vdGgxEzARBgNVBAsMCkNvbnN1bHRpbmcxGDAWBgNVBAMMD3d3
dy53b2xmc3NsLmNvbTEfMB0GCSqGSIb3DQEJARYQaW5mb0B3b2xmc3NsLmNvbYIB
ZDAJBgNVHRMEAjAAMA0GCSqGSIb3DQEBCwUAA4IBAQBY/Q0vRzLSEbS1pbXqJiNm
hcxGtUL8Y5hXFITKKgIwnqBk1CTLQi5Tow/XJEbLNwy62XNQERXQSkr1EBXbyeXm
osORiXDI31nDL8OUpFBb9dhx6Lr6he6q9LFkKVRiCMyJo0G+3wPTdfiSQZVLBsyV
MO+obwGaLrygfkwITtTwkf60o2cPnF1Nfa0E18/kediyGHgz/aPLFNNQG1Bi750b
iI17QnbOx4hwWED0v3wexSaMI7d+0oVnx/6uWZgGYFRDHjF0JckeTAXSbQE+M6xd
QsVHxCCfBDDKxyJjvY4WCkJMWyw7tHc8tEO7bU1A1u0w3ymkPuJ4w08RpFNlM+DJ
-----END CERTIFICATE-----
