Certificate:
    Data:
        Version: 3 (0x2)
        Serial Number: 100 (0x64)
        Signature Algorithm: sha256WithRSAEncryption
        Issuer: C = US, ST = Washington, L = Seattle, O = wolfSSL Inc., OU = Engineering, CN = chainI-ICA2-no_pathlen, emailAddress = info@wolfssl.com
        Validity
            Not Before: Oct 11 18:30:30 2019 GMT
            Not After : Jul  7 18:30:30 2022 GMT
        Subject: C = US, ST = Washington, L = Seattle, O = wolfSSL Inc., OU = Engineering, CN = chainI-ICA1-no_pathlen, emailAddress = info@wolfssl.com
        Subject Public Key Info:
            Public Key Algorithm: rsaEncryption
                RSA Public-Key: (2048 bit)
                Modulus:
                    00:bb:ba:06:ad:13:cf:da:fb:d1:cb:65:fe:26:58:
                    49:6a:01:14:a6:78:b2:2c:1d:ba:ba:d0:bd:27:38:
                    66:7c:a0:1b:28:08:3c:6a:fd:f8:87:be:49:a2:ed:
                    38:f2:4c:b0:8b:93:ff:d2:c5:3f:cd:03:c5:14:79:
                    e8:76:63:7a:aa:a7:54:1e:0e:27:bd:1b:be:e8:3f:
                    2b:55:40:f0:59:23:d8:3f:e8:05:1a:0b:71:f0:fd:
                    24:d9:f9:0b:99:25:da:af:96:34:ee:e1:91:cb:fc:
                    8f:a0:41:8f:9c:e1:4f:57:5f:b6:d6:55:69:6f:c3:
                    64:c3:11:a9:69:40:85:df:f3:9a:59:b5:ee:90:c0:
                    22:ee:72:28:2e:d3:da:65:27:3b:ba:42:c0:9e:73:
                    ba:a2:f2:45:13:7a:c5:1d:30:a5:b7:db:75:5d:6f:
                    cc:08:77:80:67:8d:18:2a:ca:02:8d:8e:d3:9c:2a:
                    fa:b7:8f:1b:7d:ef:62:77:a4:fa:b6:d8:5a:3e:66:
                    9c:3e:13:45:a8:cf:61:fb:ff:41:45:14:21:e2:63:
                    ac:81:4d:65:89:e3:d5:71:20:01:19:76:ec:a4:16:
                    a6:ef:3c:bc:f2:a2:56:2b:07:31:67:0d:e5:97:88:
                    e8:db:cb:4d:98:cb:99:e6:e0:bd:62:48:2b:b1:04:
                    12:07
                Exponent: 65537 (0x10001)
        X509v3 extensions:
            X509v3 Subject Key Identifier: 
                9E:54:B6:95:EA:89:07:A6:C9:E4:82:E8:D0:34:64:5D:08:CD:56:A0
            X509v3 Authority Key Identifier: 
                keyid:D1:BA:FB:FF:1D:29:41:8A:6A:5F:B2:F3:A7:41:05:47:09:1F:48:42
                DirName:/C=US/ST=Washington/L=Seattle/O=wolfSSL Inc./OU=Engineering/CN=chainI-ICA3-pathlen2/emailAddress=info@wolfssl.com
                serial:64

            X509v3 Basic Constraints: 
                CA:TRUE
            X509v3 Key Usage: 
                Certificate Sign, CRL Sign
    Signature Algorithm: sha256WithRSAEncryption
         b3:b8:b9:c2:44:3a:36:0a:cf:fd:da:80:8c:81:54:c1:cd:a6:
         52:a8:60:b1:f8:fd:62:01:fc:d9:85:89:15:9a:df:45:f0:68:
         3e:bb:fe:f3:94:dc:1c:69:3c:7c:47:df:04:0c:7b:2f:4f:3f:
         56:58:9a:fa:1a:4c:16:21:cf:f2:21:a5:f9:d9:49:1b:69:b4:
         4d:df:d0:c2:d7:2c:fa:0f:23:d6:45:61:12:cd:2a:5a:06:db:
         22:6f:99:7a:a0:fc:17:ba:05:bc:02:79:db:f8:cd:ec:a0:98:
         7c:7f:6b:d6:ca:5c:cd:07:89:b6:0d:3e:0b:d3:d7:7f:7c:6b:
         73:7b:b9:28:69:d2:5f:27:1c:13:60:a0:50:23:16:00:d1:cb:
         7a:1d:62:7c:a1:c2:63:1d:c9:0b:0f:d7:5c:91:af:7a:5b:93:
         7e:e5:12:36:f0:3b:fa:59:7b:a8:88:f7:bf:11:19:4b:6a:81:
         61:77:54:61:a3:73:b6:54:64:92:49:22:c9:6a:19:73:33:6d:
         01:4c:5a:9c:0a:fa:ce:a1:34:50:b1:54:de:0b:7b:ce:fe:e0:
         00:fa:8e:7f:48:36:58:ed:98:42:ce:8d:a4:a0:67:c9:88:1c:
         7f:58:df:fb:62:0f:ee:4b:7d:5a:c7:52:2f:9f:2d:13:13:0b:
         72:bd:a0:2e
-----BEGIN CERTIFICATE-----
MIIE1DCCA7ygAwIBAgIBZDANBgkqhkiG9w0BAQsFADCBozELMAkGA1UEBhMCVVMx
EzARBgNVBAgMCldhc2hpbmd0b24xEDAOBgNVBAcMB1NlYXR0bGUxFTATBgNVBAoM
DHdvbGZTU0wgSW5jLjEUMBIGA1UECwwLRW5naW5lZXJpbmcxHzAdBgNVBAMMFmNo
YWluSS1JQ0EyLW5vX3BhdGhsZW4xHzAdBgkqhkiG9w0BCQEWEGluZm9Ad29sZnNz
bC5jb20wHhcNMTkxMDExMTgzMDMwWhcNMjIwNzA3MTgzMDMwWjCBozELMAkGA1UE
BhMCVVMxEzARBgNVBAgMCldhc2hpbmd0b24xEDAOBgNVBAcMB1NlYXR0bGUxFTAT
BgNVBAoMDHdvbGZTU0wgSW5jLjEUMBIGA1UECwwLRW5naW5lZXJpbmcxHzAdBgNV
BAMMFmNoYWluSS1JQ0ExLW5vX3BhdGhsZW4xHzAdBgkqhkiG9w0BCQEWEGluZm9A
d29sZnNzbC5jb20wggEiMA0GCSqGSIb3DQEBAQUAA4IBDwAwggEKAoIBAQC7ugat
E8/a+9HLZf4mWElqARSmeLIsHbq60L0nOGZ8oBsoCDxq/fiHvkmi7TjyTLCLk//S
xT/NA8UUeeh2Y3qqp1QeDie9G77oPytVQPBZI9g/6AUaC3Hw/STZ+QuZJdqvljTu
4ZHL/I+gQY+c4U9XX7bWVWlvw2TDEalpQIXf85pZte6QwCLucigu09plJzu6QsCe
c7qi8kUTesUdMKW323Vdb8wId4BnjRgqygKNjtOcKvq3jxt972J3pPq22Fo+Zpw+
E0Woz2H7/0FFFCHiY6yBTWWJ49VxIAEZduykFqbvPLzyolYrBzFnDeWXiOjby02Y
y5nm4L1iSCuxBBIHAgMBAAGjggEPMIIBCzAdBgNVHQ4EFgQUnlS2leqJB6bJ5ILo
0DRkXQjNVqAwgc4GA1UdIwSBxjCBw4AU0br7/x0pQYpqX7Lzp0EFRwkfSEKhgaek
gaQwgaExCzAJBgNVBAYTAlVTMRMwEQYDVQQIDApXYXNoaW5ndG9uMRAwDgYDVQQH
DAdTZWF0dGxlMRUwEwYDVQQKDAx3b2xmU1NMIEluYy4xFDASBgNVBAsMC0VuZ2lu
ZWVyaW5nMR0wGwYDVQQDDBRjaGFpbkktSUNBMy1wYXRobGVuMjEfMB0GCSqGSIb3
DQEJARYQaW5mb0B3b2xmc3NsLmNvbYIBZDAMBgNVHRMEBTADAQH/MAsGA1UdDwQE
AwIBBjANBgkqhkiG9w0BAQsFAAOCAQEAs7i5wkQ6NgrP/dqAjIFUwc2mUqhgsfj9
YgH82YWJFZrfRfBoPrv+85TcHGk8fEffBAx7L08/Vlia+hpMFiHP8iGl+dlJG2m0
Td/Qwtcs+g8j1kVhEs0qWgbbIm+ZeqD8F7oFvAJ52/jN7KCYfH9r1spczQeJtg0+
C9PXf3xrc3u5KGnSXyccE2CgUCMWANHLeh1ifKHCYx3JCw/XXJGveluTfuUSNvA7
+ll7qIj3vxEZS2qBYXdUYaNztlRkkkkiyWoZczNtAUxanAr6zqE0ULFU3gt7zv7g
APqOf0g2WO2YQs6NpKBnyYgcf1jf+2IP7kt9WsdSL58tExMLcr2gLg==
-----END CERTIFICATE-----
