Certificate:
    Data:
        Version: 3 (0x2)
        Serial Number: 100 (0x64)
        Signature Algorithm: sha256WithRSAEncryption
        Issuer: C = US, ST = Washington, L = Seattle, O = wolfSSL Inc., OU = Engineering, CN = chainJ-ICA3-no_pathlen, emailAddress = info@wolfssl.com
        Validity
            Not Before: Oct 11 18:30:30 2019 GMT
            Not After : Jul  7 18:30:30 2022 GMT
        Subject: C = US, ST = Washington, L = Seattle, O = wolfSSL Inc., OU = Engineering, CN = chainJ-ICA2-no_pathlen, emailAddress = info@wolfssl.com
        Subject Public Key Info:
            Public Key Algorithm: rsaEncryption
                RSA Public-Key: (2048 bit)
                Modulus:
                    00:bb:29:fd:89:aa:82:e0:1d:04:78:69:ec:61:58:
                    51:52:84:7e:6b:55:69:2c:f4:23:d6:1f:d8:ed:ab:
                    19:96:38:7b:c6:88:d7:7d:85:93:00:35:40:0b:c0:
                    a9:ff:66:0f:9e:a1:1d:88:6e:a9:8a:f1:ad:47:b4:
                    71:c9:15:50:c6:0f:35:9e:95:4a:66:d3:bd:1b:38:
                    7b:dc:67:85:97:1b:b3:63:c9:72:d6:43:5a:f1:5e:
                    35:f6:05:96:c7:40:bc:23:ab:94:34:82:59:02:b2:
                    33:d0:e6:7f:19:57:65:68:3c:04:61:50:ef:22:95:
                    4f:ef:18:bf:15:b1:4d:8e:cd:a7:a0:98:22:f5:1c:
                    05:01:6b:4b:35:bf:88:c3:47:c3:24:29:b4:45:cb:
                    95:a1:ac:16:1d:dd:b8:68:ac:51:39:24:27:6a:be:
                    31:f1:ec:06:10:55:be:44:02:4f:e8:12:7b:d6:fe:
                    32:c9:48:37:6b:20:68:cb:53:f5:49:3a:ae:4a:c7:
                    43:c1:af:e6:53:11:d9:f8:71:1a:a2:d6:37:c7:2b:
                    45:50:49:51:4f:55:6c:3f:1e:69:7b:58:12:3a:7e:
                    59:a0:57:9d:28:9c:8a:6d:82:e7:13:15:3b:04:8f:
                    e2:82:0f:2f:cf:d9:25:d9:65:a3:3c:03:c0:cd:b6:
                    51:d5
                Exponent: 65537 (0x10001)
        X509v3 extensions:
            X509v3 Subject Key Identifier: 
                A3:F5:71:8A:60:80:3C:93:64:17:D9:2E:B5:C0:CE:A9:C1:14:17:C4
            X509v3 Authority Key Identifier: 
                keyid:CD:97:49:78:F7:31:61:ED:2F:71:1A:68:E9:45:2C:40:78:51:93:5B
                DirName:/C=US/ST=Washington/L=Seattle/O=wolfSSL Inc./OU=Engineering/CN=chainJ-ICA4-pathlen2/emailAddress=info@wolfssl.com
                serial:64

            X509v3 Basic Constraints: 
                CA:TRUE
            X509v3 Key Usage: 
                Certificate Sign, CRL Sign
    Signature Algorithm: sha256WithRSAEncryption
         5b:56:cd:5e:fc:3a:fb:2b:be:7c:63:ad:a7:7b:e4:9a:00:78:
         cb:d8:e6:00:41:3d:3d:e3:f6:43:78:75:d7:c9:07:61:0c:2b:
         43:46:8f:12:a3:5a:f0:3d:22:f4:72:ea:27:1a:70:57:48:c5:
         ec:7d:00:dd:5d:83:a6:71:f7:90:ec:69:bd:2e:86:97:06:dc:
         9c:be:4e:a8:4c:9f:db:93:5e:fd:d8:ba:ae:89:55:65:16:cf:
         ab:a5:a4:4e:ae:21:ce:5e:e0:91:e1:77:de:e3:b4:3d:ba:d2:
         12:f3:54:c0:50:94:16:e5:b2:62:71:58:03:2c:d1:f4:1f:ce:
         9d:a5:ce:2a:57:9f:f7:19:41:b0:4d:e8:27:5d:f2:e6:c8:44:
         1b:c3:57:51:76:d4:15:1a:05:31:61:c3:02:db:56:81:1e:24:
         f2:23:04:a9:5a:31:ee:08:1d:08:1f:49:d7:2c:ba:1e:00:5a:
         e5:57:8b:fd:aa:a4:2f:6a:d7:93:19:09:92:30:7d:95:68:3b:
         b7:ce:a3:f2:b9:e4:e4:e4:48:a4:22:6b:00:33:91:56:28:fc:
         50:f7:1d:f6:70:5b:83:a8:99:98:2d:7a:6c:aa:9b:5a:a5:56:
         5b:89:95:a8:50:27:68:ce:63:5e:d3:84:cb:80:1b:ae:3e:a2:
         5c:13:9b:ff
-----BEGIN CERTIFICATE-----
MIIE1DCCA7ygAwIBAgIBZDANBgkqhkiG9w0BAQsFADCBozELMAkGA1UEBhMCVVMx
EzARBgNVBAgMCldhc2hpbmd0b24xEDAOBgNVBAcMB1NlYXR0bGUxFTATBgNVBAoM
DHdvbGZTU0wgSW5jLjEUMBIGA1UECwwLRW5naW5lZXJpbmcxHzAdBgNVBAMMFmNo
YWluSi1JQ0EzLW5vX3BhdGhsZW4xHzAdBgkqhkiG9w0BCQEWEGluZm9Ad29sZnNz
bC5jb20wHhcNMTkxMDExMTgzMDMwWhcNMjIwNzA3MTgzMDMwWjCBozELMAkGA1UE
BhMCVVMxEzARBgNVBAgMCldhc2hpbmd0b24xEDAOBgNVBAcMB1NlYXR0bGUxFTAT
BgNVBAoMDHdvbGZTU0wgSW5jLjEUMBIGA1UECwwLRW5naW5lZXJpbmcxHzAdBgNV
BAMMFmNoYWluSi1JQ0EyLW5vX3BhdGhsZW4xHzAdBgkqhkiG9w0BCQEWEGluZm9A
d29sZnNzbC5jb20wggEiMA0GCSqGSIb3DQEBAQUAA4IBDwAwggEKAoIBAQC7Kf2J
qoLgHQR4aexhWFFShH5rVWks9CPWH9jtqxmWOHvGiNd9hZMANUALwKn/Zg+eoR2I
bqmK8a1HtHHJFVDGDzWelUpm070bOHvcZ4WXG7NjyXLWQ1rxXjX2BZbHQLwjq5Q0
glkCsjPQ5n8ZV2VoPARhUO8ilU/vGL8VsU2OzaegmCL1HAUBa0s1v4jDR8MkKbRF
y5WhrBYd3bhorFE5JCdqvjHx7AYQVb5EAk/oEnvW/jLJSDdrIGjLU/VJOq5Kx0PB
r+ZTEdn4cRqi1jfHK0VQSVFPVWw/Hml7WBI6flmgV50onIptgucTFTsEj+KCDy/P
2SXZZaM8A8DNtlHVAgMBAAGjggEPMIIBCzAdBgNVHQ4EFgQUo/VximCAPJNkF9ku
tcDOqcEUF8Qwgc4GA1UdIwSBxjCBw4AUzZdJePcxYe0vcRpo6UUsQHhRk1uhgaek
gaQwgaExCzAJBgNVBAYTAlVTMRMwEQYDVQQIDApXYXNoaW5ndG9uMRAwDgYDVQQH
DAdTZWF0dGxlMRUwEwYDVQQKDAx3b2xmU1NMIEluYy4xFDASBgNVBAsMC0VuZ2lu
ZWVyaW5nMR0wGwYDVQQDDBRjaGFpbkotSUNBNC1wYXRobGVuMjEfMB0GCSqGSIb3
DQEJARYQaW5mb0B3b2xmc3NsLmNvbYIBZDAMBgNVHRMEBTADAQH/MAsGA1UdDwQE
AwIBBjANBgkqhkiG9w0BAQsFAAOCAQEAW1bNXvw6+yu+fGOtp3vkmgB4y9jmAEE9
PeP2Q3h118kHYQwrQ0aPEqNa8D0i9HLqJxpwV0jF7H0A3V2DpnH3kOxpvS6Glwbc
nL5OqEyf25Ne/di6rolVZRbPq6WkTq4hzl7gkeF33uO0PbrSEvNUwFCUFuWyYnFY
AyzR9B/OnaXOKlef9xlBsE3oJ13y5shEG8NXUXbUFRoFMWHDAttWgR4k8iMEqVox
7ggdCB9J1yy6HgBa5VeL/aqkL2rXkxkJkjB9lWg7t86j8rnk5ORIpCJrADORVij8
UPcd9nBbg6iZmC16bKqbWqVWW4mVqFAnaM5jXtOEy4Abrj6iXBOb/w==
-----END CERTIFICATE-----
