Certificate:
    Data:
        Version: 3 (0x2)
        Serial Number: 100 (0x64)
        Signature Algorithm: sha256WithRSAEncryption
        Issuer: C = US, ST = Montana, L = Bozeman, O = Sawtooth, OU = Consulting, CN = www.wolfssl.com, emailAddress = info@wolfssl.com
        Validity
            Not Before: Oct 11 00:28:09 2019 GMT
            Not After : Jul  7 00:28:09 2022 GMT
        Subject: C = US, ST = Washington, L = Seattle, O = wolfSSL Inc., OU = Engineering, CN = chainH-ICA4-pathlen2, emailAddress = info@wolfssl.com
        Subject Public Key Info:
            Public Key Algorithm: rsaEncryption
                RSA Public-Key: (2048 bit)
                Modulus:
                    00:bb:f3:2f:8a:cd:9e:87:f1:01:f3:a4:c0:2d:66:
                    36:d7:11:2e:64:08:e8:f1:99:fa:a6:9c:f4:bd:3b:
                    47:72:d2:0e:58:9d:3e:52:e7:da:a3:43:78:c3:c3:
                    93:e6:04:d3:ab:51:8a:1a:24:0e:7a:62:59:aa:c6:
                    42:9e:66:c1:61:5e:31:b1:4d:dc:37:a9:18:76:8d:
                    fe:cb:09:54:3f:4f:bb:5f:ab:ba:70:e9:b4:a1:5e:
                    a0:69:7e:45:3f:c0:cc:78:e9:f2:74:64:79:c2:6a:
                    16:d0:98:30:82:44:4a:b3:99:2c:66:30:ac:99:82:
                    04:2a:bf:0f:60:89:04:36:fa:29:d3:08:56:61:6a:
                    a8:33:40:9a:53:7d:20:a8:51:6f:9b:a0:d9:3e:dc:
                    9a:8b:1d:37:9e:ad:c9:fd:53:a7:04:dc:1f:36:3e:
                    d3:65:52:84:24:61:d0:4e:e2:41:60:bf:fb:fd:b2:
                    04:b3:3f:eb:14:99:5e:bc:e8:7d:e9:65:d1:3f:fe:
                    04:49:e5:bb:a3:2d:e3:db:96:df:d9:81:a0:32:d7:
                    01:b9:b8:02:8e:b9:a2:1f:0a:d4:24:17:3a:19:0f:
                    6d:3a:10:5f:5c:7d:b8:56:82:c7:7f:40:f0:2d:87:
                    63:c1:b1:d8:64:c7:3c:27:13:4a:63:82:21:b1:f2:
                    39:e9
                Exponent: 65537 (0x10001)
        X509v3 extensions:
            X509v3 Subject Key Identifier: 
                18:6D:44:83:EE:1F:EC:B4:22:F0:9C:EB:54:1E:4A:15:58:01:AA:13
            X509v3 Authority Key Identifier: 
                keyid:27:8E:67:11:74:C3:26:1D:3F:ED:33:63:B3:A4:D8:1D:30:E5:E8:D5
                DirName:/C=US/ST=Montana/L=Bozeman/O=Sawtooth/OU=Consulting/CN=www.wolfssl.com/emailAddress=info@wolfssl.com
                serial:86:FF:F5:8E:10:DE:B8:FB

            X509v3 Basic Constraints: 
                CA:TRUE, pathlen:2
            X509v3 Key Usage: 
                Certificate Sign, CRL Sign
    Signature Algorithm: sha256WithRSAEncryption
         61:c0:d8:c4:02:cd:b4:54:d3:44:e9:06:78:0b:a2:16:b5:4a:
         b6:b5:09:f1:d1:fc:9f:be:e5:12:0b:6c:61:8d:66:3f:ce:8f:
         95:98:24:ea:d2:99:3a:4f:89:e3:2d:a9:f7:69:cb:05:9e:90:
         af:5a:f1:93:ac:ee:fe:78:f8:e3:22:fa:69:7f:e4:71:1d:c9:
         1e:ac:61:81:8d:93:33:bc:b2:e4:67:75:97:9d:af:0a:db:ab:
         24:3f:8d:1d:16:c6:05:c6:89:a7:5f:cf:2d:73:39:de:8f:40:
         94:4b:7a:a4:ea:35:1e:70:ce:3a:f5:75:76:e5:ab:e4:8a:9a:
         a4:a1:ec:49:59:3d:b7:23:fa:3c:af:dd:09:d7:aa:47:60:11:
         07:07:f4:8b:a1:40:b2:d9:bb:0f:88:b8:d1:a5:e2:88:22:76:
         8b:45:d6:96:2c:45:11:98:04:85:22:99:1f:49:a7:30:b0:b0:
         74:c3:ea:1a:a6:53:ed:c9:48:40:1a:d8:02:a8:fb:35:3a:f7:
         69:42:b2:75:dd:98:41:30:a9:e3:b1:ec:c6:66:f1:61:16:5b:
         f6:e3:bc:31:8e:46:66:fa:39:34:66:cc:95:1d:69:15:12:41:
         16:ce:e6:a6:d4:4c:eb:f4:99:b4:6d:66:99:76:ae:5a:e8:24:
         92:a7:ef:45
-----BEGIN CERTIFICATE-----
MIIEwTCCA6mgAwIBAgIBZDANBgkqhkiG9w0BAQsFADCBlDELMAkGA1UEBhMCVVMx
EDAOBgNVBAgMB01vbnRhbmExEDAOBgNVBAcMB0JvemVtYW4xETAPBgNVBAoMCFNh
d3Rvb3RoMRMwEQYDVQQLDApDb25zdWx0aW5nMRgwFgYDVQQDDA93d3cud29sZnNz
bC5jb20xHzAdBgkqhkiG9w0BCQEWEGluZm9Ad29sZnNzbC5jb20wHhcNMTkxMDEx
MDAyODA5WhcNMjIwNzA3MDAyODA5WjCBoTELMAkGA1UEBhMCVVMxEzARBgNVBAgM
Cldhc2hpbmd0b24xEDAOBgNVBAcMB1NlYXR0bGUxFTATBgNVBAoMDHdvbGZTU0wg
SW5jLjEUMBIGA1UECwwLRW5naW5lZXJpbmcxHTAbBgNVBAMMFGNoYWluSC1JQ0E0
LXBhdGhsZW4yMR8wHQYJKoZIhvcNAQkBFhBpbmZvQHdvbGZzc2wuY29tMIIBIjAN
BgkqhkiG9w0BAQEFAAOCAQ8AMIIBCgKCAQEAu/Mvis2eh/EB86TALWY21xEuZAjo
8Zn6ppz0vTtHctIOWJ0+Uufao0N4w8OT5gTTq1GKGiQOemJZqsZCnmbBYV4xsU3c
N6kYdo3+ywlUP0+7X6u6cOm0oV6gaX5FP8DMeOnydGR5wmoW0JgwgkRKs5ksZjCs
mYIEKr8PYIkENvop0whWYWqoM0CaU30gqFFvm6DZPtyaix03nq3J/VOnBNwfNj7T
ZVKEJGHQTuJBYL/7/bIEsz/rFJlevOh96WXRP/4ESeW7oy3j25bf2YGgMtcBubgC
jrmiHwrUJBc6GQ9tOhBfXH24VoLHf0DwLYdjwbHYZMc8JxNKY4IhsfI56QIDAQAB
o4IBDTCCAQkwHQYDVR0OBBYEFBhtRIPuH+y0IvCc61QeShVYAaoTMIHJBgNVHSME
gcEwgb6AFCeOZxF0wyYdP+0zY7Ok2B0w5ejVoYGapIGXMIGUMQswCQYDVQQGEwJV
UzEQMA4GA1UECAwHTW9udGFuYTEQMA4GA1UEBwwHQm96ZW1hbjERMA8GA1UECgwI
U2F3dG9vdGgxEzARBgNVBAsMCkNvbnN1bHRpbmcxGDAWBgNVBAMMD3d3dy53b2xm
c3NsLmNvbTEfMB0GCSqGSIb3DQEJARYQaW5mb0B3b2xmc3NsLmNvbYIJAIb/9Y4Q
3rj7MA8GA1UdEwQIMAYBAf8CAQIwCwYDVR0PBAQDAgEGMA0GCSqGSIb3DQEBCwUA
A4IBAQBhwNjEAs20VNNE6QZ4C6IWtUq2tQnx0fyfvuUSC2xhjWY/zo+VmCTq0pk6
T4njLan3acsFnpCvWvGTrO7+ePjjIvppf+RxHckerGGBjZMzvLLkZ3WXna8K26sk
P40dFsYFxomnX88tcznej0CUS3qk6jUecM469XV25avkipqkoexJWT23I/o8r90J
16pHYBEHB/SLoUCy2bsPiLjRpeKIInaLRdaWLEURmASFIpkfSacwsLB0w+oaplPt
yUhAGtgCqPs1OvdpQrJ13ZhBMKnjsezGZvFhFlv247wxjkZm+jk0ZsyVHWkVEkEW
zuam1Ezr9Jm0bWaZdq5a6CSSp+9F
-----END CERTIFICATE-----
