Certificate:
    Data:
        Version: 3 (0x2)
        Serial Number: 101 (0x65)
        Signature Algorithm: sha256WithRSAEncryption
        Issuer: C = US, ST = Washington, L = Seattle, O = wolfSSL Inc., OU = Engineering, CN = chainJ-ICA1-no_pathlen, emailAddress = info@wolfssl.com
        Validity
            Not Before: Oct 11 18:30:30 2019 GMT
            Not After : Jul  7 18:30:30 2022 GMT
        Subject: C = US, ST = Washington, L = Seattle, O = wolfSSL Inc., OU = Engineering, CN = chainJ-entity, emailAddress = info@wolfssl.com
        Subject Public Key Info:
            Public Key Algorithm: rsaEncryption
                RSA Public-Key: (2048 bit)
                Modulus:
                    00:b3:fb:51:a0:ac:69:8b:35:06:bf:7a:ee:b4:a1:
                    8a:7e:ae:31:75:ad:e7:45:7b:e6:d9:bb:7c:e9:73:
                    0e:de:cf:05:74:df:37:a4:37:33:a6:6f:59:06:c8:
                    9f:19:35:c3:94:f7:05:ba:52:eb:3e:92:29:61:48:
                    88:fa:6d:42:b4:30:de:ce:df:94:ed:92:88:60:c8:
                    55:36:50:ee:36:b5:ed:35:6f:95:01:f4:88:4b:7b:
                    3e:fe:b5:9c:64:c0:72:be:8c:74:6a:8c:f5:e4:65:
                    66:87:52:9d:7b:b0:20:f6:d8:c3:de:76:b9:70:7c:
                    01:82:6e:fc:fa:1b:e7:c4:c1:5f:38:ce:50:dc:3a:
                    22:87:bc:19:9a:45:d5:8a:7a:93:f9:78:59:c7:0a:
                    f9:8f:eb:c3:79:eb:b5:ee:36:f0:5e:5d:2f:8f:46:
                    e8:63:c2:31:82:fc:fb:5d:8c:ca:01:b1:bb:72:2b:
                    e7:2f:82:3c:a6:24:a6:3f:58:7e:69:5b:4a:00:b4:
                    25:b3:b3:c3:b3:b0:c2:3f:a3:d7:ee:04:12:1d:ab:
                    0b:bb:02:b0:6c:0b:36:64:56:a9:5d:37:e5:0a:28:
                    44:5e:15:e4:f5:ab:73:98:0a:b3:28:90:1d:30:f2:
                    8c:e7:db:13:6a:0f:b4:cb:8d:06:15:86:ce:35:12:
                    e3:a9
                Exponent: 65537 (0x10001)
        X509v3 extensions:
            X509v3 Subject Key Identifier: 
                13:92:E0:30:5E:36:4F:BF:D5:E3:0D:5D:40:0B:64:95:EC:8E:77:4E
            X509v3 Authority Key Identifier: 
                keyid:9C:7B:3A:10:B3:08:99:05:00:AF:3E:E0:A4:5D:D9:AF:82:BC:4D:C0
                DirName:/C=US/ST=Washington/L=Seattle/O=wolfSSL Inc./OU=Engineering/CN=chainJ-ICA2-no_pathlen/emailAddress=info@wolfssl.com
                serial:64

            X509v3 Basic Constraints: 
                CA:FALSE
    Signature Algorithm: sha256WithRSAEncryption
         10:a0:e0:ea:4b:df:4c:5b:92:da:6b:13:5a:4b:e9:46:1a:17:
         48:42:5e:08:c8:28:e4:ce:69:46:25:55:70:57:bd:4e:b2:0b:
         a4:75:22:b6:5b:d7:e0:54:3f:31:14:99:09:c1:3b:6f:b7:59:
         5a:52:67:46:0c:4f:ec:fa:31:4a:6e:59:04:50:99:60:1e:74:
         ed:3a:ac:4d:cd:98:31:4d:b1:54:07:3e:76:bb:92:e2:1d:53:
         65:08:38:e3:4d:b0:d8:74:14:5f:00:94:e7:d2:c9:9d:80:23:
         f5:9e:3d:8c:22:72:b3:20:5a:01:a3:02:f2:9c:cc:b8:1d:73:
         db:eb:cc:cb:27:4f:75:17:1d:23:68:07:4f:15:be:00:cc:a9:
         2a:14:82:2c:0e:e3:92:40:dc:62:ac:d9:61:24:99:19:43:d5:
         3e:85:ca:e5:6d:e1:76:9a:4e:01:ef:34:98:7a:1b:ca:8b:c3:
         de:99:22:75:28:11:0c:17:7a:58:7b:44:33:22:58:61:24:8c:
         96:a5:a7:63:19:31:6d:61:83:1c:5f:50:66:48:29:b4:2d:8e:
         5e:f3:63:85:e8:9c:d8:6e:93:4a:4d:ff:b1:d5:60:96:d0:9f:
         4e:3f:6f:c9:b4:e1:04:b8:ef:55:c2:77:c1:e1:50:d0:a7:b8:
         9d:a3:81:71
-----BEGIN CERTIFICATE-----
MIIEvDCCA6SgAwIBAgIBZTANBgkqhkiG9w0BAQsFADCBozELMAkGA1UEBhMCVVMx
EzARBgNVBAgMCldhc2hpbmd0b24xEDAOBgNVBAcMB1NlYXR0bGUxFTATBgNVBAoM
DHdvbGZTU0wgSW5jLjEUMBIGA1UECwwLRW5naW5lZXJpbmcxHzAdBgNVBAMMFmNo
YWluSi1JQ0ExLW5vX3BhdGhsZW4xHzAdBgkqhkiG9w0BCQEWEGluZm9Ad29sZnNz
bC5jb20wHhcNMTkxMDExMTgzMDMwWhcNMjIwNzA3MTgzMDMwWjCBmjELMAkGA1UE
BhMCVVMxEzARBgNVBAgMCldhc2hpbmd0b24xEDAOBgNVBAcMB1NlYXR0bGUxFTAT
BgNVBAoMDHdvbGZTU0wgSW5jLjEUMBIGA1UECwwLRW5naW5lZXJpbmcxFjAUBgNV
BAMMDWNoYWluSi1lbnRpdHkxHzAdBgkqhkiG9w0BCQEWEGluZm9Ad29sZnNzbC5j
b20wggEiMA0GCSqGSIb3DQEBAQUAA4IBDwAwggEKAoIBAQCz+1GgrGmLNQa/eu60
oYp+rjF1redFe+bZu3zpcw7ezwV03zekNzOmb1kGyJ8ZNcOU9wW6Uus+kilhSIj6
bUK0MN7O35TtkohgyFU2UO42te01b5UB9IhLez7+tZxkwHK+jHRqjPXkZWaHUp17
sCD22MPedrlwfAGCbvz6G+fEwV84zlDcOiKHvBmaRdWKepP5eFnHCvmP68N567Xu
NvBeXS+PRuhjwjGC/PtdjMoBsbtyK+cvgjymJKY/WH5pW0oAtCWzs8OzsMI/o9fu
BBIdqwu7ArBsCzZkVqldN+UKKEReFeT1q3OYCrMokB0w8ozn2xNqD7TLjQYVhs41
EuOpAgMBAAGjggEAMIH9MB0GA1UdDgQWBBQTkuAwXjZPv9XjDV1AC2SV7I53TjCB
0AYDVR0jBIHIMIHFgBScezoQswiZBQCvPuCkXdmvgrxNwKGBqaSBpjCBozELMAkG
A1UEBhMCVVMxEzARBgNVBAgMCldhc2hpbmd0b24xEDAOBgNVBAcMB1NlYXR0bGUx
FTATBgNVBAoMDHdvbGZTU0wgSW5jLjEUMBIGA1UECwwLRW5naW5lZXJpbmcxHzAd
BgNVBAMMFmNoYWluSi1JQ0EyLW5vX3BhdGhsZW4xHzAdBgkqhkiG9w0BCQEWEGlu
Zm9Ad29sZnNzbC5jb22CAWQwCQYDVR0TBAIwADANBgkqhkiG9w0BAQsFAAOCAQEA
EKDg6kvfTFuS2msTWkvpRhoXSEJeCMgo5M5pRiVVcFe9TrILpHUitlvX4FQ/MRSZ
CcE7b7dZWlJnRgxP7PoxSm5ZBFCZYB507TqsTc2YMU2xVAc+druS4h1TZQg4402w
2HQUXwCU59LJnYAj9Z49jCJysyBaAaMC8pzMuB1z2+vMyydPdRcdI2gHTxW+AMyp
KhSCLA7jkkDcYqzZYSSZGUPVPoXK5W3hdppOAe80mHobyovD3pkidSgRDBd6WHtE
MyJYYSSMlqWnYxkxbWGDHF9QZkgptC2OXvNjheic2G6TSk3/sdVgltCfTj9vybTh
BLjvVcJ3weFQ0Ke4naOBcQ==
-----END CERTIFICATE-----
