Certificate:
    Data:
        Version: 3 (0x2)
        Serial Number: 100 (0x64)
        Signature Algorithm: sha256WithRSAEncryption
        Issuer: C = US, ST = Washington, L = Seattle, O = wolfSSL Inc., OU = Engineering, CN = chainG-ICA7-pathlen100, emailAddress = info@wolfssl.com
        Validity
            Not Before: Oct 11 00:28:09 2019 GMT
            Not After : Jul  7 00:28:09 2022 GMT
        Subject: C = US, ST = Washington, L = Seattle, O = wolfSSL Inc., OU = Engineering, CN = chainG-ICA6-pathlen10, emailAddress = info@wolfssl.com
        Subject Public Key Info:
            Public Key Algorithm: rsaEncryption
                RSA Public-Key: (2048 bit)
                Modulus:
                    00:e1:4f:c9:e7:30:ea:06:ff:65:cb:2b:6c:f1:a8:
                    ac:f6:cf:10:6b:80:7a:af:5e:42:0a:0d:61:be:6f:
                    14:3c:9f:64:6e:96:46:77:e2:64:a0:0e:d7:56:41:
                    fc:5b:e6:fe:49:86:1f:8f:20:cc:4b:ec:3a:f1:46:
                    74:1a:7e:33:d9:aa:d5:e2:78:09:dd:0c:39:20:7e:
                    32:12:96:cd:96:db:10:01:e8:b7:aa:e3:e1:27:5d:
                    0a:8f:99:6e:ef:2d:d8:c8:c8:76:aa:d9:00:9d:48:
                    d9:cf:12:08:97:31:59:c0:4f:a3:e0:ee:5c:a1:35:
                    ef:94:7c:c6:04:aa:3e:34:a6:43:e0:c8:ed:3d:91:
                    53:53:9e:19:03:8e:bf:30:fd:d9:b5:4b:f3:51:0b:
                    60:ed:27:e2:b1:dd:15:3c:b0:5f:25:0f:29:9b:5f:
                    aa:31:64:5e:3d:83:2e:b8:20:66:b9:da:a7:b5:22:
                    40:19:3d:24:5d:c3:e7:dd:b6:6b:16:c3:67:23:5d:
                    31:65:3b:cb:72:d1:a7:c8:b0:e0:b9:a2:cb:90:86:
                    30:d6:ce:7f:9c:b3:b1:c3:34:62:63:c6:b9:66:33:
                    6b:5b:a6:00:bb:45:ee:03:07:96:a5:d7:2f:1e:f1:
                    d2:f2:5e:c2:d2:a1:36:25:f0:7a:70:cb:3d:1d:a4:
                    6f:61
                Exponent: 65537 (0x10001)
        X509v3 extensions:
            X509v3 Subject Key Identifier: 
                14:07:E8:A7:3A:A2:9C:DD:4C:30:B0:4D:F0:00:C4:88:C4:39:DF:73
            X509v3 Authority Key Identifier: 
                keyid:12:E4:A4:19:85:AE:85:B7:D6:EB:63:04:D5:B9:B0:7E:57:5F:0C:16
                DirName:/C=US/ST=Montana/L=Bozeman/O=Sawtooth/OU=Consulting/CN=www.wolfssl.com/emailAddress=info@wolfssl.com
                serial:64

            X509v3 Basic Constraints: 
                CA:TRUE, pathlen:10
            X509v3 Key Usage: 
                Certificate Sign, CRL Sign
    Signature Algorithm: sha256WithRSAEncryption
         70:24:57:3f:1a:0c:94:f9:64:14:2e:20:81:bf:02:ba:bb:a5:
         21:02:2b:c0:09:0b:9e:8a:e3:c8:b2:39:4d:05:c1:34:62:44:
         62:5c:d5:ae:0f:17:cf:c0:ab:71:f8:5c:d5:74:8d:3d:eb:90:
         d5:d6:a5:97:b8:c1:ab:d7:9c:e7:ca:4f:ee:8f:f2:5d:c7:81:
         22:fc:2e:b0:2d:f2:ff:e3:1a:c5:85:31:21:49:3f:38:f9:5b:
         55:e6:f3:f8:5c:63:fc:9a:c8:76:f0:3d:87:d2:fb:06:6d:5e:
         f4:f4:e9:8c:3a:99:7b:1c:8f:29:fb:f6:c3:0c:23:9a:2c:1e:
         f4:97:4f:b8:48:37:33:b4:aa:15:a6:5a:75:09:e9:c4:d5:44:
         c6:e8:4e:a2:f0:70:a8:9f:10:91:56:55:59:f4:4a:b6:36:4a:
         fc:b9:3a:60:01:e6:6e:61:58:f3:b0:ac:cd:02:38:97:bd:eb:
         d3:6b:9e:b5:a6:58:ee:ce:86:c2:1b:cf:12:b3:1b:78:00:df:
         5f:da:77:5d:9c:8e:a5:ca:f1:77:87:c1:ed:ad:fd:cf:ea:05:
         53:f9:7e:34:e7:95:23:de:36:36:65:59:08:76:11:6f:d9:6e:
         55:17:af:33:1f:9e:0b:fe:fb:53:5c:67:1a:4d:8a:83:7f:5b:
         ca:ff:e4:94
-----BEGIN CERTIFICATE-----
MIIEyTCCA7GgAwIBAgIBZDANBgkqhkiG9w0BAQsFADCBozELMAkGA1UEBhMCVVMx
EzARBgNVBAgMCldhc2hpbmd0b24xEDAOBgNVBAcMB1NlYXR0bGUxFTATBgNVBAoM
DHdvbGZTU0wgSW5jLjEUMBIGA1UECwwLRW5naW5lZXJpbmcxHzAdBgNVBAMMFmNo
YWluRy1JQ0E3LXBhdGhsZW4xMDAxHzAdBgkqhkiG9w0BCQEWEGluZm9Ad29sZnNz
bC5jb20wHhcNMTkxMDExMDAyODA5WhcNMjIwNzA3MDAyODA5WjCBojELMAkGA1UE
BhMCVVMxEzARBgNVBAgMCldhc2hpbmd0b24xEDAOBgNVBAcMB1NlYXR0bGUxFTAT
BgNVBAoMDHdvbGZTU0wgSW5jLjEUMBIGA1UECwwLRW5naW5lZXJpbmcxHjAcBgNV
BAMMFWNoYWluRy1JQ0E2LXBhdGhsZW4xMDEfMB0GCSqGSIb3DQEJARYQaW5mb0B3
b2xmc3NsLmNvbTCCASIwDQYJKoZIhvcNAQEBBQADggEPADCCAQoCggEBAOFPyecw
6gb/ZcsrbPGorPbPEGuAeq9eQgoNYb5vFDyfZG6WRnfiZKAO11ZB/Fvm/kmGH48g
zEvsOvFGdBp+M9mq1eJ4Cd0MOSB+MhKWzZbbEAHot6rj4SddCo+Zbu8t2MjIdqrZ
AJ1I2c8SCJcxWcBPo+DuXKE175R8xgSqPjSmQ+DI7T2RU1OeGQOOvzD92bVL81EL
YO0n4rHdFTywXyUPKZtfqjFkXj2DLrggZrnap7UiQBk9JF3D5922axbDZyNdMWU7
y3LRp8iw4Lmiy5CGMNbOf5yzscM0YmPGuWYza1umALtF7gMHlqXXLx7x0vJewtKh
NiXwenDLPR2kb2ECAwEAAaOCAQUwggEBMB0GA1UdDgQWBBQUB+inOqKc3UwwsE3w
AMSIxDnfczCBwQYDVR0jBIG5MIG2gBQS5KQZha6Ft9brYwTVubB+V18MFqGBmqSB
lzCBlDELMAkGA1UEBhMCVVMxEDAOBgNVBAgMB01vbnRhbmExEDAOBgNVBAcMB0Jv
emVtYW4xETAPBgNVBAoMCFNhd3Rvb3RoMRMwEQYDVQQLDApDb25zdWx0aW5nMRgw
FgYDVQQDDA93d3cud29sZnNzbC5jb20xHzAdBgkqhkiG9w0BCQEWEGluZm9Ad29s
ZnNzbC5jb22CAWQwDwYDVR0TBAgwBgEB/wIBCjALBgNVHQ8EBAMCAQYwDQYJKoZI
hvcNAQELBQADggEBAHAkVz8aDJT5ZBQuIIG/Arq7pSECK8AJC56K48iyOU0FwTRi
RGJc1a4PF8/Aq3H4XNV0jT3rkNXWpZe4wavXnOfKT+6P8l3HgSL8LrAt8v/jGsWF
MSFJPzj5W1Xm8/hcY/yayHbwPYfS+wZtXvT06Yw6mXscjyn79sMMI5osHvSXT7hI
NzO0qhWmWnUJ6cTVRMboTqLwcKifEJFWVVn0SrY2Svy5OmAB5m5hWPOwrM0COJe9
69NrnrWmWO7OhsIbzxKzG3gA31/ad12cjqXK8XeHwe2t/c/qBVP5fjTnlSPeNjZl
WQh2EW/ZblUXrzMfngv++1NcZxpNioN/W8r/5JQ=
-----END CERTIFICATE-----
