Certificate:
    Data:
        Version: 3 (0x2)
        Serial Number: 101 (0x65)
        Signature Algorithm: sha256WithRSAEncryption
        Issuer: C = US, ST = Washington, L = Seattle, O = wolfSSL Inc., OU = Engineering, CN = chainB-ICA1-pathlen0, emailAddress = info@wolfssl.com
        Validity
            Not Before: Oct 11 00:28:08 2019 GMT
            Not After : Jul  7 00:28:08 2022 GMT
        Subject: C = US, ST = Washington, L = Seattle, O = wolfSSL Inc., OU = Engineering, CN = chainB-entity, emailAddress = info@wolfssl.com
        Subject Public Key Info:
            Public Key Algorithm: rsaEncryption
                RSA Public-Key: (2048 bit)
                Modulus:
                    00:d7:5f:d9:3d:d7:5b:11:aa:3e:53:31:d0:32:78:
                    87:fb:c0:8e:80:6d:fc:68:73:1f:9c:77:66:16:35:
                    fc:2f:d7:e4:ca:ba:2a:73:5f:14:94:12:f0:48:31:
                    a2:40:ad:b4:e3:07:0c:02:47:b4:0a:07:69:d5:d2:
                    85:bf:c8:bc:14:8c:c7:87:ba:5f:87:c5:07:f4:df:
                    a4:46:1e:b7:13:0f:9d:7e:f6:1a:7b:29:09:55:4c:
                    17:ee:c8:b0:9d:39:0c:89:6e:18:9c:06:7f:5d:95:
                    d2:4c:71:b3:1f:ea:5d:d2:f6:2c:69:a8:16:15:59:
                    e5:7d:03:d7:bd:1a:34:e3:f1:27:e3:b9:7d:68:e0:
                    39:3f:35:62:2f:20:20:fa:19:62:37:1a:30:47:6c:
                    a3:f9:8e:9c:f3:67:2e:bb:38:4c:2e:0a:21:9b:70:
                    b6:97:a2:1b:b3:98:0d:5b:74:97:33:f0:b8:6c:4e:
                    ad:b4:1f:48:62:c9:9a:af:2d:a6:a1:06:ae:98:30:
                    54:5e:cb:dd:23:77:d5:ee:5c:fb:81:f0:2b:ad:6f:
                    fa:e3:b1:0e:98:bd:3e:0b:f4:7c:c5:e3:50:bf:08:
                    9b:bf:be:f8:6a:d9:db:78:36:84:f2:7e:7b:7d:5e:
                    a7:8f:42:81:5f:41:f4:77:5c:30:51:f5:3f:2d:25:
                    95:4d
                Exponent: 65537 (0x10001)
        X509v3 extensions:
            X509v3 Subject Key Identifier: 
                7F:17:7E:8E:A8:2C:AD:9C:C7:22:7E:A6:C6:90:9E:63:C4:5F:33:9E
            X509v3 Authority Key Identifier: 
                keyid:D7:90:E4:86:59:24:F9:2B:B8:06:8E:B1:8F:33:E5:2C:63:F1:03:16
                DirName:/C=US/ST=Washington/L=Seattle/O=wolfSSL Inc./OU=Engineering/CN=chainB-ICA2-pathlen1/emailAddress=info@wolfssl.com
                serial:64

            X509v3 Basic Constraints: 
                CA:FALSE
    Signature Algorithm: sha256WithRSAEncryption
         1f:ee:5c:85:ed:4e:3b:39:6b:29:a2:ef:65:b9:f3:c7:47:85:
         8e:79:a0:35:1b:aa:0e:98:67:a8:df:03:9c:2b:81:24:ed:cb:
         cc:c0:42:49:76:bf:78:7b:b9:39:ca:f6:06:35:76:dd:e3:59:
         c5:70:3b:b3:cf:62:0a:09:1d:07:90:96:c4:0e:0a:38:97:f7:
         31:1d:ad:44:f9:03:f9:30:22:b6:68:01:00:38:23:3d:f6:e7:
         71:5a:e4:d4:59:52:4f:80:86:ec:8f:ca:92:1d:9b:07:93:fe:
         34:22:ac:9a:a2:aa:9e:fe:f5:7b:99:fd:72:32:40:98:88:d8:
         42:1d:33:59:4c:38:2e:97:f2:9d:a2:fc:b7:33:cd:84:c1:c6:
         ef:f5:c5:d9:be:32:ba:44:66:06:62:5c:55:31:38:b4:25:1a:
         6a:64:de:14:39:b4:38:74:1b:d7:c4:ec:81:fc:3a:13:4b:e1:
         d1:b1:5f:3c:8e:25:bc:63:7f:30:78:04:4e:79:3a:83:97:52:
         f6:00:6a:9e:d8:b5:c6:06:21:97:4a:98:ee:cf:e8:83:94:23:
         11:6c:00:d7:e9:35:1f:89:77:85:9a:d7:8f:29:90:c6:61:14:
         e5:7d:55:5b:66:65:60:44:79:8a:1b:58:88:b9:0f:5f:a6:5f:
         7a:ca:6b:0c
-----BEGIN CERTIFICATE-----
MIIEtzCCA5+gAwIBAgIBZTANBgkqhkiG9w0BAQsFADCBoTELMAkGA1UEBhMCVVMx
EzARBgNVBAgMCldhc2hpbmd0b24xEDAOBgNVBAcMB1NlYXR0bGUxFTATBgNVBAoM
DHdvbGZTU0wgSW5jLjEUMBIGA1UECwwLRW5naW5lZXJpbmcxHTAbBgNVBAMMFGNo
YWluQi1JQ0ExLXBhdGhsZW4wMR8wHQYJKoZIhvcNAQkBFhBpbmZvQHdvbGZzc2wu
Y29tMB4XDTE5MTAxMTAwMjgwOFoXDTIyMDcwNzAwMjgwOFowgZoxCzAJBgNVBAYT
AlVTMRMwEQYDVQQIDApXYXNoaW5ndG9uMRAwDgYDVQQHDAdTZWF0dGxlMRUwEwYD
VQQKDAx3b2xmU1NMIEluYy4xFDASBgNVBAsMC0VuZ2luZWVyaW5nMRYwFAYDVQQD
DA1jaGFpbkItZW50aXR5MR8wHQYJKoZIhvcNAQkBFhBpbmZvQHdvbGZzc2wuY29t
MIIBIjANBgkqhkiG9w0BAQEFAAOCAQ8AMIIBCgKCAQEA11/ZPddbEao+UzHQMniH
+8COgG38aHMfnHdmFjX8L9fkyroqc18UlBLwSDGiQK204wcMAke0Cgdp1dKFv8i8
FIzHh7pfh8UH9N+kRh63Ew+dfvYaeykJVUwX7siwnTkMiW4YnAZ/XZXSTHGzH+pd
0vYsaagWFVnlfQPXvRo04/En47l9aOA5PzViLyAg+hliNxowR2yj+Y6c82cuuzhM
Lgohm3C2l6Ibs5gNW3SXM/C4bE6ttB9IYsmary2moQaumDBUXsvdI3fV7lz7gfAr
rW/647EOmL0+C/R8xeNQvwibv774atnbeDaE8n57fV6nj0KBX0H0d1wwUfU/LSWV
TQIDAQABo4H+MIH7MB0GA1UdDgQWBBR/F36OqCytnMcifqbGkJ5jxF8znjCBzgYD
VR0jBIHGMIHDgBTXkOSGWST5K7gGjrGPM+UsY/EDFqGBp6SBpDCBoTELMAkGA1UE
BhMCVVMxEzARBgNVBAgMCldhc2hpbmd0b24xEDAOBgNVBAcMB1NlYXR0bGUxFTAT
BgNVBAoMDHdvbGZTU0wgSW5jLjEUMBIGA1UECwwLRW5naW5lZXJpbmcxHTAbBgNV
BAMMFGNoYWluQi1JQ0EyLXBhdGhsZW4xMR8wHQYJKoZIhvcNAQkBFhBpbmZvQHdv
bGZzc2wuY29tggFkMAkGA1UdEwQCMAAwDQYJKoZIhvcNAQELBQADggEBAB/uXIXt
Tjs5aymi72W588dHhY55oDUbqg6YZ6jfA5wrgSTty8zAQkl2v3h7uTnK9gY1dt3j
WcVwO7PPYgoJHQeQlsQOCjiX9zEdrUT5A/kwIrZoAQA4Iz3253Fa5NRZUk+AhuyP
ypIdmweT/jQirJqiqp7+9XuZ/XIyQJiI2EIdM1lMOC6X8p2i/LczzYTBxu/1xdm+
MrpEZgZiXFUxOLQlGmpk3hQ5tDh0G9fE7IH8OhNL4dGxXzyOJbxjfzB4BE55OoOX
UvYAap7YtcYGIZdKmO7P6IOUIxFsANfpNR+Jd4Wa148pkMZhFOV9VVtmZWBEeYob
WIi5D1+mX3rKaww=
-----END CERTIFICATE-----
Certificate:
    Data:
        Version: 3 (0x2)
        Serial Number: 100 (0x64)
        Signature Algorithm: sha256WithRSAEncryption
        Issuer: C = US, ST = Washington, L = Seattle, O = wolfSSL Inc., OU = Engineering, CN = chainB-ICA2-pathlen1, emailAddress = info@wolfssl.com
        Validity
            Not Before: Oct 11 00:28:08 2019 GMT
            Not After : Jul  7 00:28:08 2022 GMT
        Subject: C = US, ST = Washington, L = Seattle, O = wolfSSL Inc., OU = Engineering, CN = chainB-ICA1-pathlen0, emailAddress = info@wolfssl.com
        Subject Public Key Info:
            Public Key Algorithm: rsaEncryption
                RSA Public-Key: (2048 bit)
                Modulus:
                    00:b2:f7:aa:ae:91:d1:24:41:52:a1:22:e0:d3:97:
                    9b:e0:0c:94:9c:4a:e4:b3:85:ae:a9:43:9f:ec:7a:
                    05:dd:88:5c:e5:19:52:53:39:86:8a:b2:e2:86:27:
                    ab:03:9a:be:c4:54:67:af:b9:ac:65:e2:61:97:78:
                    66:60:29:90:62:08:62:91:a0:96:2b:0f:30:6c:da:
                    3d:70:35:52:a8:a7:d5:85:49:25:6a:56:59:bc:6b:
                    45:91:c3:37:fc:06:0d:a2:a9:46:e2:29:82:1b:77:
                    a6:49:35:fb:57:5f:33:02:92:e5:6b:67:c2:61:e2:
                    37:9c:12:5c:b5:2c:9b:2a:a5:85:97:22:73:3d:36:
                    50:55:1a:6a:59:d9:da:ac:2d:3f:e6:6a:b1:1d:60:
                    52:03:05:40:5f:cf:06:68:f0:32:86:5a:6f:b5:02:
                    63:e6:2e:1e:9f:09:82:8c:03:18:19:e4:79:d5:35:
                    6e:d9:17:9f:3c:c1:d9:3b:95:f9:6f:f3:19:d1:d3:
                    b8:5d:7c:93:37:c3:7c:3b:a0:58:c7:fb:e5:2d:f5:
                    58:d3:9b:72:f3:43:7a:29:ec:6b:f4:86:81:c8:e6:
                    60:8b:2b:c5:ad:59:e5:a4:a0:05:97:09:02:00:a7:
                    55:dc:5b:ef:e4:8b:83:1a:ee:c8:1c:b5:b6:e6:61:
                    6b:d1
                Exponent: 65537 (0x10001)
        X509v3 extensions:
            X509v3 Subject Key Identifier: 
                D7:90:E4:86:59:24:F9:2B:B8:06:8E:B1:8F:33:E5:2C:63:F1:03:16
            X509v3 Authority Key Identifier: 
                keyid:EE:59:9D:56:0B:7C:0A:45:44:E3:15:57:E2:B2:F3:1D:64:6F:AF:7A
                DirName:/C=US/ST=Montana/L=Bozeman/O=Sawtooth/OU=Consulting/CN=www.wolfssl.com/emailAddress=info@wolfssl.com
                serial:64

            X509v3 Basic Constraints: 
                CA:TRUE, pathlen:0
            X509v3 Key Usage: 
                Certificate Sign, CRL Sign
    Signature Algorithm: sha256WithRSAEncryption
         cd:0b:7e:66:b9:1d:a8:14:81:a8:e0:b3:74:d9:79:8a:c1:e5:
         15:cf:6a:a7:a3:ca:d2:ad:f8:f6:9f:c2:be:67:ee:cf:9a:3c:
         1c:a3:c4:db:2b:c8:a9:b1:55:94:a1:9e:e3:c2:6c:3a:95:90:
         7e:8f:29:56:c6:99:d2:e5:3b:8f:f3:9a:11:4a:97:22:07:d9:
         e2:e5:f8:3e:0f:08:50:43:ea:66:13:6c:20:2e:71:95:10:07:
         88:89:2d:30:9c:96:b1:7e:42:5f:63:c3:8b:71:c6:1d:00:ee:
         83:d7:80:1b:fa:f4:fe:f5:b1:29:f8:c1:ca:1d:89:9b:7c:2a:
         84:00:e4:f5:04:2d:35:be:12:c1:fa:78:cb:bc:c9:04:8a:bf:
         87:57:99:3a:9f:0a:88:a5:e8:94:db:2b:8f:ba:5f:b4:75:7f:
         ac:56:75:b4:db:7f:57:24:17:cb:89:f8:cb:8b:c4:b2:44:4a:
         d9:57:82:fb:ce:0c:84:e2:2b:a5:f2:90:63:aa:b3:c5:e1:00:
         22:60:8f:23:1f:a8:97:4b:49:f7:f7:cb:92:f7:94:80:52:5b:
         8d:4a:c1:f1:d1:3e:9f:28:96:61:af:8e:72:8d:b6:9e:14:ed:
         14:db:ea:f0:fc:50:39:ca:c8:ab:1e:49:c3:9e:97:0a:d7:1c:
         6f:b2:17:9a
-----BEGIN CERTIFICATE-----
MIIExjCCA66gAwIBAgIBZDANBgkqhkiG9w0BAQsFADCBoTELMAkGA1UEBhMCVVMx
EzARBgNVBAgMCldhc2hpbmd0b24xEDAOBgNVBAcMB1NlYXR0bGUxFTATBgNVBAoM
DHdvbGZTU0wgSW5jLjEUMBIGA1UECwwLRW5naW5lZXJpbmcxHTAbBgNVBAMMFGNo
YWluQi1JQ0EyLXBhdGhsZW4xMR8wHQYJKoZIhvcNAQkBFhBpbmZvQHdvbGZzc2wu
Y29tMB4XDTE5MTAxMTAwMjgwOFoXDTIyMDcwNzAwMjgwOFowgaExCzAJBgNVBAYT
AlVTMRMwEQYDVQQIDApXYXNoaW5ndG9uMRAwDgYDVQQHDAdTZWF0dGxlMRUwEwYD
VQQKDAx3b2xmU1NMIEluYy4xFDASBgNVBAsMC0VuZ2luZWVyaW5nMR0wGwYDVQQD
DBRjaGFpbkItSUNBMS1wYXRobGVuMDEfMB0GCSqGSIb3DQEJARYQaW5mb0B3b2xm
c3NsLmNvbTCCASIwDQYJKoZIhvcNAQEBBQADggEPADCCAQoCggEBALL3qq6R0SRB
UqEi4NOXm+AMlJxK5LOFrqlDn+x6Bd2IXOUZUlM5hoqy4oYnqwOavsRUZ6+5rGXi
YZd4ZmApkGIIYpGglisPMGzaPXA1Uqin1YVJJWpWWbxrRZHDN/wGDaKpRuIpght3
pkk1+1dfMwKS5WtnwmHiN5wSXLUsmyqlhZcicz02UFUaalnZ2qwtP+ZqsR1gUgMF
QF/PBmjwMoZab7UCY+YuHp8JgowDGBnkedU1btkXnzzB2TuV+W/zGdHTuF18kzfD
fDugWMf75S31WNObcvNDeinsa/SGgcjmYIsrxa1Z5aSgBZcJAgCnVdxb7+SLgxru
yBy1tuZha9ECAwEAAaOCAQUwggEBMB0GA1UdDgQWBBTXkOSGWST5K7gGjrGPM+Us
Y/EDFjCBwQYDVR0jBIG5MIG2gBTuWZ1WC3wKRUTjFVfisvMdZG+veqGBmqSBlzCB
lDELMAkGA1UEBhMCVVMxEDAOBgNVBAgMB01vbnRhbmExEDAOBgNVBAcMB0JvemVt
YW4xETAPBgNVBAoMCFNhd3Rvb3RoMRMwEQYDVQQLDApDb25zdWx0aW5nMRgwFgYD
VQQDDA93d3cud29sZnNzbC5jb20xHzAdBgkqhkiG9w0BCQEWEGluZm9Ad29sZnNz
bC5jb22CAWQwDwYDVR0TBAgwBgEB/wIBADALBgNVHQ8EBAMCAQYwDQYJKoZIhvcN
AQELBQADggEBAM0Lfma5HagUgajgs3TZeYrB5RXPaqejytKt+Pafwr5n7s+aPByj
xNsryKmxVZShnuPCbDqVkH6PKVbGmdLlO4/zmhFKlyIH2eLl+D4PCFBD6mYTbCAu
cZUQB4iJLTCclrF+Ql9jw4txxh0A7oPXgBv69P71sSn4wcodiZt8KoQA5PUELTW+
EsH6eMu8yQSKv4dXmTqfCoil6JTbK4+6X7R1f6xWdbTbf1ckF8uJ+MuLxLJEStlX
gvvODITiK6XykGOqs8XhACJgjyMfqJdLSff3y5L3lIBSW41KwfHRPp8olmGvjnKN
tp4U7RTb6vD8UDnKyKseScOelwrXHG+yF5o=
-----END CERTIFICATE-----
Certificate:
    Data:
        Version: 3 (0x2)
        Serial Number: 100 (0x64)
        Signature Algorithm: sha256WithRSAEncryption
        Issuer: C = US, ST = Montana, L = Bozeman, O = Sawtooth, OU = Consulting, CN = www.wolfssl.com, emailAddress = info@wolfssl.com
        Validity
            Not Before: Oct 11 00:28:08 2019 GMT
            Not After : Jul  7 00:28:08 2022 GMT
        Subject: C = US, ST = Washington, L = Seattle, O = wolfSSL Inc., OU = Engineering, CN = chainB-ICA2-pathlen1, emailAddress = info@wolfssl.com
        Subject Public Key Info:
            Public Key Algorithm: rsaEncryption
                RSA Public-Key: (2048 bit)
                Modulus:
                    00:d0:7f:82:05:9d:5b:c4:49:e0:3e:1f:87:6e:17:
                    05:eb:e2:0a:d1:d1:a5:f5:cc:be:1d:46:d8:cd:a8:
                    6e:22:ce:3d:5c:39:71:a4:0d:03:fa:78:7e:bb:6c:
                    e8:51:e5:98:ef:a6:5e:62:d2:30:fa:3b:8f:21:5f:
                    b7:5f:98:b7:9f:a8:56:7a:39:ca:c2:df:a1:56:fe:
                    95:97:56:5e:5b:fe:74:d9:f2:2e:ca:7e:db:50:77:
                    5a:d1:90:dc:22:d6:fe:4b:c0:57:a1:c6:3b:4a:ba:
                    ad:05:14:c9:24:68:76:b5:e2:26:d5:cb:50:fd:d0:
                    77:0e:8c:0c:b9:5e:f7:a4:9a:45:35:6c:62:ca:e9:
                    38:d4:10:9a:5c:30:a5:4f:26:47:03:03:73:56:85:
                    8c:be:f5:d0:c0:09:06:3e:0e:e8:e5:7d:d0:19:54:
                    ed:57:ec:51:cf:bc:95:15:91:cf:d0:9a:84:dd:8a:
                    50:7c:33:c2:1a:61:70:31:9a:19:17:28:b3:8c:da:
                    5f:b8:d2:06:6b:82:3f:b6:6a:28:29:86:b4:20:cb:
                    a5:af:73:66:e4:37:36:81:f0:3f:ad:bf:05:b8:db:
                    2e:c4:22:e2:eb:46:87:f4:60:d1:a6:7f:ee:9c:41:
                    a7:f3:aa:e9:37:dd:da:d6:f0:cd:48:ac:51:d1:77:
                    8d:a1
                Exponent: 65537 (0x10001)
        X509v3 extensions:
            X509v3 Subject Key Identifier: 
                EE:59:9D:56:0B:7C:0A:45:44:E3:15:57:E2:B2:F3:1D:64:6F:AF:7A
            X509v3 Authority Key Identifier: 
                keyid:27:8E:67:11:74:C3:26:1D:3F:ED:33:63:B3:A4:D8:1D:30:E5:E8:D5
                DirName:/C=US/ST=Montana/L=Bozeman/O=Sawtooth/OU=Consulting/CN=www.wolfssl.com/emailAddress=info@wolfssl.com
                serial:86:FF:F5:8E:10:DE:B8:FB

            X509v3 Basic Constraints: 
                CA:TRUE, pathlen:1
            X509v3 Key Usage: 
                Certificate Sign, CRL Sign
    Signature Algorithm: sha256WithRSAEncryption
         ab:c7:2b:9d:15:73:97:47:e0:88:32:9d:10:71:81:53:62:97:
         dc:c4:72:73:49:3e:50:50:10:03:1e:22:58:82:e0:b3:da:ca:
         89:92:70:c8:54:0d:8e:a6:44:a0:26:5d:5d:52:d2:fb:63:e4:
         13:7e:30:9a:13:25:4e:c8:34:a1:c9:e6:69:24:64:98:e3:88:
         9c:86:18:62:53:70:ae:f0:d9:ed:f3:0c:e8:ec:5b:e5:27:85:
         16:d0:b0:f6:bd:5d:9a:62:41:26:25:31:88:70:fe:25:97:48:
         f1:e6:21:1c:78:f7:68:03:59:21:db:f1:c5:92:96:24:b8:23:
         fc:ab:52:95:70:6a:52:16:4d:fc:36:6b:5f:58:4f:3f:c9:f4:
         e7:6e:52:41:42:99:41:07:c2:75:74:db:c2:49:84:7c:3f:c1:
         ac:bd:d4:d5:8f:d0:73:95:18:8a:5d:f0:8d:dd:2d:f0:b7:61:
         8d:8a:ef:14:9f:fd:30:ba:10:e8:57:d3:1b:8e:2d:9b:74:b3:
         63:0d:0e:8c:f9:a2:f7:42:c8:e6:5e:83:6f:0f:9a:85:3b:6e:
         66:48:b9:a7:a8:fc:da:19:47:0c:90:26:0d:ce:15:fe:6a:1e:
         47:5a:49:f8:76:0f:3a:a8:68:cd:a6:38:4c:a6:ca:b2:b0:9b:
         c7:46:43:cd
-----BEGIN CERTIFICATE-----
MIIEwTCCA6mgAwIBAgIBZDANBgkqhkiG9w0BAQsFADCBlDELMAkGA1UEBhMCVVMx
EDAOBgNVBAgMB01vbnRhbmExEDAOBgNVBAcMB0JvemVtYW4xETAPBgNVBAoMCFNh
d3Rvb3RoMRMwEQYDVQQLDApDb25zdWx0aW5nMRgwFgYDVQQDDA93d3cud29sZnNz
bC5jb20xHzAdBgkqhkiG9w0BCQEWEGluZm9Ad29sZnNzbC5jb20wHhcNMTkxMDEx
MDAyODA4WhcNMjIwNzA3MDAyODA4WjCBoTELMAkGA1UEBhMCVVMxEzARBgNVBAgM
Cldhc2hpbmd0b24xEDAOBgNVBAcMB1NlYXR0bGUxFTATBgNVBAoMDHdvbGZTU0wg
SW5jLjEUMBIGA1UECwwLRW5naW5lZXJpbmcxHTAbBgNVBAMMFGNoYWluQi1JQ0Ey
LXBhdGhsZW4xMR8wHQYJKoZIhvcNAQkBFhBpbmZvQHdvbGZzc2wuY29tMIIBIjAN
BgkqhkiG9w0BAQEFAAOCAQ8AMIIBCgKCAQEA0H+CBZ1bxEngPh+HbhcF6+IK0dGl
9cy+HUbYzahuIs49XDlxpA0D+nh+u2zoUeWY76ZeYtIw+juPIV+3X5i3n6hWejnK
wt+hVv6Vl1ZeW/502fIuyn7bUHda0ZDcItb+S8BXocY7SrqtBRTJJGh2teIm1ctQ
/dB3DowMuV73pJpFNWxiyuk41BCaXDClTyZHAwNzVoWMvvXQwAkGPg7o5X3QGVTt
V+xRz7yVFZHP0JqE3YpQfDPCGmFwMZoZFyizjNpfuNIGa4I/tmooKYa0IMulr3Nm
5Dc2gfA/rb8FuNsuxCLi60aH9GDRpn/unEGn86rpN93a1vDNSKxR0XeNoQIDAQAB
o4IBDTCCAQkwHQYDVR0OBBYEFO5ZnVYLfApFROMVV+Ky8x1kb696MIHJBgNVHSME
gcEwgb6AFCeOZxF0wyYdP+0zY7Ok2B0w5ejVoYGapIGXMIGUMQswCQYDVQQGEwJV
UzEQMA4GA1UECAwHTW9udGFuYTEQMA4GA1UEBwwHQm96ZW1hbjERMA8GA1UECgwI
U2F3dG9vdGgxEzARBgNVBAsMCkNvbnN1bHRpbmcxGDAWBgNVBAMMD3d3dy53b2xm
c3NsLmNvbTEfMB0GCSqGSIb3DQEJARYQaW5mb0B3b2xmc3NsLmNvbYIJAIb/9Y4Q
3rj7MA8GA1UdEwQIMAYBAf8CAQEwCwYDVR0PBAQDAgEGMA0GCSqGSIb3DQEBCwUA
A4IBAQCrxyudFXOXR+CIMp0QcYFTYpfcxHJzST5QUBADHiJYguCz2sqJknDIVA2O
pkSgJl1dUtL7Y+QTfjCaEyVOyDShyeZpJGSY44ichhhiU3Cu8Nnt8wzo7FvlJ4UW
0LD2vV2aYkEmJTGIcP4ll0jx5iEcePdoA1kh2/HFkpYkuCP8q1KVcGpSFk38Nmtf
WE8/yfTnblJBQplBB8J1dNvCSYR8P8GsvdTVj9BzlRiKXfCN3S3wt2GNiu8Un/0w
uhDoV9Mbji2bdLNjDQ6M+aL3QsjmXoNvD5qFO25mSLmnqPzaGUcMkCYNzhX+ah5H
Wkn4dg86qGjNpjhMpsqysJvHRkPN
-----END CERTIFICATE-----
