Certificate:
    Data:
        Version: 3 (0x2)
        Serial Number: 101 (0x65)
        Signature Algorithm: sha256WithRSAEncryption
        Issuer: C = US, ST = Washington, L = Seattle, O = wolfSSL Inc., OU = Engineering, CN = chainB-ICA1-pathlen0, emailAddress = info@wolfssl.com
        Validity
            Not Before: Oct 11 00:28:08 2019 GMT
            Not After : Jul  7 00:28:08 2022 GMT
        Subject: C = US, ST = Washington, L = Seattle, O = wolfSSL Inc., OU = Engineering, CN = chainB-entity, emailAddress = info@wolfssl.com
        Subject Public Key Info:
            Public Key Algorithm: rsaEncryption
                RSA Public-Key: (2048 bit)
                Modulus:
                    00:d7:5f:d9:3d:d7:5b:11:aa:3e:53:31:d0:32:78:
                    87:fb:c0:8e:80:6d:fc:68:73:1f:9c:77:66:16:35:
                    fc:2f:d7:e4:ca:ba:2a:73:5f:14:94:12:f0:48:31:
                    a2:40:ad:b4:e3:07:0c:02:47:b4:0a:07:69:d5:d2:
                    85:bf:c8:bc:14:8c:c7:87:ba:5f:87:c5:07:f4:df:
                    a4:46:1e:b7:13:0f:9d:7e:f6:1a:7b:29:09:55:4c:
                    17:ee:c8:b0:9d:39:0c:89:6e:18:9c:06:7f:5d:95:
                    d2:4c:71:b3:1f:ea:5d:d2:f6:2c:69:a8:16:15:59:
                    e5:7d:03:d7:bd:1a:34:e3:f1:27:e3:b9:7d:68:e0:
                    39:3f:35:62:2f:20:20:fa:19:62:37:1a:30:47:6c:
                    a3:f9:8e:9c:f3:67:2e:bb:38:4c:2e:0a:21:9b:70:
                    b6:97:a2:1b:b3:98:0d:5b:74:97:33:f0:b8:6c:4e:
                    ad:b4:1f:48:62:c9:9a:af:2d:a6:a1:06:ae:98:30:
                    54:5e:cb:dd:23:77:d5:ee:5c:fb:81:f0:2b:ad:6f:
                    fa:e3:b1:0e:98:bd:3e:0b:f4:7c:c5:e3:50:bf:08:
                    9b:bf:be:f8:6a:d9:db:78:36:84:f2:7e:7b:7d:5e:
                    a7:8f:42:81:5f:41:f4:77:5c:30:51:f5:3f:2d:25:
                    95:4d
                Exponent: 65537 (0x10001)
        X509v3 extensions:
            X509v3 Subject Key Identifier: 
                7F:17:7E:8E:A8:2C:AD:9C:C7:22:7E:A6:C6:90:9E:63:C4:5F:33:9E
            X509v3 Authority Key Identifier: 
                keyid:D7:90:E4:86:59:24:F9:2B:B8:06:8E:B1:8F:33:E5:2C:63:F1:03:16
                DirName:/C=US/ST=Washington/L=Seattle/O=wolfSSL Inc./OU=Engineering/CN=chainB-ICA2-pathlen1/emailAddress=info@wolfssl.com
                serial:64

            X509v3 Basic Constraints: 
                CA:FALSE
    Signature Algorithm: sha256WithRSAEncryption
         1f:ee:5c:85:ed:4e:3b:39:6b:29:a2:ef:65:b9:f3:c7:47:85:
         8e:79:a0:35:1b:aa:0e:98:67:a8:df:03:9c:2b:81:24:ed:cb:
         cc:c0:42:49:76:bf:78:7b:b9:39:ca:f6:06:35:76:dd:e3:59:
         c5:70:3b:b3:cf:62:0a:09:1d:07:90:96:c4:0e:0a:38:97:f7:
         31:1d:ad:44:f9:03:f9:30:22:b6:68:01:00:38:23:3d:f6:e7:
         71:5a:e4:d4:59:52:4f:80:86:ec:8f:ca:92:1d:9b:07:93:fe:
         34:22:ac:9a:a2:aa:9e:fe:f5:7b:99:fd:72:32:40:98:88:d8:
         42:1d:33:59:4c:38:2e:97:f2:9d:a2:fc:b7:33:cd:84:c1:c6:
         ef:f5:c5:d9:be:32:ba:44:66:06:62:5c:55:31:38:b4:25:1a:
         6a:64:de:14:39:b4:38:74:1b:d7:c4:ec:81:fc:3a:13:4b:e1:
         d1:b1:5f:3c:8e:25:bc:63:7f:30:78:04:4e:79:3a:83:97:52:
         f6:00:6a:9e:d8:b5:c6:06:21:97:4a:98:ee:cf:e8:83:94:23:
         11:6c:00:d7:e9:35:1f:89:77:85:9a:d7:8f:29:90:c6:61:14:
         e5:7d:55:5b:66:65:60:44:79:8a:1b:58:88:b9:0f:5f:a6:5f:
         7a:ca:6b:0c
-----BEGIN CERTIFICATE-----
MIIEtzCCA5+gAwIBAgIBZTANBgkqhkiG9w0BAQsFADCBoTELMAkGA1UEBhMCVVMx
EzARBgNVBAgMCldhc2hpbmd0b24xEDAOBgNVBAcMB1NlYXR0bGUxFTATBgNVBAoM
DHdvbGZTU0wgSW5jLjEUMBIGA1UECwwLRW5naW5lZXJpbmcxHTAbBgNVBAMMFGNo
YWluQi1JQ0ExLXBhdGhsZW4wMR8wHQYJKoZIhvcNAQkBFhBpbmZvQHdvbGZzc2wu
Y29tMB4XDTE5MTAxMTAwMjgwOFoXDTIyMDcwNzAwMjgwOFowgZoxCzAJBgNVBAYT
AlVTMRMwEQYDVQQIDApXYXNoaW5ndG9uMRAwDgYDVQQHDAdTZWF0dGxlMRUwEwYD
VQQKDAx3b2xmU1NMIEluYy4xFDASBgNVBAsMC0VuZ2luZWVyaW5nMRYwFAYDVQQD
DA1jaGFpbkItZW50aXR5MR8wHQYJKoZIhvcNAQkBFhBpbmZvQHdvbGZzc2wuY29t
MIIBIjANBgkqhkiG9w0BAQEFAAOCAQ8AMIIBCgKCAQEA11/ZPddbEao+UzHQMniH
+8COgG38aHMfnHdmFjX8L9fkyroqc18UlBLwSDGiQK204wcMAke0Cgdp1dKFv8i8
FIzHh7pfh8UH9N+kRh63Ew+dfvYaeykJVUwX7siwnTkMiW4YnAZ/XZXSTHGzH+pd
0vYsaagWFVnlfQPXvRo04/En47l9aOA5PzViLyAg+hliNxowR2yj+Y6c82cuuzhM
Lgohm3C2l6Ibs5gNW3SXM/C4bE6ttB9IYsmary2moQaumDBUXsvdI3fV7lz7gfAr
rW/647EOmL0+C/R8xeNQvwibv774atnbeDaE8n57fV6nj0KBX0H0d1wwUfU/LSWV
TQIDAQABo4H+MIH7MB0GA1UdDgQWBBR/F36OqCytnMcifqbGkJ5jxF8znjCBzgYD
VR0jBIHGMIHDgBTXkOSGWST5K7gGjrGPM+UsY/EDFqGBp6SBpDCBoTELMAkGA1UE
BhMCVVMxEzARBgNVBAgMCldhc2hpbmd0b24xEDAOBgNVBAcMB1NlYXR0bGUxFTAT
BgNVBAoMDHdvbGZTU0wgSW5jLjEUMBIGA1UECwwLRW5naW5lZXJpbmcxHTAbBgNV
BAMMFGNoYWluQi1JQ0EyLXBhdGhsZW4xMR8wHQYJKoZIhvcNAQkBFhBpbmZvQHdv
bGZzc2wuY29tggFkMAkGA1UdEwQCMAAwDQYJKoZIhvcNAQELBQADggEBAB/uXIXt
Tjs5aymi72W588dHhY55oDUbqg6YZ6jfA5wrgSTty8zAQkl2v3h7uTnK9gY1dt3j
WcVwO7PPYgoJHQeQlsQOCjiX9zEdrUT5A/kwIrZoAQA4Iz3253Fa5NRZUk+AhuyP
ypIdmweT/jQirJqiqp7+9XuZ/XIyQJiI2EIdM1lMOC6X8p2i/LczzYTBxu/1xdm+
MrpEZgZiXFUxOLQlGmpk3hQ5tDh0G9fE7IH8OhNL4dGxXzyOJbxjfzB4BE55OoOX
UvYAap7YtcYGIZdKmO7P6IOUIxFsANfpNR+Jd4Wa148pkMZhFOV9VVtmZWBEeYob
WIi5D1+mX3rKaww=
-----END CERTIFICATE-----
