Certificate:
    Data:
        Version: 3 (0x2)
        Serial Number: 100 (0x64)
        Signature Algorithm: sha256WithRSAEncryption
        Issuer: C = US, ST = Washington, L = Seattle, O = wolfSSL Inc., OU = Engineering, CN = chainG-ICA5-pathlen20, emailAddress = info@wolfssl.com
        Validity
            Not Before: Oct 11 00:28:09 2019 GMT
            Not After : Jul  7 00:28:09 2022 GMT
        Subject: C = US, ST = Washington, L = Seattle, O = wolfSSL Inc., OU = Engineering, CN = chainG-ICA4-pathlen5, emailAddress = info@wolfssl.com
        Subject Public Key Info:
            Public Key Algorithm: rsaEncryption
                RSA Public-Key: (2048 bit)
                Modulus:
                    00:c9:4b:a0:77:b8:42:43:96:e1:f4:8d:1d:a6:2c:
                    d8:12:a2:40:49:11:eb:5f:fb:6c:1d:15:3e:af:dd:
                    3b:c7:fd:c9:61:43:99:8e:c7:bc:63:bc:5b:93:24:
                    f3:e5:66:c8:3e:3a:9c:7d:0e:1b:c1:6c:84:8c:90:
                    b0:11:aa:23:2d:78:99:17:3e:e9:6b:a0:8c:64:fd:
                    10:7b:66:ed:b4:3e:b0:96:ef:36:1f:2d:6d:c4:96:
                    3c:5a:dc:83:c2:e9:cd:64:d3:5f:c7:ea:db:84:2e:
                    24:0c:77:d1:fd:8c:cf:d7:78:af:5b:98:e9:c4:fd:
                    66:fa:76:1d:7a:c3:c3:64:32:ad:b9:8b:5a:4c:82:
                    ed:3a:fe:07:44:20:13:88:df:02:2c:d9:97:21:a4:
                    39:a6:f3:7e:8b:e2:c0:cc:86:6b:5a:25:30:d7:f9:
                    ba:29:ef:1b:2e:f6:3f:c1:7d:b1:0c:95:8e:c0:ce:
                    73:41:47:1c:ec:33:44:60:46:9d:b0:75:07:50:c8:
                    19:bf:1e:82:c8:c3:3d:d8:e2:19:1e:0b:36:9d:34:
                    95:87:ea:a0:1f:e8:80:60:a5:b1:94:42:1e:57:c8:
                    a0:e6:ad:f8:73:c8:82:e4:38:84:d3:97:fc:85:c4:
                    de:d2:c0:c5:6d:c7:1e:eb:1d:c1:f1:de:97:27:ca:
                    be:4b
                Exponent: 65537 (0x10001)
        X509v3 extensions:
            X509v3 Subject Key Identifier: 
                D4:92:AE:BD:3B:1C:66:4B:17:88:18:15:F8:27:AB:38:CC:07:5A:65
            X509v3 Authority Key Identifier: 
                keyid:1D:51:80:B6:9A:A7:AC:DD:80:7B:4B:A2:0B:62:BE:E4:87:30:C7:CA
                DirName:/C=US/ST=Washington/L=Seattle/O=wolfSSL Inc./OU=Engineering/CN=chainG-ICA6-pathlen10/emailAddress=info@wolfssl.com
                serial:64

            X509v3 Basic Constraints: 
                CA:TRUE, pathlen:5
            X509v3 Key Usage: 
                Certificate Sign, CRL Sign
    Signature Algorithm: sha256WithRSAEncryption
         ab:ff:d4:87:51:61:f9:a5:68:8d:4e:fd:01:0c:e3:75:9a:c5:
         16:f2:c4:1e:d8:bd:d4:ce:9e:b9:bd:72:db:f2:89:2b:7a:46:
         b4:6c:16:e5:dc:5a:eb:d0:3f:63:a8:98:82:0e:df:c6:1a:40:
         a2:1a:a0:d5:49:10:a6:f4:ae:10:61:0a:2e:91:0d:bc:cf:e9:
         bf:9e:98:23:38:30:f2:00:e3:ca:47:df:ad:46:e8:7b:b2:ae:
         1e:af:fd:c7:2e:b7:7d:b7:46:df:cd:bf:06:77:19:29:2b:fc:
         7c:f9:f7:2f:59:ce:90:a6:9e:70:33:58:b6:72:a4:ed:63:9b:
         50:62:6c:38:01:73:63:48:4e:6b:34:3f:c4:d5:de:45:09:a9:
         27:d1:78:36:59:1e:21:ad:a9:a3:1f:14:25:d1:ce:ab:90:3f:
         c0:82:7a:54:fe:6b:48:fc:52:e1:f4:69:2d:84:2e:1c:7b:6f:
         42:4a:7b:05:91:70:0d:f3:ae:b3:d6:bc:7a:fa:9c:c8:0a:e8:
         f1:a0:fa:ee:f3:fe:1d:34:0e:31:79:d8:80:57:53:23:af:65:
         92:94:ef:16:de:e0:9f:0a:5a:17:ba:e8:81:90:e1:e4:24:97:
         b4:73:82:4c:38:4c:45:2f:82:75:55:4b:af:b8:58:b3:b1:d1:
         60:ab:53:5f
-----BEGIN CERTIFICATE-----
MIIE1TCCA72gAwIBAgIBZDANBgkqhkiG9w0BAQsFADCBojELMAkGA1UEBhMCVVMx
EzARBgNVBAgMCldhc2hpbmd0b24xEDAOBgNVBAcMB1NlYXR0bGUxFTATBgNVBAoM
DHdvbGZTU0wgSW5jLjEUMBIGA1UECwwLRW5naW5lZXJpbmcxHjAcBgNVBAMMFWNo
YWluRy1JQ0E1LXBhdGhsZW4yMDEfMB0GCSqGSIb3DQEJARYQaW5mb0B3b2xmc3Ns
LmNvbTAeFw0xOTEwMTEwMDI4MDlaFw0yMjA3MDcwMDI4MDlaMIGhMQswCQYDVQQG
EwJVUzETMBEGA1UECAwKV2FzaGluZ3RvbjEQMA4GA1UEBwwHU2VhdHRsZTEVMBMG
A1UECgwMd29sZlNTTCBJbmMuMRQwEgYDVQQLDAtFbmdpbmVlcmluZzEdMBsGA1UE
AwwUY2hhaW5HLUlDQTQtcGF0aGxlbjUxHzAdBgkqhkiG9w0BCQEWEGluZm9Ad29s
ZnNzbC5jb20wggEiMA0GCSqGSIb3DQEBAQUAA4IBDwAwggEKAoIBAQDJS6B3uEJD
luH0jR2mLNgSokBJEetf+2wdFT6v3TvH/clhQ5mOx7xjvFuTJPPlZsg+Opx9DhvB
bISMkLARqiMteJkXPulroIxk/RB7Zu20PrCW7zYfLW3Eljxa3IPC6c1k01/H6tuE
LiQMd9H9jM/XeK9bmOnE/Wb6dh16w8NkMq25i1pMgu06/gdEIBOI3wIs2ZchpDmm
836L4sDMhmtaJTDX+bop7xsu9j/BfbEMlY7AznNBRxzsM0RgRp2wdQdQyBm/HoLI
wz3Y4hkeCzadNJWH6qAf6IBgpbGUQh5XyKDmrfhzyILkOITTl/yFxN7SwMVtxx7r
HcHx3pcnyr5LAgMBAAGjggETMIIBDzAdBgNVHQ4EFgQU1JKuvTscZksXiBgV+Cer
OMwHWmUwgc8GA1UdIwSBxzCBxIAUHVGAtpqnrN2Ae0uiC2K+5Icwx8qhgaikgaUw
gaIxCzAJBgNVBAYTAlVTMRMwEQYDVQQIDApXYXNoaW5ndG9uMRAwDgYDVQQHDAdT
ZWF0dGxlMRUwEwYDVQQKDAx3b2xmU1NMIEluYy4xFDASBgNVBAsMC0VuZ2luZWVy
aW5nMR4wHAYDVQQDDBVjaGFpbkctSUNBNi1wYXRobGVuMTAxHzAdBgkqhkiG9w0B
CQEWEGluZm9Ad29sZnNzbC5jb22CAWQwDwYDVR0TBAgwBgEB/wIBBTALBgNVHQ8E
BAMCAQYwDQYJKoZIhvcNAQELBQADggEBAKv/1IdRYfmlaI1O/QEM43WaxRbyxB7Y
vdTOnrm9ctvyiSt6RrRsFuXcWuvQP2OomIIO38YaQKIaoNVJEKb0rhBhCi6RDbzP
6b+emCM4MPIA48pH361G6Huyrh6v/ccut323Rt/NvwZ3GSkr/Hz59y9ZzpCmnnAz
WLZypO1jm1BibDgBc2NITms0P8TV3kUJqSfReDZZHiGtqaMfFCXRzquQP8CCelT+
a0j8UuH0aS2ELhx7b0JKewWRcA3zrrPWvHr6nMgK6PGg+u7z/h00DjF52IBXUyOv
ZZKU7xbe4J8KWhe66IGQ4eQkl7Rzgkw4TEUvgnVVS6+4WLOx0WCrU18=
-----END CERTIFICATE-----
