Certificate:
    Data:
        Version: 3 (0x2)
        Serial Number: 100 (0x64)
        Signature Algorithm: sha256WithRSAEncryption
        Issuer: C = US, ST = Montana, L = Bozeman, O = Sawtooth, OU = Consulting, CN = www.wolfssl.com, emailAddress = info@wolfssl.com
        Validity
            Not Before: Oct 11 00:28:08 2019 GMT
            Not After : Jul  7 00:28:08 2022 GMT
        Subject: C = US, ST = Washington, L = Seattle, O = wolfSSL Inc., OU = Engineering, CN = chainC-ICA1-pathlen1, emailAddress = info@wolfssl.com
        Subject Public Key Info:
            Public Key Algorithm: rsaEncryption
                RSA Public-Key: (2048 bit)
                Modulus:
                    00:bb:1a:6c:c1:bd:bb:9b:29:ca:35:3d:63:a3:29:
                    cd:a6:65:c4:9e:a3:c5:50:99:ad:51:90:0a:9a:9b:
                    83:ce:be:06:bb:66:4f:ef:1e:31:25:34:6f:5f:98:
                    ae:01:49:c3:63:17:84:b9:7a:6d:c0:d8:fd:0c:ff:
                    9a:02:4c:41:37:49:f0:18:63:1b:4f:fc:37:26:4e:
                    54:79:d7:17:39:50:79:6e:a3:29:99:07:ad:9d:5c:
                    d8:e1:02:e7:33:7e:e4:da:a4:05:bc:62:03:d3:9f:
                    6a:91:92:66:dd:29:d0:95:fb:2f:3f:f0:59:b8:70:
                    5b:25:54:7b:a0:0a:9f:33:09:64:ed:fb:d4:1c:2d:
                    96:54:45:e3:50:98:ff:b1:7f:9a:c6:cf:09:a3:da:
                    e9:57:ad:1d:05:8f:1e:75:75:e7:d2:07:33:de:da:
                    7d:42:d8:0e:94:fe:ae:c7:9b:c3:b5:9e:f3:6b:21:
                    9f:74:c4:b3:32:7c:28:4e:0f:bc:15:33:ba:9c:09:
                    3c:c1:40:06:78:bb:b1:20:3f:61:15:f6:1e:49:73:
                    51:89:95:2d:95:bf:34:d6:c2:a9:d1:34:1d:8d:21:
                    6d:4f:a3:6e:ef:fc:23:a2:76:fc:d0:25:53:0e:43:
                    76:3b:ed:82:ec:d8:23:cb:33:ef:3c:9d:a1:de:e6:
                    7a:ad
                Exponent: 65537 (0x10001)
        X509v3 extensions:
            X509v3 Subject Key Identifier: 
                94:1D:2E:07:37:C6:2F:52:C1:EC:79:6B:13:CE:09:90:5F:F4:C4:51
            X509v3 Authority Key Identifier: 
                keyid:27:8E:67:11:74:C3:26:1D:3F:ED:33:63:B3:A4:D8:1D:30:E5:E8:D5
                DirName:/C=US/ST=Montana/L=Bozeman/O=Sawtooth/OU=Consulting/CN=www.wolfssl.com/emailAddress=info@wolfssl.com
                serial:86:FF:F5:8E:10:DE:B8:FB

            X509v3 Basic Constraints: 
                CA:TRUE, pathlen:1
            X509v3 Key Usage: 
                Certificate Sign, CRL Sign
    Signature Algorithm: sha256WithRSAEncryption
         65:d2:6a:a3:a2:98:ac:5a:53:e4:b4:02:66:8e:9c:64:fa:53:
         88:a7:31:09:fa:31:4d:27:7a:17:7a:1c:8f:13:2a:e5:60:e4:
         f2:0f:6a:e6:a6:48:ed:e4:17:0e:cb:57:77:66:98:c0:37:2f:
         00:26:1e:1a:a8:e4:ad:9e:c9:47:4d:6c:c5:57:75:79:97:be:
         0f:82:92:aa:b0:df:0d:f4:25:49:fd:c6:6f:e7:70:f1:f0:0d:
         e7:13:81:ed:a1:1e:69:f3:10:3d:3e:3c:5b:c0:71:fb:44:47:
         e2:bc:51:62:6c:21:7a:ea:ad:74:f5:46:35:63:93:ab:f9:89:
         31:e6:01:5f:eb:ca:df:d3:93:86:3d:8b:0a:88:79:f1:b1:47:
         df:1f:2e:a0:7e:34:f6:80:30:7d:bd:e5:70:43:0d:76:2a:fc:
         fe:38:4f:3a:bc:58:52:81:37:5e:e9:3b:26:f4:8d:20:5f:f2:
         44:56:e8:b8:cc:42:7a:5e:67:28:34:c3:8f:a9:08:87:92:4b:
         bc:1d:3b:d1:1a:d8:79:20:eb:4a:6f:87:b3:3b:ef:2f:a6:98:
         34:48:a6:43:ba:d4:fa:65:6f:54:9b:28:a1:e1:77:fe:0e:91:
         0b:4f:f5:95:3e:b3:c9:4e:2d:17:67:37:5b:d5:dd:83:ef:a4:
         b4:41:53:36
-----BEGIN CERTIFICATE-----
MIIEwTCCA6mgAwIBAgIBZDANBgkqhkiG9w0BAQsFADCBlDELMAkGA1UEBhMCVVMx
EDAOBgNVBAgMB01vbnRhbmExEDAOBgNVBAcMB0JvemVtYW4xETAPBgNVBAoMCFNh
d3Rvb3RoMRMwEQYDVQQLDApDb25zdWx0aW5nMRgwFgYDVQQDDA93d3cud29sZnNz
bC5jb20xHzAdBgkqhkiG9w0BCQEWEGluZm9Ad29sZnNzbC5jb20wHhcNMTkxMDEx
MDAyODA4WhcNMjIwNzA3MDAyODA4WjCBoTELMAkGA1UEBhMCVVMxEzARBgNVBAgM
Cldhc2hpbmd0b24xEDAOBgNVBAcMB1NlYXR0bGUxFTATBgNVBAoMDHdvbGZTU0wg
SW5jLjEUMBIGA1UECwwLRW5naW5lZXJpbmcxHTAbBgNVBAMMFGNoYWluQy1JQ0Ex
LXBhdGhsZW4xMR8wHQYJKoZIhvcNAQkBFhBpbmZvQHdvbGZzc2wuY29tMIIBIjAN
BgkqhkiG9w0BAQEFAAOCAQ8AMIIBCgKCAQEAuxpswb27mynKNT1joynNpmXEnqPF
UJmtUZAKmpuDzr4Gu2ZP7x4xJTRvX5iuAUnDYxeEuXptwNj9DP+aAkxBN0nwGGMb
T/w3Jk5UedcXOVB5bqMpmQetnVzY4QLnM37k2qQFvGID059qkZJm3SnQlfsvP/BZ
uHBbJVR7oAqfMwlk7fvUHC2WVEXjUJj/sX+axs8Jo9rpV60dBY8edXXn0gcz3tp9
QtgOlP6ux5vDtZ7zayGfdMSzMnwoTg+8FTO6nAk8wUAGeLuxID9hFfYeSXNRiZUt
lb801sKp0TQdjSFtT6Nu7/wjonb80CVTDkN2O+2C7NgjyzPvPJ2h3uZ6rQIDAQAB
o4IBDTCCAQkwHQYDVR0OBBYEFJQdLgc3xi9Swex5axPOCZBf9MRRMIHJBgNVHSME
gcEwgb6AFCeOZxF0wyYdP+0zY7Ok2B0w5ejVoYGapIGXMIGUMQswCQYDVQQGEwJV
UzEQMA4GA1UECAwHTW9udGFuYTEQMA4GA1UEBwwHQm96ZW1hbjERMA8GA1UECgwI
U2F3dG9vdGgxEzARBgNVBAsMCkNvbnN1bHRpbmcxGDAWBgNVBAMMD3d3dy53b2xm
c3NsLmNvbTEfMB0GCSqGSIb3DQEJARYQaW5mb0B3b2xmc3NsLmNvbYIJAIb/9Y4Q
3rj7MA8GA1UdEwQIMAYBAf8CAQEwCwYDVR0PBAQDAgEGMA0GCSqGSIb3DQEBCwUA
A4IBAQBl0mqjopisWlPktAJmjpxk+lOIpzEJ+jFNJ3oXehyPEyrlYOTyD2rmpkjt
5BcOy1d3ZpjANy8AJh4aqOStnslHTWzFV3V5l74PgpKqsN8N9CVJ/cZv53Dx8A3n
E4HtoR5p8xA9PjxbwHH7REfivFFibCF66q109UY1Y5Or+Ykx5gFf68rf05OGPYsK
iHnxsUffHy6gfjT2gDB9veVwQw12Kvz+OE86vFhSgTde6Tsm9I0gX/JEVui4zEJ6
XmcoNMOPqQiHkku8HTvRGth5IOtKb4ezO+8vppg0SKZDutT6ZW9Umyih4Xf+DpEL
T/WVPrPJTi0XZzdb1d2D76S0QVM2
-----END CERTIFICATE-----
