Certificate:
    Data:
        Version: 3 (0x2)
        Serial Number: 101 (0x65)
        Signature Algorithm: sha256WithRSAEncryption
        Issuer: C = US, ST = Washington, L = Seattle, O = wolfSSL Inc., OU = Engineering, CN = chainE-ICA1-pathlen128, emailAddress = info@wolfssl.com
        Validity
            Not Before: Oct 11 00:28:09 2019 GMT
            Not After : Jul  7 00:28:09 2022 GMT
        Subject: C = US, ST = Washington, L = Seattle, O = wolfSSL Inc., OU = Engineering, CN = chainE-entity, emailAddress = info@wolfssl.com
        Subject Public Key Info:
            Public Key Algorithm: rsaEncryption
                RSA Public-Key: (2048 bit)
                Modulus:
                    00:d8:6f:49:bb:56:ea:34:4c:25:a6:8c:44:f6:c9:
                    75:8f:6b:83:b8:8b:ec:c6:f6:d3:c7:40:e2:d1:b2:
                    d8:77:92:e9:97:c4:b6:57:ad:10:c8:cb:e7:0a:40:
                    ef:3c:a8:38:dc:94:22:08:e7:53:2a:c8:7a:26:90:
                    41:43:6f:7b:8f:4e:58:74:69:20:92:9f:12:aa:6a:
                    c5:cf:7f:24:d1:d0:89:2f:6c:5e:62:31:0a:20:23:
                    6b:07:c2:a0:7d:4d:ed:05:6d:2c:b1:9a:85:e6:41:
                    61:12:6c:85:d3:d4:be:7e:cf:23:d9:79:b1:46:23:
                    d7:1a:f7:d6:f4:97:43:a5:08:03:7a:51:0d:b0:e7:
                    56:62:86:37:07:81:e8:21:f1:10:63:41:b6:82:6d:
                    f2:cd:d9:7f:80:6f:a7:4b:77:10:15:54:02:9c:7a:
                    d0:6e:b8:29:98:72:34:08:7b:ce:d7:24:91:48:a6:
                    c3:f2:9d:77:fc:aa:73:13:70:60:f9:8f:37:4c:d7:
                    34:5c:fa:51:b1:c0:d5:25:e1:75:b2:e2:cd:23:97:
                    c9:a6:bf:d3:5e:21:4b:12:f5:b2:d0:df:92:7f:4c:
                    a8:b2:21:43:2c:f9:3e:fb:14:99:1f:ed:76:2c:87:
                    5a:df:72:d3:85:a3:a8:92:1a:ad:66:19:50:44:8a:
                    05:e1
                Exponent: 65537 (0x10001)
        X509v3 extensions:
            X509v3 Subject Key Identifier: 
                26:FC:70:E0:8F:A1:3D:52:82:76:6B:CB:C7:0F:89:9D:2B:86:69:F5
            X509v3 Authority Key Identifier: 
                keyid:44:7B:00:7C:9C:1C:97:9F:97:AA:6B:F2:5E:E6:81:7C:0E:AE:E6:2B
                DirName:/C=US/ST=Montana/L=Bozeman/O=Sawtooth/OU=Consulting/CN=www.wolfssl.com/emailAddress=info@wolfssl.com
                serial:64

            X509v3 Basic Constraints: 
                CA:FALSE
    Signature Algorithm: sha256WithRSAEncryption
         1a:af:fd:cb:5e:63:ed:ac:39:c5:e1:0f:32:2c:6e:f2:0b:23:
         1d:d8:61:e4:39:d6:a6:e6:69:a3:df:f7:3b:80:84:22:72:58:
         0e:bc:ef:92:10:65:93:16:20:e4:69:d7:d1:58:0b:33:f2:68:
         a2:6b:76:36:d0:f0:36:3c:61:31:dc:44:a0:00:e2:80:9e:62:
         d5:fe:cc:08:66:ca:23:88:b3:e0:48:32:be:d8:dd:d2:a6:f9:
         20:13:1a:1f:a0:65:80:8d:d8:c5:c6:c5:3f:1a:ec:ae:2a:a5:
         ac:de:97:eb:56:96:c7:55:16:ee:5f:e2:74:e2:03:1f:91:69:
         70:b8:fb:5a:42:26:7a:fa:5e:8d:19:eb:5a:2e:32:09:c9:95:
         be:9e:34:d4:90:88:42:7e:ad:70:8b:cf:7d:5d:d0:a8:91:aa:
         93:1a:d1:15:7c:2d:a7:af:c2:d2:d7:65:20:5e:8b:3d:b1:df:
         98:5f:56:ad:ed:57:ca:53:ac:0e:f7:86:a4:80:d2:ea:f2:01:
         e6:b0:5f:6f:4f:12:17:31:7c:8e:24:43:ac:94:06:aa:6d:a4:
         eb:eb:43:b6:64:ed:76:24:bf:73:d8:7c:56:7e:d5:8b:66:f6:
         cb:09:0d:f7:44:34:a3:93:d8:e7:36:1a:5f:0f:51:22:09:79:
         24:dd:31:9e
-----BEGIN CERTIFICATE-----
MIIErDCCA5SgAwIBAgIBZTANBgkqhkiG9w0BAQsFADCBozELMAkGA1UEBhMCVVMx
EzARBgNVBAgMCldhc2hpbmd0b24xEDAOBgNVBAcMB1NlYXR0bGUxFTATBgNVBAoM
DHdvbGZTU0wgSW5jLjEUMBIGA1UECwwLRW5naW5lZXJpbmcxHzAdBgNVBAMMFmNo
YWluRS1JQ0ExLXBhdGhsZW4xMjgxHzAdBgkqhkiG9w0BCQEWEGluZm9Ad29sZnNz
bC5jb20wHhcNMTkxMDExMDAyODA5WhcNMjIwNzA3MDAyODA5WjCBmjELMAkGA1UE
BhMCVVMxEzARBgNVBAgMCldhc2hpbmd0b24xEDAOBgNVBAcMB1NlYXR0bGUxFTAT
BgNVBAoMDHdvbGZTU0wgSW5jLjEUMBIGA1UECwwLRW5naW5lZXJpbmcxFjAUBgNV
BAMMDWNoYWluRS1lbnRpdHkxHzAdBgkqhkiG9w0BCQEWEGluZm9Ad29sZnNzbC5j
b20wggEiMA0GCSqGSIb3DQEBAQUAA4IBDwAwggEKAoIBAQDYb0m7Vuo0TCWmjET2
yXWPa4O4i+zG9tPHQOLRsth3kumXxLZXrRDIy+cKQO88qDjclCII51MqyHomkEFD
b3uPTlh0aSCSnxKqasXPfyTR0IkvbF5iMQogI2sHwqB9Te0FbSyxmoXmQWESbIXT
1L5+zyPZebFGI9ca99b0l0OlCAN6UQ2w51ZihjcHgegh8RBjQbaCbfLN2X+Ab6dL
dxAVVAKcetBuuCmYcjQIe87XJJFIpsPynXf8qnMTcGD5jzdM1zRc+lGxwNUl4XWy
4s0jl8mmv9NeIUsS9bLQ35J/TKiyIUMs+T77FJkf7XYsh1rfctOFo6iSGq1mGVBE
igXhAgMBAAGjgfEwge4wHQYDVR0OBBYEFCb8cOCPoT1SgnZry8cPiZ0rhmn1MIHB
BgNVHSMEgbkwgbaAFER7AHycHJefl6pr8l7mgXwOruYroYGapIGXMIGUMQswCQYD
VQQGEwJVUzEQMA4GA1UECAwHTW9udGFuYTEQMA4GA1UEBwwHQm96ZW1hbjERMA8G
A1UECgwIU2F3dG9vdGgxEzARBgNVBAsMCkNvbnN1bHRpbmcxGDAWBgNVBAMMD3d3
dy53b2xmc3NsLmNvbTEfMB0GCSqGSIb3DQEJARYQaW5mb0B3b2xmc3NsLmNvbYIB
ZDAJBgNVHRMEAjAAMA0GCSqGSIb3DQEBCwUAA4IBAQAar/3LXmPtrDnF4Q8yLG7y
CyMd2GHkOdam5mmj3/c7gIQiclgOvO+SEGWTFiDkadfRWAsz8miia3Y20PA2PGEx
3ESgAOKAnmLV/swIZsojiLPgSDK+2N3SpvkgExofoGWAjdjFxsU/GuyuKqWs3pfr
VpbHVRbuX+J04gMfkWlwuPtaQiZ6+l6NGetaLjIJyZW+njTUkIhCfq1wi899XdCo
kaqTGtEVfC2nr8LS12UgXos9sd+YX1at7VfKU6wO94akgNLq8gHmsF9vTxIXMXyO
JEOslAaqbaTr60O2ZO12JL9z2HxWftWLZvbLCQ33RDSjk9jnNhpfD1EiCXkk3TGe
-----END CERTIFICATE-----
Certificate:
    Data:
        Version: 3 (0x2)
        Serial Number: 100 (0x64)
        Signature Algorithm: sha256WithRSAEncryption
        Issuer: C = US, ST = Montana, L = Bozeman, O = Sawtooth, OU = Consulting, CN = www.wolfssl.com, emailAddress = info@wolfssl.com
        Validity
            Not Before: Oct 11 00:28:09 2019 GMT
            Not After : Jul  7 00:28:09 2022 GMT
        Subject: C = US, ST = Washington, L = Seattle, O = wolfSSL Inc., OU = Engineering, CN = chainE-ICA1-pathlen128, emailAddress = info@wolfssl.com
        Subject Public Key Info:
            Public Key Algorithm: rsaEncryption
                RSA Public-Key: (2048 bit)
                Modulus:
                    00:d6:f3:6f:b8:db:10:df:89:df:3b:d9:2e:7a:c1:
                    34:1a:56:97:6c:73:04:fc:15:50:04:93:66:cb:17:
                    ba:fb:f9:28:b9:d6:ce:7e:f5:78:bb:b1:4f:aa:4b:
                    f8:80:35:d9:ae:fe:99:75:f7:cd:79:0b:cf:ca:da:
                    cb:58:9a:6e:9b:91:21:f4:17:fd:56:b8:3a:cf:cf:
                    ed:f7:90:6a:73:6c:06:99:ef:0e:8f:65:dc:d0:e8:
                    db:7b:c1:e8:4d:6d:61:9e:cc:5a:20:de:86:3a:58:
                    81:fa:b1:d4:5f:3c:74:43:45:61:36:2c:fe:a4:35:
                    ae:e2:39:c7:fd:dd:b3:83:d6:17:dc:f5:99:3f:67:
                    0e:c1:60:d1:69:8d:3c:f9:62:e9:83:ae:66:10:aa:
                    40:91:63:0b:2a:e5:c1:a8:1f:8e:8a:9b:11:9f:bf:
                    a6:45:fb:16:70:ed:6c:1b:14:98:80:69:04:c3:bd:
                    13:22:e7:d9:33:48:9d:8a:6c:0f:9c:39:08:29:92:
                    83:7b:73:a3:da:86:d6:4a:00:0f:a7:c2:7b:bf:ac:
                    0f:2a:62:96:5b:3b:ef:9f:e1:08:bb:44:ba:c4:99:
                    4f:a0:b9:5e:4d:cb:73:73:fe:ee:82:69:4f:af:c7:
                    59:5a:36:81:44:c6:e3:50:3b:bf:8d:14:ef:7e:96:
                    ef:c1
                Exponent: 65537 (0x10001)
        X509v3 extensions:
            X509v3 Subject Key Identifier: 
                44:7B:00:7C:9C:1C:97:9F:97:AA:6B:F2:5E:E6:81:7C:0E:AE:E6:2B
            X509v3 Authority Key Identifier: 
                keyid:27:8E:67:11:74:C3:26:1D:3F:ED:33:63:B3:A4:D8:1D:30:E5:E8:D5
                DirName:/C=US/ST=Montana/L=Bozeman/O=Sawtooth/OU=Consulting/CN=www.wolfssl.com/emailAddress=info@wolfssl.com
                serial:86:FF:F5:8E:10:DE:B8:FB

            X509v3 Basic Constraints: 
                CA:TRUE, pathlen:128
            X509v3 Key Usage: 
                Certificate Sign, CRL Sign
    Signature Algorithm: sha256WithRSAEncryption
         81:17:73:e0:8e:30:5f:5e:a7:25:a8:c0:89:f0:2a:c5:cc:72:
         30:0a:55:f2:c8:13:34:de:3c:7c:5e:e1:56:5e:72:04:10:8b:
         4b:05:3b:14:3c:37:0e:48:68:23:a1:2c:f5:72:f0:36:57:79:
         fa:6f:ee:b0:17:83:f0:8a:1f:f0:6b:88:3b:57:c8:b2:57:c9:
         4e:35:14:a8:d7:31:db:68:74:8c:30:24:b3:9d:c9:8d:8c:36:
         34:30:0e:f3:4e:74:bd:14:77:c8:13:7f:bc:d3:21:34:e8:87:
         e7:a3:80:62:ea:20:4b:40:ef:f5:97:db:c7:63:6b:e4:06:12:
         1a:b7:55:da:5a:34:32:95:59:c4:68:85:2c:87:dd:77:5f:ff:
         28:cf:95:c3:68:f8:c4:32:af:8e:c6:2c:39:6b:bd:3a:dd:18:
         16:a8:a7:0e:9d:93:6d:8e:77:b1:0e:86:55:0d:a4:aa:e6:3f:
         f5:69:1d:d5:c0:5e:1a:b1:bc:ab:5f:eb:1f:76:6a:c5:22:57:
         a9:f1:ee:55:56:37:61:9e:49:e6:bc:8b:e9:9d:6b:11:6f:90:
         cb:d6:18:3c:81:f2:c8:4c:92:e4:4d:73:d1:a1:be:8d:fe:d7:
         54:20:d4:df:43:7d:e7:57:f1:dd:9f:a0:6d:cd:e3:ab:30:fa:
         cc:29:0b:01
-----BEGIN CERTIFICATE-----
MIIExDCCA6ygAwIBAgIBZDANBgkqhkiG9w0BAQsFADCBlDELMAkGA1UEBhMCVVMx
EDAOBgNVBAgMB01vbnRhbmExEDAOBgNVBAcMB0JvemVtYW4xETAPBgNVBAoMCFNh
d3Rvb3RoMRMwEQYDVQQLDApDb25zdWx0aW5nMRgwFgYDVQQDDA93d3cud29sZnNz
bC5jb20xHzAdBgkqhkiG9w0BCQEWEGluZm9Ad29sZnNzbC5jb20wHhcNMTkxMDEx
MDAyODA5WhcNMjIwNzA3MDAyODA5WjCBozELMAkGA1UEBhMCVVMxEzARBgNVBAgM
Cldhc2hpbmd0b24xEDAOBgNVBAcMB1NlYXR0bGUxFTATBgNVBAoMDHdvbGZTU0wg
SW5jLjEUMBIGA1UECwwLRW5naW5lZXJpbmcxHzAdBgNVBAMMFmNoYWluRS1JQ0Ex
LXBhdGhsZW4xMjgxHzAdBgkqhkiG9w0BCQEWEGluZm9Ad29sZnNzbC5jb20wggEi
MA0GCSqGSIb3DQEBAQUAA4IBDwAwggEKAoIBAQDW82+42xDfid872S56wTQaVpds
cwT8FVAEk2bLF7r7+Si51s5+9Xi7sU+qS/iANdmu/pl19815C8/K2stYmm6bkSH0
F/1WuDrPz+33kGpzbAaZ7w6PZdzQ6Nt7wehNbWGezFog3oY6WIH6sdRfPHRDRWE2
LP6kNa7iOcf93bOD1hfc9Zk/Zw7BYNFpjTz5YumDrmYQqkCRYwsq5cGoH46KmxGf
v6ZF+xZw7WwbFJiAaQTDvRMi59kzSJ2KbA+cOQgpkoN7c6PahtZKAA+nwnu/rA8q
YpZbO++f4Qi7RLrEmU+guV5Ny3Nz/u6CaU+vx1laNoFExuNQO7+NFO9+lu/BAgMB
AAGjggEOMIIBCjAdBgNVHQ4EFgQURHsAfJwcl5+XqmvyXuaBfA6u5iswgckGA1Ud
IwSBwTCBvoAUJ45nEXTDJh0/7TNjs6TYHTDl6NWhgZqkgZcwgZQxCzAJBgNVBAYT
AlVTMRAwDgYDVQQIDAdNb250YW5hMRAwDgYDVQQHDAdCb3plbWFuMREwDwYDVQQK
DAhTYXd0b290aDETMBEGA1UECwwKQ29uc3VsdGluZzEYMBYGA1UEAwwPd3d3Lndv
bGZzc2wuY29tMR8wHQYJKoZIhvcNAQkBFhBpbmZvQHdvbGZzc2wuY29tggkAhv/1
jhDeuPswEAYDVR0TBAkwBwEB/wICAIAwCwYDVR0PBAQDAgEGMA0GCSqGSIb3DQEB
CwUAA4IBAQCBF3PgjjBfXqclqMCJ8CrFzHIwClXyyBM03jx8XuFWXnIEEItLBTsU
PDcOSGgjoSz1cvA2V3n6b+6wF4Pwih/wa4g7V8iyV8lONRSo1zHbaHSMMCSzncmN
jDY0MA7zTnS9FHfIE3+80yE06Ifno4Bi6iBLQO/1l9vHY2vkBhIat1XaWjQylVnE
aIUsh913X/8oz5XDaPjEMq+Oxiw5a7063RgWqKcOnZNtjnexDoZVDaSq5j/1aR3V
wF4asbyrX+sfdmrFIlep8e5VVjdhnknmvIvpnWsRb5DL1hg8gfLITJLkTXPRob6N
/tdUINTfQ33nV/Hdn6BtzeOrMPrMKQsB
-----END CERTIFICATE-----
