Certificate:
    Data:
        Version: 3 (0x2)
        Serial Number: 100 (0x64)
        Signature Algorithm: sha256WithRSAEncryption
        Issuer: C = US, ST = Montana, L = Bozeman, O = Sawtooth, OU = Consulting, CN = www.wolfssl.com, emailAddress = info@wolfssl.com
        Validity
            Not Before: Oct 11 00:28:09 2019 GMT
            Not After : Jul  7 00:28:09 2022 GMT
        Subject: C = US, ST = Washington, L = Seattle, O = wolfSSL Inc., OU = Engineering, CN = chainG-ICA7-pathlen100, emailAddress = info@wolfssl.com
        Subject Public Key Info:
            Public Key Algorithm: rsaEncryption
                RSA Public-Key: (2048 bit)
                Modulus:
                    00:d6:8c:d6:c4:29:20:60:9d:15:3d:0c:2a:fb:24:
                    2f:38:89:ed:37:c4:fc:57:67:2a:50:d8:eb:e2:6a:
                    1c:59:06:f2:6d:3e:b9:4f:fe:49:c5:21:c0:16:f8:
                    29:6f:51:0c:ea:78:d7:0e:15:41:da:5a:cb:0b:e0:
                    54:d6:83:fd:0f:e8:4e:30:ff:e4:44:c3:b2:02:f3:
                    7d:3a:c6:5c:4e:86:86:2c:74:d4:21:85:c1:fe:4e:
                    8b:07:3c:54:1b:54:9e:ec:5a:a5:95:ed:5a:35:e0:
                    08:c6:84:7c:e6:ae:71:12:d2:fd:c1:fd:16:0a:3a:
                    b8:c7:23:4b:af:e0:cd:12:5e:9f:4f:62:13:f0:c8:
                    e4:e2:a8:01:d3:37:b0:08:21:d3:0f:6c:e4:d8:c1:
                    04:51:e9:4c:c5:b1:6d:cc:63:23:97:30:ee:f0:1e:
                    ab:6d:ea:93:ca:ad:56:6f:1e:ed:1a:ae:8c:1b:91:
                    04:ea:ab:9d:1b:3b:56:a7:c1:cc:2f:39:2f:b3:ba:
                    8c:16:fd:5e:10:10:9e:24:ea:40:97:74:b6:b4:e5:
                    1c:c0:d3:5f:79:2c:04:43:3a:8e:f4:b1:56:bd:c7:
                    25:63:5c:34:50:4d:bd:2d:f1:08:bd:8c:3e:d2:6f:
                    fa:e4:04:a1:51:eb:d0:d0:90:91:97:7b:46:c6:10:
                    92:af
                Exponent: 65537 (0x10001)
        X509v3 extensions:
            X509v3 Subject Key Identifier: 
                12:E4:A4:19:85:AE:85:B7:D6:EB:63:04:D5:B9:B0:7E:57:5F:0C:16
            X509v3 Authority Key Identifier: 
                keyid:27:8E:67:11:74:C3:26:1D:3F:ED:33:63:B3:A4:D8:1D:30:E5:E8:D5
                DirName:/C=US/ST=Montana/L=Bozeman/O=Sawtooth/OU=Consulting/CN=www.wolfssl.com/emailAddress=info@wolfssl.com
                serial:86:FF:F5:8E:10:DE:B8:FB

            X509v3 Basic Constraints: 
                CA:TRUE, pathlen:100
            X509v3 Key Usage: 
                Certificate Sign, CRL Sign
    Signature Algorithm: sha256WithRSAEncryption
         ae:bd:d0:c5:e1:4f:80:0f:85:0d:d2:e0:b5:c3:dc:73:99:94:
         90:19:01:f2:23:66:83:da:92:f2:e8:14:dc:70:e0:20:14:26:
         c5:63:88:6a:1b:b3:f3:2f:5c:28:39:1e:6b:a7:40:9b:02:12:
         ac:88:06:1e:c6:dd:9d:d4:6a:b8:22:cb:b7:aa:7a:9c:77:9a:
         37:0a:62:54:23:f3:e7:b9:4f:e0:8a:41:bd:74:21:69:be:7c:
         19:50:7d:d1:93:98:7c:4a:06:60:64:72:f0:09:71:6e:86:43:
         2f:89:dc:38:4a:c1:e4:cc:bc:72:6f:c2:b1:c1:9c:38:ff:98:
         87:92:3b:a6:f2:b5:2d:0a:41:38:0d:e7:b5:41:cf:c1:6d:96:
         34:98:9e:97:c8:87:a9:9e:4b:bb:73:bb:34:d6:bd:61:ef:36:
         c8:45:f3:c9:31:36:2c:f1:11:68:4b:a0:f8:b6:9d:c4:a6:8a:
         dc:e3:fc:60:f7:50:d2:d4:98:d4:e5:f9:76:ca:4a:3c:74:9a:
         bb:95:ce:3c:29:ce:be:b5:9e:07:55:e2:c4:a1:1f:b4:0d:eb:
         87:03:1d:79:1b:e2:fc:f3:aa:4b:df:3e:24:72:56:00:b9:b4:
         a0:fc:48:80:6a:76:84:1b:79:ea:03:95:32:42:bc:9d:7a:83:
         87:be:51:d2
-----BEGIN CERTIFICATE-----
MIIEwzCCA6ugAwIBAgIBZDANBgkqhkiG9w0BAQsFADCBlDELMAkGA1UEBhMCVVMx
EDAOBgNVBAgMB01vbnRhbmExEDAOBgNVBAcMB0JvemVtYW4xETAPBgNVBAoMCFNh
d3Rvb3RoMRMwEQYDVQQLDApDb25zdWx0aW5nMRgwFgYDVQQDDA93d3cud29sZnNz
bC5jb20xHzAdBgkqhkiG9w0BCQEWEGluZm9Ad29sZnNzbC5jb20wHhcNMTkxMDEx
MDAyODA5WhcNMjIwNzA3MDAyODA5WjCBozELMAkGA1UEBhMCVVMxEzARBgNVBAgM
Cldhc2hpbmd0b24xEDAOBgNVBAcMB1NlYXR0bGUxFTATBgNVBAoMDHdvbGZTU0wg
SW5jLjEUMBIGA1UECwwLRW5naW5lZXJpbmcxHzAdBgNVBAMMFmNoYWluRy1JQ0E3
LXBhdGhsZW4xMDAxHzAdBgkqhkiG9w0BCQEWEGluZm9Ad29sZnNzbC5jb20wggEi
MA0GCSqGSIb3DQEBAQUAA4IBDwAwggEKAoIBAQDWjNbEKSBgnRU9DCr7JC84ie03
xPxXZypQ2OviahxZBvJtPrlP/knFIcAW+ClvUQzqeNcOFUHaWssL4FTWg/0P6E4w
/+REw7IC8306xlxOhoYsdNQhhcH+TosHPFQbVJ7sWqWV7Vo14AjGhHzmrnES0v3B
/RYKOrjHI0uv4M0SXp9PYhPwyOTiqAHTN7AIIdMPbOTYwQRR6UzFsW3MYyOXMO7w
Hqtt6pPKrVZvHu0arowbkQTqq50bO1anwcwvOS+zuowW/V4QEJ4k6kCXdLa05RzA
0195LARDOo70sVa9xyVjXDRQTb0t8Qi9jD7Sb/rkBKFR69DQkJGXe0bGEJKvAgMB
AAGjggENMIIBCTAdBgNVHQ4EFgQUEuSkGYWuhbfW62ME1bmwfldfDBYwgckGA1Ud
IwSBwTCBvoAUJ45nEXTDJh0/7TNjs6TYHTDl6NWhgZqkgZcwgZQxCzAJBgNVBAYT
AlVTMRAwDgYDVQQIDAdNb250YW5hMRAwDgYDVQQHDAdCb3plbWFuMREwDwYDVQQK
DAhTYXd0b290aDETMBEGA1UECwwKQ29uc3VsdGluZzEYMBYGA1UEAwwPd3d3Lndv
bGZzc2wuY29tMR8wHQYJKoZIhvcNAQkBFhBpbmZvQHdvbGZzc2wuY29tggkAhv/1
jhDeuPswDwYDVR0TBAgwBgEB/wIBZDALBgNVHQ8EBAMCAQYwDQYJKoZIhvcNAQEL
BQADggEBAK690MXhT4APhQ3S4LXD3HOZlJAZAfIjZoPakvLoFNxw4CAUJsVjiGob
s/MvXCg5HmunQJsCEqyIBh7G3Z3Uargiy7eqepx3mjcKYlQj8+e5T+CKQb10IWm+
fBlQfdGTmHxKBmBkcvAJcW6GQy+J3DhKweTMvHJvwrHBnDj/mIeSO6bytS0KQTgN
57VBz8FtljSYnpfIh6meS7tzuzTWvWHvNshF88kxNizxEWhLoPi2ncSmitzj/GD3
UNLUmNTl+XbKSjx0mruVzjwpzr61ngdV4sShH7QN64cDHXkb4vzzqkvfPiRyVgC5
tKD8SIBqdoQbeeoDlTJCvJ16g4e+UdI=
-----END CERTIFICATE-----
