Certificate:
    Data:
        Version: 3 (0x2)
        Serial Number: 101 (0x65)
        Signature Algorithm: sha256WithRSAEncryption
        Issuer: C = US, ST = Washington, L = Seattle, O = wolfSSL Inc., OU = Engineering, CN = chainH-ICA1-pathlen0, emailAddress = info@wolfssl.com
        Validity
            Not Before: Oct 11 00:28:10 2019 GMT
            Not After : Jul  7 00:28:10 2022 GMT
        Subject: C = US, ST = Washington, L = Seattle, O = wolfSSL Inc., OU = Engineering, CN = chainH-entity, emailAddress = info@wolfssl.com
        Subject Public Key Info:
            Public Key Algorithm: rsaEncryption
                RSA Public-Key: (2048 bit)
                Modulus:
                    00:ba:ed:ab:c0:0d:92:6c:10:e4:50:9f:7c:98:cc:
                    87:fd:28:34:77:c0:58:28:52:2c:28:97:80:ec:78:
                    02:4f:f4:ca:60:f8:1d:e7:6a:04:52:2e:75:85:42:
                    74:76:00:e4:70:84:b8:51:8e:29:2e:7f:b6:ad:df:
                    6d:09:b4:4f:11:54:1e:88:16:e2:0e:af:30:f0:3d:
                    a7:da:9f:4e:0d:94:5b:05:51:9c:cc:05:65:8d:6b:
                    1e:3c:79:5b:26:7e:cb:ae:e9:9a:71:69:92:41:9b:
                    1a:cd:b4:53:0b:fb:2e:40:c4:e3:b1:5e:b8:8b:f8:
                    cf:0a:ec:5f:07:10:18:54:f8:8a:7d:35:97:7a:7a:
                    98:ea:93:2d:1b:e6:44:16:3f:cc:a7:4c:b9:cf:b5:
                    0b:09:47:b3:b8:8e:02:1a:56:69:37:b7:49:a4:59:
                    90:a3:20:88:f3:87:77:e8:39:0d:39:36:a5:56:b3:
                    ec:4b:f3:5e:8b:c2:cd:47:0c:d9:56:ce:32:f7:71:
                    33:db:7f:7d:c6:1e:7e:71:c1:01:06:98:9e:52:98:
                    9d:d7:9d:4a:32:94:3c:5a:42:66:00:ca:e2:a3:35:
                    db:b7:f3:27:0b:9c:fa:1b:99:4b:51:fa:6c:25:90:
                    f5:76:8c:d9:0d:80:8c:ac:61:eb:4d:92:12:6d:5f:
                    12:e5
                Exponent: 65537 (0x10001)
        X509v3 extensions:
            X509v3 Subject Key Identifier: 
                ED:62:FB:8F:91:CB:DE:B0:C8:89:CE:BA:B5:80:A8:47:F1:72:16:05
            X509v3 Authority Key Identifier: 
                keyid:48:80:87:28:EF:E6:28:0F:03:9B:DF:33:48:10:A0:E5:20:B3:69:50
                DirName:/C=US/ST=Washington/L=Seattle/O=wolfSSL Inc./OU=Engineering/CN=chainH-ICA2-pathlen2/emailAddress=info@wolfssl.com
                serial:64

            X509v3 Basic Constraints: 
                CA:FALSE
    Signature Algorithm: sha256WithRSAEncryption
         bc:fc:a7:c3:c9:a4:57:9e:37:9d:f7:71:eb:5b:7c:a2:1a:0d:
         24:97:12:92:18:fd:0f:5e:5b:f9:27:c9:98:2c:9a:06:bd:77:
         85:63:3c:a4:ed:90:92:3a:79:41:82:c3:54:66:f6:c6:a0:d3:
         ba:a3:19:93:d9:5f:54:90:fc:2b:37:d1:96:88:ba:be:e1:71:
         8c:a2:24:d7:ce:d8:7c:5e:87:9f:4f:f2:52:51:1c:82:5b:2c:
         8b:b4:5d:7e:d6:03:95:a0:e9:29:68:5e:76:18:2b:93:6f:a1:
         58:a6:f6:35:8b:37:b9:6b:82:5d:3a:8c:bc:a6:bd:18:ca:2f:
         ea:0c:4d:36:7a:58:80:52:9c:b3:fa:a4:2b:0e:97:e6:0f:fc:
         41:62:6d:45:19:15:6d:3e:16:e5:bc:81:ce:c0:34:d3:b5:d4:
         0c:54:a5:62:a6:55:57:ad:e8:6f:94:58:cb:31:ff:0f:1c:13:
         63:82:91:1f:a3:68:f5:9f:9c:d9:dd:54:e0:d0:36:ea:ad:2a:
         9d:4e:66:be:c7:2f:1a:16:70:be:b4:1b:c5:2d:b2:1b:0c:87:
         64:10:4d:db:8b:79:5b:2e:10:a4:95:25:7b:be:b2:21:26:47:
         e9:d2:74:c8:34:b1:e3:7b:73:8c:93:7a:82:ce:50:d4:46:34:
         ab:11:71:c0
-----BEGIN CERTIFICATE-----
MIIEtzCCA5+gAwIBAgIBZTANBgkqhkiG9w0BAQsFADCBoTELMAkGA1UEBhMCVVMx
EzARBgNVBAgMCldhc2hpbmd0b24xEDAOBgNVBAcMB1NlYXR0bGUxFTATBgNVBAoM
DHdvbGZTU0wgSW5jLjEUMBIGA1UECwwLRW5naW5lZXJpbmcxHTAbBgNVBAMMFGNo
YWluSC1JQ0ExLXBhdGhsZW4wMR8wHQYJKoZIhvcNAQkBFhBpbmZvQHdvbGZzc2wu
Y29tMB4XDTE5MTAxMTAwMjgxMFoXDTIyMDcwNzAwMjgxMFowgZoxCzAJBgNVBAYT
AlVTMRMwEQYDVQQIDApXYXNoaW5ndG9uMRAwDgYDVQQHDAdTZWF0dGxlMRUwEwYD
VQQKDAx3b2xmU1NMIEluYy4xFDASBgNVBAsMC0VuZ2luZWVyaW5nMRYwFAYDVQQD
DA1jaGFpbkgtZW50aXR5MR8wHQYJKoZIhvcNAQkBFhBpbmZvQHdvbGZzc2wuY29t
MIIBIjANBgkqhkiG9w0BAQEFAAOCAQ8AMIIBCgKCAQEAuu2rwA2SbBDkUJ98mMyH
/Sg0d8BYKFIsKJeA7HgCT/TKYPgd52oEUi51hUJ0dgDkcIS4UY4pLn+2rd9tCbRP
EVQeiBbiDq8w8D2n2p9ODZRbBVGczAVljWsePHlbJn7LrumacWmSQZsazbRTC/su
QMTjsV64i/jPCuxfBxAYVPiKfTWXenqY6pMtG+ZEFj/Mp0y5z7ULCUezuI4CGlZp
N7dJpFmQoyCI84d36DkNOTalVrPsS/Nei8LNRwzZVs4y93Ez2399xh5+ccEBBpie
Upid151KMpQ8WkJmAMriozXbt/MnC5z6G5lLUfpsJZD1dozZDYCMrGHrTZISbV8S
5QIDAQABo4H+MIH7MB0GA1UdDgQWBBTtYvuPkcvesMiJzrq1gKhH8XIWBTCBzgYD
VR0jBIHGMIHDgBRIgIco7+YoDwOb3zNIEKDlILNpUKGBp6SBpDCBoTELMAkGA1UE
BhMCVVMxEzARBgNVBAgMCldhc2hpbmd0b24xEDAOBgNVBAcMB1NlYXR0bGUxFTAT
BgNVBAoMDHdvbGZTU0wgSW5jLjEUMBIGA1UECwwLRW5naW5lZXJpbmcxHTAbBgNV
BAMMFGNoYWluSC1JQ0EyLXBhdGhsZW4yMR8wHQYJKoZIhvcNAQkBFhBpbmZvQHdv
bGZzc2wuY29tggFkMAkGA1UdEwQCMAAwDQYJKoZIhvcNAQELBQADggEBALz8p8PJ
pFeeN533cetbfKIaDSSXEpIY/Q9eW/knyZgsmga9d4VjPKTtkJI6eUGCw1Rm9sag
07qjGZPZX1SQ/Cs30ZaIur7hcYyiJNfO2Hxeh59P8lJRHIJbLIu0XX7WA5Wg6Slo
XnYYK5NvoVim9jWLN7lrgl06jLymvRjKL+oMTTZ6WIBSnLP6pCsOl+YP/EFibUUZ
FW0+FuW8gc7ANNO11AxUpWKmVVet6G+UWMsx/w8cE2OCkR+jaPWfnNndVODQNuqt
Kp1OZr7HLxoWcL60G8UtshsMh2QQTduLeVsuEKSVJXu+siEmR+nSdMg0seN7c4yT
eoLOUNRGNKsRccA=
-----END CERTIFICATE-----
