Certificate:
    Data:
        Version: 3 (0x2)
        Serial Number: 100 (0x64)
        Signature Algorithm: sha256WithRSAEncryption
        Issuer: C = US, ST = Washington, L = Seattle, O = wolfSSL Inc., OU = Engineering, CN = chainH-ICA4-pathlen2, emailAddress = info@wolfssl.com
        Validity
            Not Before: Oct 11 00:28:09 2019 GMT
            Not After : Jul  7 00:28:09 2022 GMT
        Subject: C = US, ST = Washington, L = Seattle, O = wolfSSL Inc., OU = Engineering, CN = chainH-ICA3-pathlen2, emailAddress = info@wolfssl.com
        Subject Public Key Info:
            Public Key Algorithm: rsaEncryption
                RSA Public-Key: (2048 bit)
                Modulus:
                    00:b7:b3:1a:1b:4a:80:1b:a2:e5:95:14:bc:55:e4:
                    77:dc:f3:7b:8a:9f:34:7c:93:db:c9:c9:d0:8b:b8:
                    87:45:65:d3:a1:7d:46:f3:70:92:a9:d7:66:ef:3b:
                    b4:a8:16:b0:f0:be:67:70:aa:45:7b:09:bc:ca:77:
                    db:57:a4:24:54:0b:1a:da:5f:ad:64:a3:f1:49:83:
                    bc:9f:5d:c4:b4:da:43:04:aa:cc:c3:b0:4d:c2:f1:
                    73:c9:38:0d:4c:c9:ab:db:df:09:b3:5c:15:0b:66:
                    79:ad:6c:63:d1:38:cc:a6:2d:46:83:ce:19:1d:c1:
                    0b:6e:fc:38:b7:d8:8c:a2:6f:29:87:9b:21:cd:b0:
                    6b:e0:f8:1f:03:db:82:1d:8d:98:63:16:b6:74:47:
                    43:20:f2:a1:4b:16:8b:67:fd:bc:73:78:9b:f9:dd:
                    ba:49:d9:60:a9:b7:85:66:7f:a4:2a:05:c8:2d:93:
                    a0:9b:aa:bf:a6:31:e1:f2:c8:d3:1b:7b:79:d1:b6:
                    6c:ae:3b:6b:00:2e:6e:ae:10:dc:6c:88:dc:1b:93:
                    e8:56:99:8d:46:7e:49:3a:87:a0:b3:00:cc:2e:3b:
                    83:e1:6b:39:16:71:47:47:30:6d:6b:6c:9c:9f:e6:
                    ce:ec:20:2f:8f:c1:5d:ef:d3:84:32:6c:a5:cc:78:
                    fe:a1
                Exponent: 65537 (0x10001)
        X509v3 extensions:
            X509v3 Subject Key Identifier: 
                56:54:36:BE:23:2F:20:89:6D:A6:BA:9A:45:A4:88:0E:40:35:FD:F5
            X509v3 Authority Key Identifier: 
                keyid:18:6D:44:83:EE:1F:EC:B4:22:F0:9C:EB:54:1E:4A:15:58:01:AA:13
                DirName:/C=US/ST=Montana/L=Bozeman/O=Sawtooth/OU=Consulting/CN=www.wolfssl.com/emailAddress=info@wolfssl.com
                serial:64

            X509v3 Basic Constraints: 
                CA:TRUE, pathlen:2
            X509v3 Key Usage: 
                Certificate Sign, CRL Sign
    Signature Algorithm: sha256WithRSAEncryption
         2a:35:ca:d5:dd:97:31:4d:29:21:90:67:ba:68:ef:2a:56:b0:
         08:0a:c5:a2:cc:30:11:71:59:1b:59:2b:ca:c4:cc:22:52:d7:
         f3:a7:d2:14:c5:fc:e4:c5:6f:9d:45:ce:7f:d0:dd:ec:5f:6b:
         c3:d1:78:7a:29:bb:73:98:b6:15:9b:41:37:7a:50:b3:04:1d:
         72:90:9b:e9:f2:4b:68:f3:60:e9:bb:34:6e:2a:6c:6c:50:a6:
         38:ac:61:bc:ca:25:23:f5:f5:70:3a:8a:33:94:cf:97:1c:5c:
         a3:76:b0:7b:88:35:8a:6e:18:44:01:e6:80:23:e9:14:ea:66:
         56:34:9a:0b:ca:1a:37:c8:e7:00:03:39:7d:73:e5:13:cb:be:
         9e:df:c6:87:c3:24:a7:7f:39:1d:cc:ca:1f:e7:14:38:fe:3d:
         06:7a:2f:95:f3:9a:79:49:e9:9c:f3:72:e5:b4:b5:fb:87:13:
         83:4f:9f:76:2f:41:8f:a4:55:1d:e4:74:2f:0a:0f:cd:ee:a8:
         50:06:1e:a7:9e:25:9f:f3:9d:b2:c1:44:de:c5:44:3e:42:64:
         e1:75:16:33:56:a7:93:68:bb:fa:96:46:33:de:58:c1:81:42:
         ca:1c:28:4f:09:71:db:60:e1:88:ac:d6:0d:37:3a:63:8d:50:
         b7:35:2d:e5
-----BEGIN CERTIFICATE-----
MIIExjCCA66gAwIBAgIBZDANBgkqhkiG9w0BAQsFADCBoTELMAkGA1UEBhMCVVMx
EzARBgNVBAgMCldhc2hpbmd0b24xEDAOBgNVBAcMB1NlYXR0bGUxFTATBgNVBAoM
DHdvbGZTU0wgSW5jLjEUMBIGA1UECwwLRW5naW5lZXJpbmcxHTAbBgNVBAMMFGNo
YWluSC1JQ0E0LXBhdGhsZW4yMR8wHQYJKoZIhvcNAQkBFhBpbmZvQHdvbGZzc2wu
Y29tMB4XDTE5MTAxMTAwMjgwOVoXDTIyMDcwNzAwMjgwOVowgaExCzAJBgNVBAYT
AlVTMRMwEQYDVQQIDApXYXNoaW5ndG9uMRAwDgYDVQQHDAdTZWF0dGxlMRUwEwYD
VQQKDAx3b2xmU1NMIEluYy4xFDASBgNVBAsMC0VuZ2luZWVyaW5nMR0wGwYDVQQD
DBRjaGFpbkgtSUNBMy1wYXRobGVuMjEfMB0GCSqGSIb3DQEJARYQaW5mb0B3b2xm
c3NsLmNvbTCCASIwDQYJKoZIhvcNAQEBBQADggEPADCCAQoCggEBALezGhtKgBui
5ZUUvFXkd9zze4qfNHyT28nJ0Iu4h0Vl06F9RvNwkqnXZu87tKgWsPC+Z3CqRXsJ
vMp321ekJFQLGtpfrWSj8UmDvJ9dxLTaQwSqzMOwTcLxc8k4DUzJq9vfCbNcFQtm
ea1sY9E4zKYtRoPOGR3BC278OLfYjKJvKYebIc2wa+D4HwPbgh2NmGMWtnRHQyDy
oUsWi2f9vHN4m/nduknZYKm3hWZ/pCoFyC2ToJuqv6Yx4fLI0xt7edG2bK47awAu
bq4Q3GyI3BuT6FaZjUZ+STqHoLMAzC47g+FrORZxR0cwbWtsnJ/mzuwgL4/BXe/T
hDJspcx4/qECAwEAAaOCAQUwggEBMB0GA1UdDgQWBBRWVDa+Iy8giW2muppFpIgO
QDX99TCBwQYDVR0jBIG5MIG2gBQYbUSD7h/stCLwnOtUHkoVWAGqE6GBmqSBlzCB
lDELMAkGA1UEBhMCVVMxEDAOBgNVBAgMB01vbnRhbmExEDAOBgNVBAcMB0JvemVt
YW4xETAPBgNVBAoMCFNhd3Rvb3RoMRMwEQYDVQQLDApDb25zdWx0aW5nMRgwFgYD
VQQDDA93d3cud29sZnNzbC5jb20xHzAdBgkqhkiG9w0BCQEWEGluZm9Ad29sZnNz
bC5jb22CAWQwDwYDVR0TBAgwBgEB/wIBAjALBgNVHQ8EBAMCAQYwDQYJKoZIhvcN
AQELBQADggEBACo1ytXdlzFNKSGQZ7po7ypWsAgKxaLMMBFxWRtZK8rEzCJS1/On
0hTF/OTFb51Fzn/Q3exfa8PReHopu3OYthWbQTd6ULMEHXKQm+nyS2jzYOm7NG4q
bGxQpjisYbzKJSP19XA6ijOUz5ccXKN2sHuINYpuGEQB5oAj6RTqZlY0mgvKGjfI
5wADOX1z5RPLvp7fxofDJKd/OR3Myh/nFDj+PQZ6L5XzmnlJ6ZzzcuW0tfuHE4NP
n3YvQY+kVR3kdC8KD83uqFAGHqeeJZ/znbLBRN7FRD5CZOF1FjNWp5Nou/qWRjPe
WMGBQsocKE8Jcdtg4Yis1g03OmONULc1LeU=
-----END CERTIFICATE-----
