Certificate:
    Data:
        Version: 3 (0x2)
        Serial Number: 101 (0x65)
        Signature Algorithm: sha256WithRSAEncryption
        Issuer: C = US, ST = Washington, L = Seattle, O = wolfSSL Inc., OU = Engineering, CN = chainF-ICA1-pathlen1, emailAddress = info@wolfssl.com
        Validity
            Not Before: Oct 11 00:28:09 2019 GMT
            Not After : Jul  7 00:28:09 2022 GMT
        Subject: C = US, ST = Washington, L = Seattle, O = wolfSSL Inc., OU = Engineering, CN = chainF-entity, emailAddress = info@wolfssl.com
        Subject Public Key Info:
            Public Key Algorithm: rsaEncryption
                RSA Public-Key: (2048 bit)
                Modulus:
                    00:c9:f8:2c:ad:25:a9:65:3b:72:13:5d:aa:7f:5b:
                    71:f5:e0:43:c4:3a:b3:36:0d:34:61:35:86:77:a0:
                    2a:81:de:2c:7c:7d:01:fb:f4:c3:00:b0:17:b9:49:
                    93:1d:c2:1b:6f:40:ee:86:e0:a7:f3:5e:ad:23:43:
                    99:5f:34:38:c8:58:02:9b:cc:9e:59:da:81:5b:b1:
                    40:74:ca:c1:b8:67:14:ba:3f:71:16:d9:ba:a9:cd:
                    f1:96:1b:52:e2:d2:07:6d:6a:d6:cf:e7:a8:c8:e0:
                    4f:eb:35:64:bc:aa:1a:17:af:98:de:d0:9b:08:73:
                    72:d8:fe:e2:e5:4e:7e:97:37:37:58:9e:5c:65:91:
                    b9:5d:38:da:ba:db:00:c0:f6:4a:6f:9c:86:23:ad:
                    b0:c4:ff:b7:dd:d6:9a:b0:de:8d:15:87:e2:4b:04:
                    85:6d:5d:cc:5f:65:6f:e1:ae:22:44:80:18:ba:c2:
                    95:a4:a3:28:c5:3f:7b:4c:85:6c:0f:11:14:56:d2:
                    d5:a7:f7:03:e9:f7:ce:ef:d9:18:02:f0:f2:6e:81:
                    ef:ac:50:87:0e:b0:46:9f:ae:c0:77:8f:03:28:8a:
                    9d:6e:87:50:8f:37:46:b3:29:57:a4:c2:ef:25:cd:
                    23:1a:ef:1a:03:c9:59:69:cd:45:5f:39:3f:76:d4:
                    79:53
                Exponent: 65537 (0x10001)
        X509v3 extensions:
            X509v3 Subject Key Identifier: 
                E9:27:36:DA:64:81:70:89:C9:C1:F9:E3:92:7A:67:11:07:01:4A:49
            X509v3 Authority Key Identifier: 
                keyid:75:32:21:05:2B:60:FE:44:17:AF:18:65:86:85:19:82:3F:F9:64:83
                DirName:/C=US/ST=Washington/L=Seattle/O=wolfSSL Inc./OU=Engineering/CN=chainF-ICA2-pathlen0/emailAddress=info@wolfssl.com
                serial:64

            X509v3 Basic Constraints: 
                CA:FALSE
    Signature Algorithm: sha256WithRSAEncryption
         24:20:aa:3a:98:e1:d4:42:a1:0f:7b:58:10:83:72:da:d4:ed:
         e2:e6:08:0d:d2:fb:c0:ff:5b:97:72:03:b1:20:fa:b1:88:60:
         29:af:44:64:82:51:44:75:a7:cb:90:0d:af:63:a3:93:6f:a8:
         12:18:16:60:2f:58:37:ec:be:23:64:1b:06:ad:a7:d6:fa:cf:
         34:06:3d:99:21:19:d4:27:24:19:a0:00:8a:28:80:7b:8a:48:
         ea:61:63:20:4f:14:f2:60:a0:a3:3a:5a:45:4a:b1:24:1d:46:
         69:84:76:0e:ff:29:5b:4b:74:a2:75:2c:f1:4b:ba:dc:c5:4b:
         dd:b3:52:b9:fd:45:8d:fd:71:68:78:71:f8:3e:7c:62:50:a2:
         8d:07:df:45:a7:39:9c:df:df:9d:78:de:a4:9e:ef:e6:0a:7a:
         53:42:0c:9e:7e:4a:bf:9c:70:66:a7:08:ab:bf:b5:f8:b3:3b:
         99:28:2c:73:f4:6f:da:4d:21:59:35:82:58:f4:5e:59:25:1e:
         d6:7a:0a:c8:7f:4a:74:33:16:86:b4:bb:65:2e:9b:32:e5:78:
         53:95:33:38:a4:8a:04:36:eb:fa:51:d5:46:94:72:7d:d7:16:
         c9:e7:e3:45:94:ab:ec:08:b6:87:e4:3a:34:7c:ca:dd:f9:27:
         65:21:c5:5f
-----BEGIN CERTIFICATE-----
MIIEtzCCA5+gAwIBAgIBZTANBgkqhkiG9w0BAQsFADCBoTELMAkGA1UEBhMCVVMx
EzARBgNVBAgMCldhc2hpbmd0b24xEDAOBgNVBAcMB1NlYXR0bGUxFTATBgNVBAoM
DHdvbGZTU0wgSW5jLjEUMBIGA1UECwwLRW5naW5lZXJpbmcxHTAbBgNVBAMMFGNo
YWluRi1JQ0ExLXBhdGhsZW4xMR8wHQYJKoZIhvcNAQkBFhBpbmZvQHdvbGZzc2wu
Y29tMB4XDTE5MTAxMTAwMjgwOVoXDTIyMDcwNzAwMjgwOVowgZoxCzAJBgNVBAYT
AlVTMRMwEQYDVQQIDApXYXNoaW5ndG9uMRAwDgYDVQQHDAdTZWF0dGxlMRUwEwYD
VQQKDAx3b2xmU1NMIEluYy4xFDASBgNVBAsMC0VuZ2luZWVyaW5nMRYwFAYDVQQD
DA1jaGFpbkYtZW50aXR5MR8wHQYJKoZIhvcNAQkBFhBpbmZvQHdvbGZzc2wuY29t
MIIBIjANBgkqhkiG9w0BAQEFAAOCAQ8AMIIBCgKCAQEAyfgsrSWpZTtyE12qf1tx
9eBDxDqzNg00YTWGd6Aqgd4sfH0B+/TDALAXuUmTHcIbb0DuhuCn816tI0OZXzQ4
yFgCm8yeWdqBW7FAdMrBuGcUuj9xFtm6qc3xlhtS4tIHbWrWz+eoyOBP6zVkvKoa
F6+Y3tCbCHNy2P7i5U5+lzc3WJ5cZZG5XTjautsAwPZKb5yGI62wxP+33daasN6N
FYfiSwSFbV3MX2Vv4a4iRIAYusKVpKMoxT97TIVsDxEUVtLVp/cD6ffO79kYAvDy
boHvrFCHDrBGn67Ad48DKIqdbodQjzdGsylXpMLvJc0jGu8aA8lZac1FXzk/dtR5
UwIDAQABo4H+MIH7MB0GA1UdDgQWBBTpJzbaZIFwicnB+eOSemcRBwFKSTCBzgYD
VR0jBIHGMIHDgBR1MiEFK2D+RBevGGWGhRmCP/lkg6GBp6SBpDCBoTELMAkGA1UE
BhMCVVMxEzARBgNVBAgMCldhc2hpbmd0b24xEDAOBgNVBAcMB1NlYXR0bGUxFTAT
BgNVBAoMDHdvbGZTU0wgSW5jLjEUMBIGA1UECwwLRW5naW5lZXJpbmcxHTAbBgNV
BAMMFGNoYWluRi1JQ0EyLXBhdGhsZW4wMR8wHQYJKoZIhvcNAQkBFhBpbmZvQHdv
bGZzc2wuY29tggFkMAkGA1UdEwQCMAAwDQYJKoZIhvcNAQELBQADggEBACQgqjqY
4dRCoQ97WBCDctrU7eLmCA3S+8D/W5dyA7Eg+rGIYCmvRGSCUUR1p8uQDa9jo5Nv
qBIYFmAvWDfsviNkGwatp9b6zzQGPZkhGdQnJBmgAIoogHuKSOphYyBPFPJgoKM6
WkVKsSQdRmmEdg7/KVtLdKJ1LPFLutzFS92zUrn9RY39cWh4cfg+fGJQoo0H30Wn
OZzf35143qSe7+YKelNCDJ5+Sr+ccGanCKu/tfizO5koLHP0b9pNIVk1glj0Xlkl
HtZ6Csh/SnQzFoa0u2UumzLleFOVMzikigQ26/pR1UaUcn3XFsnn40WUq+wItofk
OjR8yt35J2UhxV8=
-----END CERTIFICATE-----
Certificate:
    Data:
        Version: 3 (0x2)
        Serial Number: 100 (0x64)
        Signature Algorithm: sha256WithRSAEncryption
        Issuer: C = US, ST = Washington, L = Seattle, O = wolfSSL Inc., OU = Engineering, CN = chainF-ICA2-pathlen0, emailAddress = info@wolfssl.com
        Validity
            Not Before: Oct 11 00:28:09 2019 GMT
            Not After : Jul  7 00:28:09 2022 GMT
        Subject: C = US, ST = Washington, L = Seattle, O = wolfSSL Inc., OU = Engineering, CN = chainF-ICA1-pathlen1, emailAddress = info@wolfssl.com
        Subject Public Key Info:
            Public Key Algorithm: rsaEncryption
                RSA Public-Key: (2048 bit)
                Modulus:
                    00:e0:13:c9:b0:8e:9d:3f:88:d4:30:4a:b4:e8:11:
                    21:93:5c:20:45:08:f8:7a:91:b9:2c:ad:ff:60:aa:
                    16:9f:1c:bb:88:b8:3d:0a:39:c1:89:a9:76:ca:8e:
                    6c:72:72:7e:6e:74:a6:36:2c:69:df:33:d6:e9:66:
                    70:65:7f:ba:2a:44:17:62:9f:33:46:12:e6:03:a5:
                    a6:e2:5c:09:07:cf:bc:8d:76:fe:a0:fd:d7:72:4a:
                    94:c8:ca:2f:95:91:9c:0a:77:7f:82:23:be:72:27:
                    29:45:cd:41:cf:ec:e1:84:cf:67:d0:18:98:b9:31:
                    be:c9:fe:98:5d:3f:aa:d2:83:76:45:85:ab:08:86:
                    63:58:5b:b3:e5:4a:43:3d:a1:99:e2:80:d1:2b:b2:
                    06:e3:f0:10:85:f9:a6:36:b8:52:2b:9d:73:3b:34:
                    23:51:3d:fe:56:2f:e9:39:b2:68:07:3e:6f:52:7b:
                    f4:40:d4:72:fa:69:19:ca:ff:22:c8:45:95:05:5e:
                    91:08:3f:27:2d:41:d1:74:a5:06:9c:f3:40:bd:bb:
                    fc:65:63:86:ed:80:22:50:c1:f6:4f:dc:8f:43:4c:
                    5e:fb:bf:d9:6d:1f:b4:84:0f:1e:e8:c6:5d:c5:53:
                    d5:2c:c9:7f:6b:98:93:a7:5d:35:9a:17:62:91:2e:
                    20:c1
                Exponent: 65537 (0x10001)
        X509v3 extensions:
            X509v3 Subject Key Identifier: 
                75:32:21:05:2B:60:FE:44:17:AF:18:65:86:85:19:82:3F:F9:64:83
            X509v3 Authority Key Identifier: 
                keyid:4A:53:4A:B7:30:78:35:91:B4:CB:DD:C8:22:74:89:AF:80:0F:7F:68
                DirName:/C=US/ST=Montana/L=Bozeman/O=Sawtooth/OU=Consulting/CN=www.wolfssl.com/emailAddress=info@wolfssl.com
                serial:64

            X509v3 Basic Constraints: 
                CA:TRUE, pathlen:1
            X509v3 Key Usage: 
                Certificate Sign, CRL Sign
    Signature Algorithm: sha256WithRSAEncryption
         6a:e9:07:00:56:3b:70:9a:2b:3d:42:e9:93:ad:76:a9:43:82:
         a9:44:2a:35:a2:c7:56:d4:1e:cd:26:7c:d4:3f:49:19:3a:1e:
         88:ed:f7:3d:b5:88:65:41:b4:69:81:59:fd:bd:93:b3:5c:ba:
         ae:60:b9:0b:e7:4b:60:a7:e4:b1:fa:ec:85:09:2b:e8:ff:84:
         77:71:75:63:c2:8a:10:51:76:7a:c9:6f:9a:a3:8b:10:b4:ed:
         9d:75:18:52:f5:a9:8a:ed:e0:0c:a4:23:96:f8:39:f6:fd:ce:
         58:21:54:2c:b1:a2:a1:73:eb:9f:93:99:0c:12:1e:9a:bb:3d:
         1e:91:da:df:b3:66:6a:cb:44:33:a8:d2:5d:31:76:d5:96:30:
         51:dd:d0:12:e9:7b:9b:9f:98:ac:35:03:0f:6f:2d:b5:b6:e1:
         30:14:50:31:2e:4c:fd:65:f5:d2:20:7b:8d:1d:a3:7f:6c:4f:
         47:d6:c8:97:26:cf:28:65:d8:a0:19:d1:ca:2e:e8:f7:11:cb:
         ab:a6:32:2b:82:4d:c1:df:0a:c5:e5:9e:00:39:65:20:7e:55:
         ad:81:ac:14:b1:f9:f3:88:96:94:26:e1:66:44:96:68:1b:1a:
         8d:db:f3:b9:e7:b8:9b:50:0b:03:19:53:70:c8:58:75:70:1f:
         0e:a4:bb:9f
-----BEGIN CERTIFICATE-----
MIIExjCCA66gAwIBAgIBZDANBgkqhkiG9w0BAQsFADCBoTELMAkGA1UEBhMCVVMx
EzARBgNVBAgMCldhc2hpbmd0b24xEDAOBgNVBAcMB1NlYXR0bGUxFTATBgNVBAoM
DHdvbGZTU0wgSW5jLjEUMBIGA1UECwwLRW5naW5lZXJpbmcxHTAbBgNVBAMMFGNo
YWluRi1JQ0EyLXBhdGhsZW4wMR8wHQYJKoZIhvcNAQkBFhBpbmZvQHdvbGZzc2wu
Y29tMB4XDTE5MTAxMTAwMjgwOVoXDTIyMDcwNzAwMjgwOVowgaExCzAJBgNVBAYT
AlVTMRMwEQYDVQQIDApXYXNoaW5ndG9uMRAwDgYDVQQHDAdTZWF0dGxlMRUwEwYD
VQQKDAx3b2xmU1NMIEluYy4xFDASBgNVBAsMC0VuZ2luZWVyaW5nMR0wGwYDVQQD
DBRjaGFpbkYtSUNBMS1wYXRobGVuMTEfMB0GCSqGSIb3DQEJARYQaW5mb0B3b2xm
c3NsLmNvbTCCASIwDQYJKoZIhvcNAQEBBQADggEPADCCAQoCggEBAOATybCOnT+I
1DBKtOgRIZNcIEUI+HqRuSyt/2CqFp8cu4i4PQo5wYmpdsqObHJyfm50pjYsad8z
1ulmcGV/uipEF2KfM0YS5gOlpuJcCQfPvI12/qD913JKlMjKL5WRnAp3f4IjvnIn
KUXNQc/s4YTPZ9AYmLkxvsn+mF0/qtKDdkWFqwiGY1hbs+VKQz2hmeKA0SuyBuPw
EIX5pja4Uiudczs0I1E9/lYv6TmyaAc+b1J79EDUcvppGcr/IshFlQVekQg/Jy1B
0XSlBpzzQL27/GVjhu2AIlDB9k/cj0NMXvu/2W0ftIQPHujGXcVT1SzJf2uYk6dd
NZoXYpEuIMECAwEAAaOCAQUwggEBMB0GA1UdDgQWBBR1MiEFK2D+RBevGGWGhRmC
P/lkgzCBwQYDVR0jBIG5MIG2gBRKU0q3MHg1kbTL3cgidImvgA9/aKGBmqSBlzCB
lDELMAkGA1UEBhMCVVMxEDAOBgNVBAgMB01vbnRhbmExEDAOBgNVBAcMB0JvemVt
YW4xETAPBgNVBAoMCFNhd3Rvb3RoMRMwEQYDVQQLDApDb25zdWx0aW5nMRgwFgYD
VQQDDA93d3cud29sZnNzbC5jb20xHzAdBgkqhkiG9w0BCQEWEGluZm9Ad29sZnNz
bC5jb22CAWQwDwYDVR0TBAgwBgEB/wIBATALBgNVHQ8EBAMCAQYwDQYJKoZIhvcN
AQELBQADggEBAGrpBwBWO3CaKz1C6ZOtdqlDgqlEKjWix1bUHs0mfNQ/SRk6Hojt
9z21iGVBtGmBWf29k7Ncuq5guQvnS2Cn5LH67IUJK+j/hHdxdWPCihBRdnrJb5qj
ixC07Z11GFL1qYrt4AykI5b4Ofb9zlghVCyxoqFz65+TmQwSHpq7PR6R2t+zZmrL
RDOo0l0xdtWWMFHd0BLpe5ufmKw1Aw9vLbW24TAUUDEuTP1l9dIge40do39sT0fW
yJcmzyhl2KAZ0cou6PcRy6umMiuCTcHfCsXlngA5ZSB+Va2BrBSx+fOIlpQm4WZE
lmgbGo3b87nnuJtQCwMZU3DIWHVwHw6ku58=
-----END CERTIFICATE-----
Certificate:
    Data:
        Version: 3 (0x2)
        Serial Number: 100 (0x64)
        Signature Algorithm: sha256WithRSAEncryption
        Issuer: C = US, ST = Montana, L = Bozeman, O = Sawtooth, OU = Consulting, CN = www.wolfssl.com, emailAddress = info@wolfssl.com
        Validity
            Not Before: Oct 11 00:28:09 2019 GMT
            Not After : Jul  7 00:28:09 2022 GMT
        Subject: C = US, ST = Washington, L = Seattle, O = wolfSSL Inc., OU = Engineering, CN = chainF-ICA2-pathlen0, emailAddress = info@wolfssl.com
        Subject Public Key Info:
            Public Key Algorithm: rsaEncryption
                RSA Public-Key: (2048 bit)
                Modulus:
                    00:da:3a:22:65:f8:6d:1c:b7:1c:87:dd:27:f4:d7:
                    75:aa:7c:1c:37:31:b4:d6:a5:34:4b:36:40:ea:55:
                    08:72:a0:ff:58:e2:5d:26:11:f5:b8:6e:de:d7:c3:
                    bb:26:51:c8:d0:36:14:00:76:42:4d:03:73:ef:88:
                    b9:37:f4:e8:9d:61:45:96:e1:8e:6c:78:58:e1:f6:
                    cf:46:8a:d6:a5:79:4d:47:88:ca:6c:69:4e:28:d4:
                    8d:84:a8:e1:6c:1d:d3:36:7e:23:e3:64:d5:0a:a3:
                    fc:36:89:90:0a:ff:7e:8b:fa:2e:66:fb:c7:33:44:
                    92:df:0f:43:b2:eb:24:7e:2b:ae:b0:43:a9:ad:53:
                    82:f8:de:17:19:26:5f:ca:8c:ac:0c:1f:24:bd:15:
                    ed:4f:5d:82:ea:10:eb:05:70:4f:03:60:d9:23:6d:
                    21:07:4d:12:9c:f3:64:ee:76:fb:9d:f9:c3:d8:1a:
                    3b:6e:a9:82:7b:2d:2e:b0:74:b7:13:d6:65:8a:06:
                    f2:25:74:c2:26:e9:71:66:54:61:fe:2a:34:27:07:
                    c9:8d:ef:a0:a2:86:93:41:47:73:08:01:07:cc:4d:
                    ec:fe:80:88:93:fb:ae:b4:91:16:fa:83:96:84:66:
                    53:cd:f3:52:da:d4:25:e1:09:15:20:e2:10:ea:dd:
                    39:ef
                Exponent: 65537 (0x10001)
        X509v3 extensions:
            X509v3 Subject Key Identifier: 
                4A:53:4A:B7:30:78:35:91:B4:CB:DD:C8:22:74:89:AF:80:0F:7F:68
            X509v3 Authority Key Identifier: 
                keyid:27:8E:67:11:74:C3:26:1D:3F:ED:33:63:B3:A4:D8:1D:30:E5:E8:D5
                DirName:/C=US/ST=Montana/L=Bozeman/O=Sawtooth/OU=Consulting/CN=www.wolfssl.com/emailAddress=info@wolfssl.com
                serial:86:FF:F5:8E:10:DE:B8:FB

            X509v3 Basic Constraints: 
                CA:TRUE, pathlen:0
            X509v3 Key Usage: 
                Certificate Sign, CRL Sign
    Signature Algorithm: sha256WithRSAEncryption
         1a:93:21:25:ab:3a:1a:d6:18:60:81:26:16:9c:d6:4b:2f:62:
         3e:57:e2:e7:a8:59:77:fc:22:33:8b:0d:bd:14:79:80:cf:95:
         8a:d5:4f:3c:92:a0:eb:65:42:76:81:80:10:aa:03:21:ea:68:
         5d:72:98:ce:e3:01:65:f8:b2:1a:e8:8d:a9:d6:0a:2b:22:cf:
         11:22:fb:d0:7c:9f:d2:bb:04:4a:34:07:b4:4d:71:31:48:5b:
         a0:08:83:ec:96:6d:5e:9a:fb:e3:da:63:32:b6:83:87:37:cb:
         67:dc:8e:7f:9d:a7:83:5c:13:bc:af:82:a0:9a:d2:b2:b7:1e:
         38:38:5c:e5:64:75:37:10:4a:82:a0:4d:f6:f8:5e:bf:36:f3:
         68:01:1a:0a:6b:e3:03:50:79:d6:14:da:26:48:d9:b6:8e:23:
         28:8a:a7:6e:c9:b0:54:c3:0b:48:25:7b:bf:e6:9f:be:f3:f0:
         b9:1d:c2:30:11:e4:fc:5f:90:96:69:d9:c0:cd:89:89:58:51:
         43:8b:4c:d9:2a:d0:90:04:fc:db:21:32:c0:32:50:e4:4b:88:
         4c:42:9c:d5:2a:ba:30:6e:5e:49:87:a1:c7:03:9e:6c:45:cc:
         bb:cf:d2:4a:af:1d:18:1c:9e:cb:66:50:e9:f9:b8:0b:08:bf:
         39:95:bb:62
-----BEGIN CERTIFICATE-----
MIIEwTCCA6mgAwIBAgIBZDANBgkqhkiG9w0BAQsFADCBlDELMAkGA1UEBhMCVVMx
EDAOBgNVBAgMB01vbnRhbmExEDAOBgNVBAcMB0JvemVtYW4xETAPBgNVBAoMCFNh
d3Rvb3RoMRMwEQYDVQQLDApDb25zdWx0aW5nMRgwFgYDVQQDDA93d3cud29sZnNz
bC5jb20xHzAdBgkqhkiG9w0BCQEWEGluZm9Ad29sZnNzbC5jb20wHhcNMTkxMDEx
MDAyODA5WhcNMjIwNzA3MDAyODA5WjCBoTELMAkGA1UEBhMCVVMxEzARBgNVBAgM
Cldhc2hpbmd0b24xEDAOBgNVBAcMB1NlYXR0bGUxFTATBgNVBAoMDHdvbGZTU0wg
SW5jLjEUMBIGA1UECwwLRW5naW5lZXJpbmcxHTAbBgNVBAMMFGNoYWluRi1JQ0Ey
LXBhdGhsZW4wMR8wHQYJKoZIhvcNAQkBFhBpbmZvQHdvbGZzc2wuY29tMIIBIjAN
BgkqhkiG9w0BAQEFAAOCAQ8AMIIBCgKCAQEA2joiZfhtHLcch90n9Nd1qnwcNzG0
1qU0SzZA6lUIcqD/WOJdJhH1uG7e18O7JlHI0DYUAHZCTQNz74i5N/TonWFFluGO
bHhY4fbPRorWpXlNR4jKbGlOKNSNhKjhbB3TNn4j42TVCqP8NomQCv9+i/ouZvvH
M0SS3w9DsuskfiuusEOprVOC+N4XGSZfyoysDB8kvRXtT12C6hDrBXBPA2DZI20h
B00SnPNk7nb7nfnD2Bo7bqmCey0usHS3E9ZligbyJXTCJulxZlRh/io0JwfJje+g
ooaTQUdzCAEHzE3s/oCIk/uutJEW+oOWhGZTzfNS2tQl4QkVIOIQ6t057wIDAQAB
o4IBDTCCAQkwHQYDVR0OBBYEFEpTSrcweDWRtMvdyCJ0ia+AD39oMIHJBgNVHSME
gcEwgb6AFCeOZxF0wyYdP+0zY7Ok2B0w5ejVoYGapIGXMIGUMQswCQYDVQQGEwJV
UzEQMA4GA1UECAwHTW9udGFuYTEQMA4GA1UEBwwHQm96ZW1hbjERMA8GA1UECgwI
U2F3dG9vdGgxEzARBgNVBAsMCkNvbnN1bHRpbmcxGDAWBgNVBAMMD3d3dy53b2xm
c3NsLmNvbTEfMB0GCSqGSIb3DQEJARYQaW5mb0B3b2xmc3NsLmNvbYIJAIb/9Y4Q
3rj7MA8GA1UdEwQIMAYBAf8CAQAwCwYDVR0PBAQDAgEGMA0GCSqGSIb3DQEBCwUA
A4IBAQAakyElqzoa1hhggSYWnNZLL2I+V+LnqFl3/CIziw29FHmAz5WK1U88kqDr
ZUJ2gYAQqgMh6mhdcpjO4wFl+LIa6I2p1gorIs8RIvvQfJ/SuwRKNAe0TXExSFug
CIPslm1emvvj2mMytoOHN8tn3I5/naeDXBO8r4KgmtKytx44OFzlZHU3EEqCoE32
+F6/NvNoARoKa+MDUHnWFNomSNm2jiMoiqduybBUwwtIJXu/5p++8/C5HcIwEeT8
X5CWadnAzYmJWFFDi0zZKtCQBPzbITLAMlDkS4hMQpzVKrowbl5Jh6HHA55sRcy7
z9JKrx0YHJ7LZlDp+bgLCL85lbti
-----END CERTIFICATE-----
