Certificate:
    Data:
        Version: 3 (0x2)
        Serial Number: 101 (0x65)
        Signature Algorithm: sha256WithRSAEncryption
        Issuer: C = US, ST = Washington, L = Seattle, O = wolfSSL Inc., OU = Engineering, CN = chainI-ICA1-no_pathlen, emailAddress = info@wolfssl.com
        Validity
            Not Before: Oct 11 18:30:30 2019 GMT
            Not After : Jul  7 18:30:30 2022 GMT
        Subject: C = US, ST = Washington, L = Seattle, O = wolfSSL Inc., OU = Engineering, CN = chainI-entity, emailAddress = info@wolfssl.com
        Subject Public Key Info:
            Public Key Algorithm: rsaEncryption
                RSA Public-Key: (2048 bit)
                Modulus:
                    00:f3:ac:32:8f:52:af:a9:cf:9e:23:a4:96:8e:e9:
                    e8:0a:3a:b7:6a:7b:ba:70:85:68:e2:52:f3:38:39:
                    cf:c8:f1:8a:f6:55:1e:59:fa:97:fe:e7:9b:07:2a:
                    b6:80:2a:92:d9:39:95:9e:0c:1f:d7:ad:1f:74:4d:
                    8e:61:6f:64:24:4c:d4:95:03:8f:d3:f2:3d:6e:d8:
                    d8:d5:aa:64:7d:82:ee:74:07:16:68:fa:95:17:9b:
                    35:8f:c3:6c:47:88:3e:40:de:93:36:ed:62:f4:cc:
                    67:45:ee:ea:45:9f:fc:f1:63:6d:b7:fa:f8:c3:e0:
                    6f:c7:4a:3e:04:49:04:37:8b:3a:99:e8:64:0a:86:
                    43:ab:5b:34:1e:6c:33:a2:a4:26:7c:c7:6c:48:99:
                    7d:85:f5:1f:c1:9c:a9:c7:8f:51:6b:8a:86:8d:1c:
                    b0:d2:82:ba:a4:a7:09:29:8b:0a:20:d1:7c:b1:67:
                    0c:61:cd:88:33:5e:38:ab:08:78:0b:80:0b:ce:63:
                    03:b9:40:7b:67:3e:a8:ac:4e:44:92:09:4c:3f:e0:
                    3d:55:cb:aa:5a:bc:17:9c:4e:9e:40:5c:82:fc:3b:
                    3a:54:40:90:f9:22:3c:f4:00:5f:95:13:72:49:29:
                    ae:5f:31:22:30:04:05:6a:7b:b5:0a:0a:a6:5e:72:
                    4d:5f
                Exponent: 65537 (0x10001)
        X509v3 extensions:
            X509v3 Subject Key Identifier: 
                EB:B5:A2:7B:24:95:03:11:6B:56:CB:13:3E:A8:B2:8F:B1:CF:5D:C4
            X509v3 Authority Key Identifier: 
                keyid:9E:54:B6:95:EA:89:07:A6:C9:E4:82:E8:D0:34:64:5D:08:CD:56:A0
                DirName:/C=US/ST=Washington/L=Seattle/O=wolfSSL Inc./OU=Engineering/CN=chainI-ICA2-no_pathlen/emailAddress=info@wolfssl.com
                serial:64

            X509v3 Basic Constraints: 
                CA:FALSE
    Signature Algorithm: sha256WithRSAEncryption
         78:f3:ac:4b:db:c6:63:c3:f5:67:97:b8:99:f4:72:6f:b2:07:
         3b:99:ce:85:e7:5c:59:c1:80:bf:06:92:a8:34:be:1b:74:d1:
         61:b6:75:07:18:0e:2e:77:7f:77:c7:e9:5d:cc:1e:7b:b5:04:
         95:5b:99:a1:15:2e:b6:2b:67:13:09:0f:b7:6e:62:04:dd:01:
         27:fd:18:f3:d9:b2:d7:8f:6e:bb:b3:1d:57:76:91:42:dd:78:
         77:22:b3:ed:79:10:63:94:40:c5:88:09:bb:bf:fd:fe:6e:60:
         23:53:30:8e:11:e2:b7:3d:39:24:96:f2:86:cc:59:eb:83:07:
         ad:7a:2e:85:63:be:70:15:92:f8:f2:2b:f1:6f:5f:c2:4d:3a:
         7d:c6:b9:9d:c4:82:6a:fe:b2:7e:ec:5d:eb:b3:ba:82:09:04:
         f9:7e:47:37:a9:8a:e2:2a:4f:30:7d:b7:dd:1f:c2:f4:db:61:
         f3:b1:81:5d:10:8c:41:22:76:93:5b:a3:b9:b2:69:85:88:3a:
         eb:ae:42:0f:16:e7:2f:f3:cd:03:4c:08:65:90:a9:4f:dd:89:
         23:d7:56:bd:e9:d7:cf:9f:bf:0f:a2:11:5b:e1:89:2c:d4:76:
         16:1f:83:5c:e9:8c:f6:93:7c:b5:f2:f1:ef:d3:07:35:2f:93:
         33:16:9c:63
-----BEGIN CERTIFICATE-----
MIIEvDCCA6SgAwIBAgIBZTANBgkqhkiG9w0BAQsFADCBozELMAkGA1UEBhMCVVMx
EzARBgNVBAgMCldhc2hpbmd0b24xEDAOBgNVBAcMB1NlYXR0bGUxFTATBgNVBAoM
DHdvbGZTU0wgSW5jLjEUMBIGA1UECwwLRW5naW5lZXJpbmcxHzAdBgNVBAMMFmNo
YWluSS1JQ0ExLW5vX3BhdGhsZW4xHzAdBgkqhkiG9w0BCQEWEGluZm9Ad29sZnNz
bC5jb20wHhcNMTkxMDExMTgzMDMwWhcNMjIwNzA3MTgzMDMwWjCBmjELMAkGA1UE
BhMCVVMxEzARBgNVBAgMCldhc2hpbmd0b24xEDAOBgNVBAcMB1NlYXR0bGUxFTAT
BgNVBAoMDHdvbGZTU0wgSW5jLjEUMBIGA1UECwwLRW5naW5lZXJpbmcxFjAUBgNV
BAMMDWNoYWluSS1lbnRpdHkxHzAdBgkqhkiG9w0BCQEWEGluZm9Ad29sZnNzbC5j
b20wggEiMA0GCSqGSIb3DQEBAQUAA4IBDwAwggEKAoIBAQDzrDKPUq+pz54jpJaO
6egKOrdqe7pwhWjiUvM4Oc/I8Yr2VR5Z+pf+55sHKraAKpLZOZWeDB/XrR90TY5h
b2QkTNSVA4/T8j1u2NjVqmR9gu50BxZo+pUXmzWPw2xHiD5A3pM27WL0zGdF7upF
n/zxY223+vjD4G/HSj4ESQQ3izqZ6GQKhkOrWzQebDOipCZ8x2xImX2F9R/BnKnH
j1FrioaNHLDSgrqkpwkpiwog0XyxZwxhzYgzXjirCHgLgAvOYwO5QHtnPqisTkSS
CUw/4D1Vy6pavBecTp5AXIL8OzpUQJD5Ijz0AF+VE3JJKa5fMSIwBAVqe7UKCqZe
ck1fAgMBAAGjggEAMIH9MB0GA1UdDgQWBBTrtaJ7JJUDEWtWyxM+qLKPsc9dxDCB
0AYDVR0jBIHIMIHFgBSeVLaV6okHpsnkgujQNGRdCM1WoKGBqaSBpjCBozELMAkG
A1UEBhMCVVMxEzARBgNVBAgMCldhc2hpbmd0b24xEDAOBgNVBAcMB1NlYXR0bGUx
FTATBgNVBAoMDHdvbGZTU0wgSW5jLjEUMBIGA1UECwwLRW5naW5lZXJpbmcxHzAd
BgNVBAMMFmNoYWluSS1JQ0EyLW5vX3BhdGhsZW4xHzAdBgkqhkiG9w0BCQEWEGlu
Zm9Ad29sZnNzbC5jb22CAWQwCQYDVR0TBAIwADANBgkqhkiG9w0BAQsFAAOCAQEA
ePOsS9vGY8P1Z5e4mfRyb7IHO5nOhedcWcGAvwaSqDS+G3TRYbZ1BxgOLnd/d8fp
Xcwee7UElVuZoRUutitnEwkPt25iBN0BJ/0Y89my149uu7MdV3aRQt14dyKz7XkQ
Y5RAxYgJu7/9/m5gI1MwjhHitz05JJbyhsxZ64MHrXouhWO+cBWS+PIr8W9fwk06
fca5ncSCav6yfuxd67O6ggkE+X5HN6mK4ipPMH233R/C9Nth87GBXRCMQSJ2k1uj
ubJphYg6665CDxbnL/PNA0wIZZCpT92JI9dWvenXz5+/D6IRW+GJLNR2Fh+DXOmM
9pN8tfLx79MHNS+TMxacYw==
-----END CERTIFICATE-----
