Certificate:
    Data:
        Version: 1 (0x0)
        Serial Number: 4096 (0x1000)
    Signature Algorithm: sha256WithRSAEncryption
        Issuer: CN = www.wolfssl.com, ST = Montana, C = US, emailAddress = info@wolfssl.com, OU = Engineering
        Validity
            Not Before: Jul 31 00:00:00 2018 GMT
            Not After : Aug 30 00:00:00 2018 GMT
        Subject: CN = www.wolfssl.com, ST = Montana, C = US, emailAddress = info@wolfssl.com, OU = Engineering
        Subject Public Key Info:
            Public Key Algorithm: rsaEncryption
                Public-Key: (2048 bit)
                Modulus:
                    00:c0:95:08:e1:57:41:f2:71:6d:b7:d2:45:41:27:
                    01:65:c6:45:ae:f2:bc:24:30:b8:95:ce:2f:4e:d6:
                    f6:1c:88:bc:7c:9f:fb:a8:67:7f:fe:5c:9c:51:75:
                    f7:8a:ca:07:e7:35:2f:8f:e1:bd:7b:c0:2f:7c:ab:
                    64:a8:17:fc:ca:5d:7b:ba:e0:21:e5:72:2e:6f:2e:
                    86:d8:95:73:da:ac:1b:53:b9:5f:3f:d7:19:0d:25:
                    4f:e1:63:63:51:8b:0b:64:3f:ad:43:b8:a5:1c:5c:
                    34:b3:ae:00:a0:63:c5:f6:7f:0b:59:68:78:73:a6:
                    8c:18:a9:02:6d:af:c3:19:01:2e:b8:10:e3:c6:cc:
                    40:b4:69:a3:46:33:69:87:6e:c4:bb:17:a6:f3:e8:
                    dd:ad:73:bc:7b:2f:21:b5:fd:66:51:0c:bd:54:b3:
                    e1:6d:5f:1c:bc:23:73:d1:09:03:89:14:d2:10:b9:
                    64:c3:2a:d0:a1:96:4a:bc:e1:d4:1a:5b:c7:a0:c0:
                    c1:63:78:0f:44:37:30:32:96:80:32:23:95:a1:77:
                    ba:13:d2:97:73:e2:5d:25:c9:6a:0d:c3:39:60:a4:
                    b4:b0:69:42:42:09:e9:d8:08:bc:33:20:b3:58:22:
                    a7:aa:eb:c4:e1:e6:61:83:c5:d2:96:df:d9:d0:4f:
                    ad:d7
                Exponent: 65537 (0x10001)
    Signature Algorithm: sha256WithRSAEncryption
         3d:b8:e9:dc:03:4f:0c:79:ed:5d:b5:e8:45:99:b4:9e:fe:9b:
         d9:88:aa:6c:de:1e:34:59:8a:4b:1c:39:0c:7a:a0:7d:24:c1:
         8d:54:d2:65:92:d4:5b:35:cb:de:fc:37:fe:b1:67:20:64:04:
         0a:8f:09:71:cf:d3:16:2e:dc:23:c8:7c:2e:72:35:54:ec:d3:
         63:5a:9d:63:93:42:b6:72:67:8f:80:83:6a:e3:d3:ad:28:87:
         46:4c:6e:56:d2:02:af:58:2e:a9:0e:e0:07:a6:f1:58:dd:17:
         82:27:f1:49:3b:8c:77:6f:08:96:d9:04:c8:ec:34:22:a5:b1:
         e9:48:07:41:3c:aa:1e:e4:d9:75:1b:71:bd:4f:ec:5e:fd:2b:
         44:2e:81:cd:8c:b1:08:e6:de:9b:e2:61:c9:ee:43:f7:af:99:
         29:fa:50:69:2a:98:47:b9:58:46:57:1e:2d:29:77:51:89:64:
         ee:f2:ba:14:fb:f7:ba:dc:68:d6:34:bc:28:eb:17:f4:37:6a:
         91:a9:cf:d5:46:e8:6e:8f:2f:e7:f2:e0:b1:ca:8a:0f:a4:55:
         8b:b9:c2:89:d0:29:82:b7:11:47:af:8b:96:92:e5:a3:da:11:
         0f:76:db:15:61:a5:5a:ab:60:83:06:de:7e:bf:b6:c8:10:ab:
         38:1a:d3:c2
-----BEGIN CERTIFICATE-----
MIIDVTCCAj0CAhAAMA0GCSqGSIb3DQEBCwUAMHAxGDAWBgNVBAMMD3d3dy53b2xm
c3NsLmNvbTEQMA4GA1UECAwHTW9udGFuYTELMAkGA1UEBhMCVVMxHzAdBgkqhkiG
9w0BCQEWEGluZm9Ad29sZnNzbC5jb20xFDASBgNVBAsMC0VuZ2luZWVyaW5nMB4Y
DTIwMTgwNzMxMDAwMFoYDTIwMTgwODMwMDAwMFowcDEYMBYGA1UEAwwPd3d3Lndv
bGZzc2wuY29tMRAwDgYDVQQIDAdNb250YW5hMQswCQYDVQQGEwJVUzEfMB0GCSqG
SIb3DQEJARYQaW5mb0B3b2xmc3NsLmNvbTEUMBIGA1UECwwLRW5naW5lZXJpbmcw
ggEiMA0GCSqGSIb3DQEBAQUAA4IBDwAwggEKAoIBAQDAlQjhV0HycW230kVBJwFl
xkWu8rwkMLiVzi9O1vYciLx8n/uoZ3/+XJxRdfeKygfnNS+P4b17wC98q2SoF/zK
XXu64CHlci5vLobYlXParBtTuV8/1xkNJU/hY2NRiwtkP61DuKUcXDSzrgCgY8X2
fwtZaHhzpowYqQJtr8MZAS64EOPGzEC0aaNGM2mHbsS7F6bz6N2tc7x7LyG1/WZR
DL1Us+FtXxy8I3PRCQOJFNIQuWTDKtChlkq84dQaW8egwMFjeA9ENzAyloAyI5Wh
d7oT0pdz4l0lyWoNwzlgpLSwaUJCCenYCLwzILNYIqeq68Th5mGDxdKW39nQT63X
AgMBAAEwDQYJKoZIhvcNAQELBQADggEBAD246dwDTwx57V216EWZtJ7+m9mIqmze
HjRZikscOQx6oH0kwY1U0mWS1Fs1y978N/6xZyBkBAqPCXHP0xYu3CPIfC5yNVTs
02NanWOTQrZyZ4+Ag2rj060oh0ZMblbSAq9YLqkO4Aem8VjdF4In8Uk7jHdvCJbZ
BMjsNCKlselIB0E8qh7k2XUbcb1P7F79K0Qugc2MsQjm3pviYcnuQ/evmSn6UGkq
mEe5WEZXHi0pd1GJZO7yuhT797rcaNY0vCjrF/Q3apGpz9VG6G6PL+fy4LHKig+k
VYu5wonQKYK3EUevi5aS5aPaEQ922xVhpVqrYIMG3n6/tsgQqzga08I=
-----END CERTIFICATE-----
