Certificate:
    Data:
        Version: 1 (0x0)
        Serial Number: 4096 (0x1000)
    Signature Algorithm: sha256WithRSAEncryption
        Issuer: CN = www.wolfssl.com, ST = Montana, C = US, emailAddress = info@wolfssl.com, OU = Engineering
        Validity
            Not Before: Jul 31 00:00:00 2018 GMT
            Not After : Aug 30 00:00:00 2018 GMT
        Subject: CN = www.wolfssl.com, ST = Montana, C = US, emailAddress = info@wolfssl.com, OU = Engineering
        Subject Public Key Info:
            Public Key Algorithm: rsaEncryption
                Public-Key: (2048 bit)
                Modulus:
                    00:bf:0c:ca:2d:14:b2:1e:84:42:5b:cd:38:1f:4a:
                    f2:4d:75:10:f1:b6:35:9f:df:ca:7d:03:98:d3:ac:
                    de:03:66:ee:2a:f1:d8:b0:7d:6e:07:54:0b:10:98:
                    21:4d:80:cb:12:20:e7:cc:4f:de:45:7d:c9:72:77:
                    32:ea:ca:90:bb:69:52:10:03:2f:a8:f3:95:c5:f1:
                    8b:62:56:1b:ef:67:6f:a4:10:41:95:ad:0a:9b:e3:
                    a5:c0:b0:d2:70:76:50:30:5b:a8:e8:08:2c:7c:ed:
                    a7:a2:7a:8d:38:29:1c:ac:c7:ed:f2:7c:95:b0:95:
                    82:7d:49:5c:38:cd:77:25:ef:bd:80:75:53:94:3c:
                    3d:ca:63:5b:9f:15:b5:d3:1d:13:2f:19:d1:3c:db:
                    76:3a:cc:b8:7d:c9:e5:c2:d7:da:40:6f:d8:21:dc:
                    73:1b:42:2d:53:9c:fe:1a:fc:7d:ab:7a:36:3f:98:
                    de:84:7c:05:67:ce:6a:14:38:87:a9:f1:8c:b5:68:
                    cb:68:7f:71:20:2b:f5:a0:63:f5:56:2f:a3:26:d2:
                    b7:6f:b1:5a:17:d7:38:99:08:fe:93:58:6f:fe:c3:
                    13:49:08:16:0b:a7:4d:67:00:52:31:67:23:4e:98:
                    ed:51:45:1d:b9:04:d9:0b:ec:d8:28:b3:4b:bd:ed:
                    36:79
                Exponent: 65537 (0x10001)
    Signature Algorithm: sha256WithRSAEncryption
         52:af:84:10:08:83:9a:39:c2:05:5c:33:fc:a6:a0:7c:ce:68:
         34:fa:cc:05:9f:8a:33:79:64:07:da:6c:17:85:91:ab:1d:be:
         32:45:c6:7f:54:b6:10:cf:ea:17:74:d4:d9:06:6e:71:5d:0d:
         40:72:21:07:79:20:63:b3:15:d5:b7:e6:1a:d6:d0:11:1a:60:
         7f:81:e9:9b:69:b4:67:4e:e2:22:1a:2f:9d:6a:3c:da:95:34:
         a9:bf:2b:14:fa:fe:21:73:e7:c9:19:7d:2c:14:9f:9f:33:c1:
         83:35:9c:94:95:0e:e4:3e:29:17:95:a2:85:e3:ad:70:5f:6a:
         ff:2d:8a:92:fb:58:f6:fe:46:2b:d0:e4:9d:9b:0d:d9:e4:39:
         0a:c5:e2:3d:17:de:95:cc:a4:1c:33:a1:75:02:ec:98:66:47:
         b9:ce:e4:8f:7e:32:cd:38:ff:6f:3d:be:7a:44:bf:47:61:7a:
         b7:5a:09:fa:1e:bf:3d:63:68:b3:15:00:87:fd:8d:b8:f6:b8:
         83:13:ff:f8:56:ed:14:05:4f:49:07:f9:33:6b:3f:fd:c6:7d:
         ff:6b:04:d5:46:80:c1:6b:74:fd:e6:18:14:1d:3b:c6:12:67:
         0e:1e:8d:81:c4:a9:9c:59:ee:29:cd:cf:55:a6:bc:53:13:f4:
         51:bc:b7:b3
-----BEGIN CERTIFICATE-----
MIIDVTCCAj0CAhAAMA0GCSqGSIb3DQEBCwUAMHAxGDAWBgNVBAMMD3d3dy53b2xm
c3NsLmNvbTEQMA4GA1UECAwHTW9udGFuYTELMAkGA1UEBhMCVVMxHzAdBgkqhkiG
9w0BCQEWEGluZm9Ad29sZnNzbC5jb20xFDASBgNVBAsMC0VuZ2luZWVyaW5nMB4Y
DTIwMTgwNzMxMDAwMFoYDTIwMTgwODMwMDAwMFowcDEYMBYGA1UEAwwPd3d3Lndv
bGZzc2wuY29tMRAwDgYDVQQIDAdNb250YW5hMQswCQYDVQQGEwJVUzEfMB0GCSqG
SIb3DQEJARYQaW5mb0B3b2xmc3NsLmNvbTEUMBIGA1UECwwLRW5naW5lZXJpbmcw
ggEiMA0GCSqGSIb3DQEBAQUAA4IBDwAwggEKAoIBAQC/DMotFLIehEJbzTgfSvJN
dRDxtjWf38p9A5jTrN4DZu4q8diwfW4HVAsQmCFNgMsSIOfMT95FfclydzLqypC7
aVIQAy+o85XF8YtiVhvvZ2+kEEGVrQqb46XAsNJwdlAwW6joCCx87aeieo04KRys
x+3yfJWwlYJ9SVw4zXcl772AdVOUPD3KY1ufFbXTHRMvGdE823Y6zLh9yeXC19pA
b9gh3HMbQi1TnP4a/H2rejY/mN6EfAVnzmoUOIep8Yy1aMtof3EgK/WgY/VWL6Mm
0rdvsVoX1ziZCP6TWG/+wxNJCBYLp01nAFIxZyNOmO1RRR25BNkL7Ngos0u97TZ5
AgMBAAEwDQYJKoZIhvcNAQELBQADggEBAFKvhBAIg5o5wgVcM/ymoHzOaDT6zAWf
ijN5ZAfabBeFkasdvjJFxn9UthDP6hd01NkGbnFdDUByIQd5IGOzFdW35hrW0BEa
YH+B6ZtptGdO4iIaL51qPNqVNKm/KxT6/iFz58kZfSwUn58zwYM1nJSVDuQ+KReV
ooXjrXBfav8tipL7WPb+RivQ5J2bDdnkOQrF4j0X3pXMpBwzoXUC7JhmR7nO5I9+
Ms04/289vnpEv0dherdaCfoevz1jaLMVAIf9jbj2uIMT//hW7RQFT0kH+TNrP/3G
ff9rBNVGgMFrdP3mGBQdO8YSZw4ejYHEqZxZ7inNz1WmvFMT9FG8t7M=
-----END CERTIFICATE-----
