
freeRtos-c64-100t.elf:     file format elf64-littleriscv


Disassembly of section .text.init:

0000000080000000 <_start>:
.section ".text.init"
.globl _start

_start:

li  x1, 0
    80000000:	4081                	li	ra,0
li  x2, 0
    80000002:	4101                	li	sp,0
li  x3, 0
    80000004:	4181                	li	gp,0
li  x4, 0
    80000006:	4201                	li	tp,0
li  x5, 0
    80000008:	4281                	li	t0,0
li  x6, 0
    8000000a:	4301                	li	t1,0
li  x7, 0
    8000000c:	4381                	li	t2,0
li  x8, 0
    8000000e:	4401                	li	s0,0
li  x9, 0
    80000010:	4481                	li	s1,0
li  x10,0
    80000012:	4501                	li	a0,0
li  x11,0
    80000014:	4581                	li	a1,0
li  x12,0
    80000016:	4601                	li	a2,0
li  x13,0
    80000018:	4681                	li	a3,0
li  x14,0
    8000001a:	4701                	li	a4,0
li  x15,0
    8000001c:	4781                	li	a5,0
li  x16,0
    8000001e:	4801                	li	a6,0
li  x17,0
    80000020:	4881                	li	a7,0
li  x18,0
    80000022:	4901                	li	s2,0
li  x19,0
    80000024:	4981                	li	s3,0
li  x20,0
    80000026:	4a01                	li	s4,0
li  x21,0
    80000028:	4a81                	li	s5,0
li  x22,0
    8000002a:	4b01                	li	s6,0
li  x23,0
    8000002c:	4b81                	li	s7,0
li  x24,0
    8000002e:	4c01                	li	s8,0
li  x25,0
    80000030:	4c81                	li	s9,0
li  x26,0
    80000032:	4d01                	li	s10,0
li  x27,0
    80000034:	4d81                	li	s11,0
li  x28,0
    80000036:	4e01                	li	t3,0
li  x29,0
    80000038:	4e81                	li	t4,0
li  x30,0
    8000003a:	4f01                	li	t5,0
li  x31,0
    8000003c:	4f81                	li	t6,0
   memset gp to zero
 */
# initialize global pointer
.option push
.option norelax
la gp, __global_pointer$
    8000003e:	0000b197          	auipc	gp,0xb
    80000042:	2ca18193          	addi	gp,gp,714 # 8000b308 <__global_pointer$>

0000000080000046 <init_bss>:
.option pop

init_bss:
    /* init bss section */
    la	a0, __bss_start
    80000046:	0000b517          	auipc	a0,0xb
    8000004a:	bba50513          	addi	a0,a0,-1094 # 8000ac00 <xISRStack>
    la	a1, __bss_end-4 /* section end is actually the start of the next section */
    8000004e:	00107597          	auipc	a1,0x107
    80000052:	1fe58593          	addi	a1,a1,510 # 8010724c <bmp280_calib_dig_P2>
    li	a2, 0x0
    80000056:	4601                	li	a2,0
  1:
    sw		a2, 0(a0)
    80000058:	c110                	sw	a2,0(a0)
    bgeu	a0, a1, init_sbss
    8000005a:	00b57463          	bgeu	a0,a1,80000062 <init_sbss>
    addi	a0, a0, 4
    8000005e:	0511                	addi	a0,a0,4
    j	        1b
    80000060:	bfe5                	j	80000058 <init_bss+0x12>

0000000080000062 <init_sbss>:

init_sbss:
    /* init bss section */
    la	a0, __sbss_start
    80000062:	0000b517          	auipc	a0,0xb
    80000066:	b5e50513          	addi	a0,a0,-1186 # 8000abc0 <ullNextTime>
    la	a1, __sbss_end-4 /* section end is actually the start of the next section */
    8000006a:	0000b597          	auipc	a1,0xb
    8000006e:	b8e58593          	addi	a1,a1,-1138 # 8000abf8 <gtemp>
    li	a2, 0x0
    80000072:	4601                	li	a2,0
   1:
    sw		a2, 0(a0)
    80000074:	c110                	sw	a2,0(a0)
    bgeu	a0, a1, 1f
    80000076:	00b57463          	bgeu	a0,a1,8000007e <init_sbss+0x1c>
    addi	a0, a0, 4
    8000007a:	0511                	addi	a0,a0,4
    j	        1b
    8000007c:	bfe5                	j	80000074 <init_sbss+0x12>

1:
# initialize stack pointer
.option push
.option norelax
la sp, __stack_pointer$
    8000007e:	0011b117          	auipc	sp,0x11b
    80000082:	1d210113          	addi	sp,sp,466 # 8011b250 <__stack>
fmv.s.x f30,x0
fmv.s.x f31,x0

#endif

la  tp, _end + 63
    80000086:	0011b217          	auipc	tp,0x11b
    8000008a:	20920213          	addi	tp,tp,521 # 8011b28f <__stack+0x3f>
and tp, tp, -64
    8000008e:	fc027213          	andi	tp,tp,-64

j init
    80000092:	7340706f          	j	800077c6 <init>

Disassembly of section .text:

0000000080000100 <vPortSetupTimerInterrupt>:
/*-----------------------------------------------------------*/

#if( configMTIME_BASE_ADDRESS != 0 ) && ( configMTIMECMP_BASE_ADDRESS != 0 )

	void vPortSetupTimerInterrupt( void )
	{
    80000100:	1101                	addi	sp,sp,-32
	uint32_t ulCurrentTimeHigh, ulCurrentTimeLow;
	volatile uint32_t * const pulTimeHigh = ( volatile uint32_t * const ) ( ( configMTIME_BASE_ADDRESS ) + 4UL ); /* 8-byte typer so high 32-bit word is 4 bytes up. */
    80000102:	0200c7b7          	lui	a5,0x200c
    80000106:	17f1                	addi	a5,a5,-4
    80000108:	ec3e                	sd	a5,24(sp)
	volatile uint32_t * const pulTimeLow = ( volatile uint32_t * const ) ( configMTIME_BASE_ADDRESS );
    8000010a:	0200c7b7          	lui	a5,0x200c
    8000010e:	17e1                	addi	a5,a5,-8
    80000110:	e83e                	sd	a5,16(sp)
	volatile uint32_t ulHartId;

		__asm volatile( "csrr %0, mhartid" : "=r"( ulHartId ) );
    80000112:	f14027f3          	csrr	a5,mhartid
    80000116:	c23e                	sw	a5,4(sp)
		pullMachineTimerCompareRegister  = ( volatile uint64_t * ) ( ullMachineTimerCompareRegisterBase + ( ulHartId * sizeof( uint64_t ) ) );
    80000118:	020047b7          	lui	a5,0x2004
    8000011c:	02079713          	slli	a4,a5,0x20
    80000120:	9301                	srli	a4,a4,0x20
    80000122:	4792                	lw	a5,4(sp)
    80000124:	2781                	sext.w	a5,a5
    80000126:	1782                	slli	a5,a5,0x20
    80000128:	9381                	srli	a5,a5,0x20
    8000012a:	078e                	slli	a5,a5,0x3
    8000012c:	97ba                	add	a5,a5,a4
    8000012e:	873e                	mv	a4,a5
    80000130:	0000b797          	auipc	a5,0xb
    80000134:	a9878793          	addi	a5,a5,-1384 # 8000abc8 <pullMachineTimerCompareRegister>
    80000138:	e398                	sd	a4,0(a5)

		do
		{
			ulCurrentTimeHigh = *pulTimeHigh;
    8000013a:	67e2                	ld	a5,24(sp)
    8000013c:	439c                	lw	a5,0(a5)
    8000013e:	c63e                	sw	a5,12(sp)
			ulCurrentTimeLow = *pulTimeLow;
    80000140:	67c2                	ld	a5,16(sp)
    80000142:	439c                	lw	a5,0(a5)
    80000144:	c43e                	sw	a5,8(sp)
		} while( ulCurrentTimeHigh != *pulTimeHigh );
    80000146:	67e2                	ld	a5,24(sp)
    80000148:	439c                	lw	a5,0(a5)
    8000014a:	0007871b          	sext.w	a4,a5
    8000014e:	47b2                	lw	a5,12(sp)
    80000150:	2781                	sext.w	a5,a5
    80000152:	fee794e3          	bne	a5,a4,8000013a <vPortSetupTimerInterrupt+0x3a>

		ullNextTime = ( uint64_t ) ulCurrentTimeHigh;
    80000156:	00c16703          	lwu	a4,12(sp)
    8000015a:	0000b797          	auipc	a5,0xb
    8000015e:	a6678793          	addi	a5,a5,-1434 # 8000abc0 <ullNextTime>
    80000162:	e398                	sd	a4,0(a5)
		ullNextTime <<= 32ULL; /* High 4-byte word is 32-bits up. */
    80000164:	0000b797          	auipc	a5,0xb
    80000168:	a5c78793          	addi	a5,a5,-1444 # 8000abc0 <ullNextTime>
    8000016c:	639c                	ld	a5,0(a5)
    8000016e:	02079713          	slli	a4,a5,0x20
    80000172:	0000b797          	auipc	a5,0xb
    80000176:	a4e78793          	addi	a5,a5,-1458 # 8000abc0 <ullNextTime>
    8000017a:	e398                	sd	a4,0(a5)
		ullNextTime |= ( uint64_t ) ulCurrentTimeLow;
    8000017c:	00816703          	lwu	a4,8(sp)
    80000180:	0000b797          	auipc	a5,0xb
    80000184:	a4078793          	addi	a5,a5,-1472 # 8000abc0 <ullNextTime>
    80000188:	639c                	ld	a5,0(a5)
    8000018a:	8f5d                	or	a4,a4,a5
    8000018c:	0000b797          	auipc	a5,0xb
    80000190:	a3478793          	addi	a5,a5,-1484 # 8000abc0 <ullNextTime>
    80000194:	e398                	sd	a4,0(a5)
		ullNextTime += ( uint64_t ) uxTimerIncrementsForOneTick;
    80000196:	0000b797          	auipc	a5,0xb
    8000019a:	a2a78793          	addi	a5,a5,-1494 # 8000abc0 <ullNextTime>
    8000019e:	6398                	ld	a4,0(a5)
    800001a0:	67e1                	lui	a5,0x18
    800001a2:	6a078793          	addi	a5,a5,1696 # 186a0 <_STACK_SIZE+0x46a0>
    800001a6:	973e                	add	a4,a4,a5
    800001a8:	0000b797          	auipc	a5,0xb
    800001ac:	a1878793          	addi	a5,a5,-1512 # 8000abc0 <ullNextTime>
    800001b0:	e398                	sd	a4,0(a5)
		*pullMachineTimerCompareRegister = ullNextTime;
    800001b2:	0000b797          	auipc	a5,0xb
    800001b6:	a1678793          	addi	a5,a5,-1514 # 8000abc8 <pullMachineTimerCompareRegister>
    800001ba:	639c                	ld	a5,0(a5)
    800001bc:	0000b717          	auipc	a4,0xb
    800001c0:	a0470713          	addi	a4,a4,-1532 # 8000abc0 <ullNextTime>
    800001c4:	6318                	ld	a4,0(a4)
    800001c6:	e398                	sd	a4,0(a5)

		/* Prepare the time to use after the next tick interrupt. */
		ullNextTime += ( uint64_t ) uxTimerIncrementsForOneTick;
    800001c8:	0000b797          	auipc	a5,0xb
    800001cc:	9f878793          	addi	a5,a5,-1544 # 8000abc0 <ullNextTime>
    800001d0:	6398                	ld	a4,0(a5)
    800001d2:	67e1                	lui	a5,0x18
    800001d4:	6a078793          	addi	a5,a5,1696 # 186a0 <_STACK_SIZE+0x46a0>
    800001d8:	973e                	add	a4,a4,a5
    800001da:	0000b797          	auipc	a5,0xb
    800001de:	9e678793          	addi	a5,a5,-1562 # 8000abc0 <ullNextTime>
    800001e2:	e398                	sd	a4,0(a5)
	}
    800001e4:	0001                	nop
    800001e6:	6105                	addi	sp,sp,32
    800001e8:	8082                	ret

00000000800001ea <xPortStartScheduler>:

#endif /* ( configMTIME_BASE_ADDRESS != 0 ) && ( configMTIME_BASE_ADDRESS != 0 ) */
/*-----------------------------------------------------------*/

BaseType_t xPortStartScheduler( void )
{
    800001ea:	1101                	addi	sp,sp,-32
    800001ec:	ec06                	sd	ra,24(sp)
extern void xPortStartFirstTask( void );

	#if( configASSERT_DEFINED == 1 )
	{
		volatile uint32_t mtvec = 0;
    800001ee:	c602                	sw	zero,12(sp)

		/* Check the least significant two bits of mtvec are 00 - indicating
		single vector mode. */
		__asm volatile( "csrr %0, mtvec" : "=r"( mtvec ) );
    800001f0:	305027f3          	csrr	a5,mtvec
    800001f4:	c63e                	sw	a5,12(sp)
		configASSERT( ( mtvec & 0x03UL ) == 0 );
    800001f6:	47b2                	lw	a5,12(sp)
    800001f8:	2781                	sext.w	a5,a5
    800001fa:	1782                	slli	a5,a5,0x20
    800001fc:	9381                	srli	a5,a5,0x20
    800001fe:	8b8d                	andi	a5,a5,3
    80000200:	c781                	beqz	a5,80000208 <xPortStartScheduler+0x1e>
    80000202:	30047073          	csrci	mstatus,8
    80000206:	a001                	j	80000206 <xPortStartScheduler+0x1c>

		/* Check alignment of the interrupt stack - which is the same as the
		stack that was being used by main() prior to the scheduler being
		started. */
		configASSERT( ( xISRStackTop & portBYTE_ALIGNMENT_MASK ) == 0 );
    80000208:	0000b797          	auipc	a5,0xb
    8000020c:	90878793          	addi	a5,a5,-1784 # 8000ab10 <xISRStackTop>
    80000210:	639c                	ld	a5,0(a5)
    80000212:	8bbd                	andi	a5,a5,15
    80000214:	c781                	beqz	a5,8000021c <xPortStartScheduler+0x32>
    80000216:	30047073          	csrci	mstatus,8
    8000021a:	a001                	j	8000021a <xPortStartScheduler+0x30>

		#ifdef configISR_STACK_SIZE_WORDS
		{
			memset( ( void * ) xISRStack, portISR_STACK_FILL_BYTE, sizeof( xISRStack ) );
    8000021c:	6789                	lui	a5,0x2
    8000021e:	f4078613          	addi	a2,a5,-192 # 1f40 <_tbss_end+0x1f40>
    80000222:	0ee00593          	li	a1,238
    80000226:	0000b517          	auipc	a0,0xb
    8000022a:	9da50513          	addi	a0,a0,-1574 # 8000ac00 <xISRStack>
    8000022e:	308080ef          	jal	ra,80008536 <memset>
	#endif /* configASSERT_DEFINED */

	/* If there is a CLINT then it is ok to use the default implementation
	in this file, otherwise vPortSetupTimerInterrupt() must be implemented to
	configure whichever clock is to be used to generate the tick interrupt. */
	vPortSetupTimerInterrupt();
    80000232:	ecfff0ef          	jal	ra,80000100 <vPortSetupTimerInterrupt>
	#if( ( configMTIME_BASE_ADDRESS != 0 ) && ( configMTIMECMP_BASE_ADDRESS != 0 ) )
	{
		/* Enable mtime and external interrupts.  1<<7 for timer interrupt, 1<<11
		for external interrupt.  _RB_ What happens here when mtime is not present as
		with pulpino? */
		__asm volatile( "csrs mie, %0" :: "r"(0x880) );
    80000236:	6785                	lui	a5,0x1
    80000238:	8807879b          	addiw	a5,a5,-1920
    8000023c:	3047a073          	csrs	mie,a5
		/* Enable external interrupts. */
		__asm volatile( "csrs mie, %0" :: "r"(0x800) );
	}
	#endif /* ( configMTIME_BASE_ADDRESS != 0 ) && ( configMTIMECMP_BASE_ADDRESS != 0 ) */

	xPortStartFirstTask();
    80000240:	2c0000ef          	jal	ra,80000500 <xPortStartFirstTask>

	/* Should not get here as after calling xPortStartFirstTask() only tasks
	should be executing. */
	return pdFAIL;
    80000244:	4781                	li	a5,0
}
    80000246:	853e                	mv	a0,a5
    80000248:	60e2                	ld	ra,24(sp)
    8000024a:	6105                	addi	sp,sp,32
    8000024c:	8082                	ret

000000008000024e <vPortEndScheduler>:
/*-----------------------------------------------------------*/

void vPortEndScheduler( void )
{
	/* Not implemented. */
	for( ;; );
    8000024e:	a001                	j	8000024e <vPortEndScheduler>
	...

0000000080000300 <freertos_risc_v_trap_handler>:
/*-----------------------------------------------------------*/

.align 8
.func
freertos_risc_v_trap_handler:
	addi sp, sp, -portCONTEXT_SIZE
    80000300:	7151                	addi	sp,sp,-240
	store_x x1, 1 * portWORD_SIZE( sp )
    80000302:	e406                	sd	ra,8(sp)
	store_x x5, 2 * portWORD_SIZE( sp )
    80000304:	e816                	sd	t0,16(sp)
	store_x x6, 3 * portWORD_SIZE( sp )
    80000306:	ec1a                	sd	t1,24(sp)
	store_x x7, 4 * portWORD_SIZE( sp )
    80000308:	f01e                	sd	t2,32(sp)
	store_x x8, 5 * portWORD_SIZE( sp )
    8000030a:	f422                	sd	s0,40(sp)
	store_x x9, 6 * portWORD_SIZE( sp )
    8000030c:	f826                	sd	s1,48(sp)
	store_x x10, 7 * portWORD_SIZE( sp )
    8000030e:	fc2a                	sd	a0,56(sp)
	store_x x11, 8 * portWORD_SIZE( sp )
    80000310:	e0ae                	sd	a1,64(sp)
	store_x x12, 9 * portWORD_SIZE( sp )
    80000312:	e4b2                	sd	a2,72(sp)
	store_x x13, 10 * portWORD_SIZE( sp )
    80000314:	e8b6                	sd	a3,80(sp)
	store_x x14, 11 * portWORD_SIZE( sp )
    80000316:	ecba                	sd	a4,88(sp)
	store_x x15, 12 * portWORD_SIZE( sp )
    80000318:	f0be                	sd	a5,96(sp)
	store_x x16, 13 * portWORD_SIZE( sp )
    8000031a:	f4c2                	sd	a6,104(sp)
	store_x x17, 14 * portWORD_SIZE( sp )
    8000031c:	f8c6                	sd	a7,112(sp)
	store_x x18, 15 * portWORD_SIZE( sp )
    8000031e:	fcca                	sd	s2,120(sp)
	store_x x19, 16 * portWORD_SIZE( sp )
    80000320:	e14e                	sd	s3,128(sp)
	store_x x20, 17 * portWORD_SIZE( sp )
    80000322:	e552                	sd	s4,136(sp)
	store_x x21, 18 * portWORD_SIZE( sp )
    80000324:	e956                	sd	s5,144(sp)
	store_x x22, 19 * portWORD_SIZE( sp )
    80000326:	ed5a                	sd	s6,152(sp)
	store_x x23, 20 * portWORD_SIZE( sp )
    80000328:	f15e                	sd	s7,160(sp)
	store_x x24, 21 * portWORD_SIZE( sp )
    8000032a:	f562                	sd	s8,168(sp)
	store_x x25, 22 * portWORD_SIZE( sp )
    8000032c:	f966                	sd	s9,176(sp)
	store_x x26, 23 * portWORD_SIZE( sp )
    8000032e:	fd6a                	sd	s10,184(sp)
	store_x x27, 24 * portWORD_SIZE( sp )
    80000330:	e1ee                	sd	s11,192(sp)
	store_x x28, 25 * portWORD_SIZE( sp )
    80000332:	e5f2                	sd	t3,200(sp)
	store_x x29, 26 * portWORD_SIZE( sp )
    80000334:	e9f6                	sd	t4,208(sp)
	store_x x30, 27 * portWORD_SIZE( sp )
    80000336:	edfa                	sd	t5,216(sp)
	store_x x31, 28 * portWORD_SIZE( sp )
    80000338:	f1fe                	sd	t6,224(sp)

	csrr t0, mstatus					/* Required for MPIE bit. */
    8000033a:	300022f3          	csrr	t0,mstatus
	store_x t0, 29 * portWORD_SIZE( sp )
    8000033e:	f596                	sd	t0,232(sp)

	portasmSAVE_ADDITIONAL_REGISTERS	/* Defined in freertos_risc_v_chip_specific_extensions.h to save any registers unique to the RISC-V implementation. */

	load_x  t0, pxCurrentTCB			/* Load pxCurrentTCB. */
    80000340:	0000b297          	auipc	t0,0xb
    80000344:	8902b283          	ld	t0,-1904(t0) # 8000abd0 <pxCurrentTCB>
	store_x  sp, 0( t0 )				/* Write sp to first TCB member. */
    80000348:	0022b023          	sd	sp,0(t0)

	csrr a0, mcause
    8000034c:	34202573          	csrr	a0,mcause
	csrr a1, mepc
    80000350:	341025f3          	csrr	a1,mepc

0000000080000354 <test_if_asynchronous>:

test_if_asynchronous:
	srli a2, a0, __riscv_xlen - 1		/* MSB of mcause is 1 if handing an asynchronous interrupt - shift to LSB to clear other bits. */
    80000354:	03f55613          	srli	a2,a0,0x3f
	beq a2, x0, handle_synchronous		/* Branch past interrupt handing if not asynchronous. */
    80000358:	ce29                	beqz	a2,800003b2 <handle_synchronous>
	store_x a1, 0( sp )					/* Asynch so save unmodified exception return address. */
    8000035a:	e02e                	sd	a1,0(sp)

000000008000035c <handle_asynchronous>:

#if( portasmHAS_MTIME != 0 )

	test_if_mtimer:						/* If there is a CLINT then the mtimer is used to generate the tick interrupt. */

		addi t0, x0, 1
    8000035c:	00100293          	li	t0,1

		slli t0, t0, __riscv_xlen - 1   /* LSB is already set, shift into MSB.  Shift 31 on 32-bit or 63 on 64-bit cores. */
    80000360:	12fe                	slli	t0,t0,0x3f
		addi t1, t0, 7					/* 0x8000[]0007 == machine timer interrupt. */
    80000362:	00728313          	addi	t1,t0,7
		bne a0, t1, test_if_external_interrupt
    80000366:	02651c63          	bne	a0,t1,8000039e <test_if_external_interrupt>

		load_x t0, pullMachineTimerCompareRegister  /* Load address of compare register into t0. */
    8000036a:	0000b297          	auipc	t0,0xb
    8000036e:	85e2b283          	ld	t0,-1954(t0) # 8000abc8 <pullMachineTimerCompareRegister>
		load_x t1, pullNextTime  		/* Load the address of ullNextTime into t1. */
    80000372:	8201b303          	ld	t1,-2016(gp) # 8000ab28 <pullNextTime>
		#endif /* __riscv_xlen == 32 */

		#if( __riscv_xlen == 64 )

			/* Update the 64-bit mtimer compare match value. */
			ld t2, 0(t1)			 	/* Load ullNextTime into t2. */
    80000376:	00033383          	ld	t2,0(t1)
			sd t2, 0(t0)				/* Store ullNextTime into compare register. */
    8000037a:	0072b023          	sd	t2,0(t0)
			ld t0, uxTimerIncrementsForOneTick  /* Load the value of ullTimerIncrementForOneTick into t0 (could this be optimized by storing in an array next to pullNextTime?). */
    8000037e:	8101b283          	ld	t0,-2032(gp) # 8000ab18 <uxTimerIncrementsForOneTick>
			add t4, t0, t2				/* Add ullNextTime to the timer increments for one tick. */
    80000382:	00728eb3          	add	t4,t0,t2
			sd t4, 0(t1)				/* Store ullNextTime. */
    80000386:	01d33023          	sd	t4,0(t1)

		#endif /* __riscv_xlen == 64 */

		load_x sp, xISRStackTop			/* Switch to ISR stack before function call. */
    8000038a:	0000a117          	auipc	sp,0xa
    8000038e:	78613103          	ld	sp,1926(sp) # 8000ab10 <xISRStackTop>
		jal xTaskIncrementTick
    80000392:	2f0020ef          	jal	ra,80002682 <xTaskIncrementTick>
		beqz a0, processed_source		/* Don't switch context if incrementing tick didn't unblock a task. */
    80000396:	c521                	beqz	a0,800003de <processed_source>
		jal vTaskSwitchContext
    80000398:	4aa020ef          	jal	ra,80002842 <vTaskSwitchContext>
		j processed_source
    8000039c:	a089                	j	800003de <processed_source>

000000008000039e <test_if_external_interrupt>:

	test_if_external_interrupt:			/* If there is a CLINT and the mtimer interrupt is not pending then check to see if an external interrupt is pending. */
		addi t1, t1, 4					/* 0x80000007 + 4 = 0x8000000b == Machine external interrupt. */
    8000039e:	0311                	addi	t1,t1,4
		bne a0, t1, as_yet_unhandled	/* Something as yet unhandled. */
    800003a0:	02651c63          	bne	a0,t1,800003d8 <as_yet_unhandled>

#endif /* portasmHAS_MTIME */

	load_x sp, xISRStackTop				/* Switch to ISR stack before function call. */
    800003a4:	0000a117          	auipc	sp,0xa
    800003a8:	76c13103          	ld	sp,1900(sp) # 8000ab10 <xISRStackTop>
	jal portasmHANDLE_INTERRUPT			/* Jump to the interrupt handler if there is no CLINT or if there is a CLINT and it has been determined that an external interrupt is pending. */
    800003ac:	499050ef          	jal	ra,80006044 <mach_plic_handler>
	j processed_source
    800003b0:	a03d                	j	800003de <processed_source>

00000000800003b2 <handle_synchronous>:

handle_synchronous:
	addi a1, a1, 4						/* Synchronous so updated exception return address to the instruction after the instruction that generated the exeption. */
    800003b2:	0591                	addi	a1,a1,4
	store_x a1, 0( sp )					/* Save updated exception return address. */
    800003b4:	e02e                	sd	a1,0(sp)

00000000800003b6 <test_if_environment_call>:

test_if_environment_call:
	li t0, 11 							/* 11 == environment call. */
    800003b6:	42ad                	li	t0,11
	bne a0, t0, is_exception			/* Not an M environment call, so some other exception. */
    800003b8:	00551963          	bne	a0,t0,800003ca <is_exception>
	load_x sp, xISRStackTop				/* Switch to ISR stack before function call. */
    800003bc:	0000a117          	auipc	sp,0xa
    800003c0:	75413103          	ld	sp,1876(sp) # 8000ab10 <xISRStackTop>
	jal vTaskSwitchContext
    800003c4:	47e020ef          	jal	ra,80002842 <vTaskSwitchContext>
	j processed_source
    800003c8:	a819                	j	800003de <processed_source>

00000000800003ca <is_exception>:

is_exception:
	csrr t0, mcause						/* For viewing in the debugger only. */
    800003ca:	342022f3          	csrr	t0,mcause
	csrr t1, mepc						/* For viewing in the debugger only */
    800003ce:	34102373          	csrr	t1,mepc
	csrr t2, mstatus
    800003d2:	300023f3          	csrr	t2,mstatus
	j is_exception						/* No other exceptions handled yet. */
    800003d6:	bfd5                	j	800003ca <is_exception>

00000000800003d8 <as_yet_unhandled>:

as_yet_unhandled:
	csrr t0, mcause						/* For viewing in the debugger only. */
    800003d8:	342022f3          	csrr	t0,mcause
	j as_yet_unhandled
    800003dc:	bff5                	j	800003d8 <as_yet_unhandled>

00000000800003de <processed_source>:

processed_source:
	load_x  t1, pxCurrentTCB			/* Load pxCurrentTCB. */
    800003de:	0000a317          	auipc	t1,0xa
    800003e2:	7f233303          	ld	t1,2034(t1) # 8000abd0 <pxCurrentTCB>
	load_x  sp, 0( t1 )				 	/* Read sp from first TCB member. */
    800003e6:	00033103          	ld	sp,0(t1)

	/* Load mret with the address of the next instruction in the task to run next. */
	load_x t0, 0( sp )
    800003ea:	6282                	ld	t0,0(sp)
	csrw mepc, t0
    800003ec:	34129073          	csrw	mepc,t0

	portasmRESTORE_ADDITIONAL_REGISTERS	/* Defined in freertos_risc_v_chip_specific_extensions.h to restore any registers unique to the RISC-V implementation. */

	/* Load mstatus with the interrupt enable bits used by the task. */
	load_x  t0, 29 * portWORD_SIZE( sp )
    800003f0:	72ae                	ld	t0,232(sp)
	csrw mstatus, t0						/* Required for MPIE bit. */
    800003f2:	30029073          	csrw	mstatus,t0

	load_x  x1, 1 * portWORD_SIZE( sp )
    800003f6:	60a2                	ld	ra,8(sp)
	load_x  x5, 2 * portWORD_SIZE( sp )		/* t0 */
    800003f8:	62c2                	ld	t0,16(sp)
	load_x  x6, 3 * portWORD_SIZE( sp )		/* t1 */
    800003fa:	6362                	ld	t1,24(sp)
	load_x  x7, 4 * portWORD_SIZE( sp )		/* t2 */
    800003fc:	7382                	ld	t2,32(sp)
	load_x  x8, 5 * portWORD_SIZE( sp )		/* s0/fp */
    800003fe:	7422                	ld	s0,40(sp)
	load_x  x9, 6 * portWORD_SIZE( sp )		/* s1 */
    80000400:	74c2                	ld	s1,48(sp)
	load_x  x10, 7 * portWORD_SIZE( sp )	/* a0 */
    80000402:	7562                	ld	a0,56(sp)
	load_x  x11, 8 * portWORD_SIZE( sp )	/* a1 */
    80000404:	6586                	ld	a1,64(sp)
	load_x  x12, 9 * portWORD_SIZE( sp )	/* a2 */
    80000406:	6626                	ld	a2,72(sp)
	load_x  x13, 10 * portWORD_SIZE( sp )	/* a3 */
    80000408:	66c6                	ld	a3,80(sp)
	load_x  x14, 11 * portWORD_SIZE( sp )	/* a4 */
    8000040a:	6766                	ld	a4,88(sp)
	load_x  x15, 12 * portWORD_SIZE( sp )	/* a5 */
    8000040c:	7786                	ld	a5,96(sp)
	load_x  x16, 13 * portWORD_SIZE( sp )	/* a6 */
    8000040e:	7826                	ld	a6,104(sp)
	load_x  x17, 14 * portWORD_SIZE( sp )	/* a7 */
    80000410:	78c6                	ld	a7,112(sp)
	load_x  x18, 15 * portWORD_SIZE( sp )	/* s2 */
    80000412:	7966                	ld	s2,120(sp)
	load_x  x19, 16 * portWORD_SIZE( sp )	/* s3 */
    80000414:	698a                	ld	s3,128(sp)
	load_x  x20, 17 * portWORD_SIZE( sp )	/* s4 */
    80000416:	6a2a                	ld	s4,136(sp)
	load_x  x21, 18 * portWORD_SIZE( sp )	/* s5 */
    80000418:	6aca                	ld	s5,144(sp)
	load_x  x22, 19 * portWORD_SIZE( sp )	/* s6 */
    8000041a:	6b6a                	ld	s6,152(sp)
	load_x  x23, 20 * portWORD_SIZE( sp )	/* s7 */
    8000041c:	7b8a                	ld	s7,160(sp)
	load_x  x24, 21 * portWORD_SIZE( sp )	/* s8 */
    8000041e:	7c2a                	ld	s8,168(sp)
	load_x  x25, 22 * portWORD_SIZE( sp )	/* s9 */
    80000420:	7cca                	ld	s9,176(sp)
	load_x  x26, 23 * portWORD_SIZE( sp )	/* s10 */
    80000422:	7d6a                	ld	s10,184(sp)
	load_x  x27, 24 * portWORD_SIZE( sp )	/* s11 */
    80000424:	6d8e                	ld	s11,192(sp)
	load_x  x28, 25 * portWORD_SIZE( sp )	/* t3 */
    80000426:	6e2e                	ld	t3,200(sp)
	load_x  x29, 26 * portWORD_SIZE( sp )	/* t4 */
    80000428:	6ece                	ld	t4,208(sp)
	load_x  x30, 27 * portWORD_SIZE( sp )	/* t5 */
    8000042a:	6f6e                	ld	t5,216(sp)
	load_x  x31, 28 * portWORD_SIZE( sp )	/* t6 */
    8000042c:	7f8e                	ld	t6,224(sp)
	addi sp, sp, portCONTEXT_SIZE
    8000042e:	616d                	addi	sp,sp,240

	mret
    80000430:	30200073          	mret
    80000434:	00000013          	nop
    80000438:	00000013          	nop
    8000043c:	00000013          	nop
    80000440:	00000013          	nop
    80000444:	00000013          	nop
    80000448:	00000013          	nop
    8000044c:	00000013          	nop
    80000450:	00000013          	nop
    80000454:	00000013          	nop
    80000458:	00000013          	nop
    8000045c:	00000013          	nop
    80000460:	00000013          	nop
    80000464:	00000013          	nop
    80000468:	00000013          	nop
    8000046c:	00000013          	nop
    80000470:	00000013          	nop
    80000474:	00000013          	nop
    80000478:	00000013          	nop
    8000047c:	00000013          	nop
    80000480:	00000013          	nop
    80000484:	00000013          	nop
    80000488:	00000013          	nop
    8000048c:	00000013          	nop
    80000490:	00000013          	nop
    80000494:	00000013          	nop
    80000498:	00000013          	nop
    8000049c:	00000013          	nop
    800004a0:	00000013          	nop
    800004a4:	00000013          	nop
    800004a8:	00000013          	nop
    800004ac:	00000013          	nop
    800004b0:	00000013          	nop
    800004b4:	00000013          	nop
    800004b8:	00000013          	nop
    800004bc:	00000013          	nop
    800004c0:	00000013          	nop
    800004c4:	00000013          	nop
    800004c8:	00000013          	nop
    800004cc:	00000013          	nop
    800004d0:	00000013          	nop
    800004d4:	00000013          	nop
    800004d8:	00000013          	nop
    800004dc:	00000013          	nop
    800004e0:	00000013          	nop
    800004e4:	00000013          	nop
    800004e8:	00000013          	nop
    800004ec:	00000013          	nop
    800004f0:	00000013          	nop
    800004f4:	00000013          	nop
    800004f8:	00000013          	nop
    800004fc:	00000013          	nop

0000000080000500 <xPortStartFirstTask>:

#if( portasmHAS_SIFIVE_CLINT != 0 )
	/* If there is a clint then interrupts can branch directly to the FreeRTOS
	trap handler.  Otherwise the interrupt controller will need to be configured
	outside of this file. */
	la t0, freertos_risc_v_trap_handler
    80000500:	00000297          	auipc	t0,0x0
    80000504:	e0028293          	addi	t0,t0,-512 # 80000300 <freertos_risc_v_trap_handler>
	csrw mtvec, t0
    80000508:	30529073          	csrw	mtvec,t0
#endif /* portasmHAS_CLILNT */

	load_x  sp, pxCurrentTCB			/* Load pxCurrentTCB. */
    8000050c:	0000a117          	auipc	sp,0xa
    80000510:	6c413103          	ld	sp,1732(sp) # 8000abd0 <pxCurrentTCB>
	load_x  sp, 0( sp )				 	/* Read sp from first TCB member. */
    80000514:	6102                	ld	sp,0(sp)

	load_x  x1, 0( sp ) /* Note for starting the scheduler the exception return address is used as the function return address. */
    80000516:	6082                	ld	ra,0(sp)

	portasmRESTORE_ADDITIONAL_REGISTERS	/* Defined in freertos_risc_v_chip_specific_extensions.h to restore any registers unique to the RISC-V implementation. */

	load_x  x6, 3 * portWORD_SIZE( sp )		/* t1 */
    80000518:	6362                	ld	t1,24(sp)
	load_x  x7, 4 * portWORD_SIZE( sp )		/* t2 */
    8000051a:	7382                	ld	t2,32(sp)
	load_x  x8, 5 * portWORD_SIZE( sp )		/* s0/fp */
    8000051c:	7422                	ld	s0,40(sp)
	load_x  x9, 6 * portWORD_SIZE( sp )		/* s1 */
    8000051e:	74c2                	ld	s1,48(sp)
	load_x  x10, 7 * portWORD_SIZE( sp )	/* a0 */
    80000520:	7562                	ld	a0,56(sp)
	load_x  x11, 8 * portWORD_SIZE( sp )	/* a1 */
    80000522:	6586                	ld	a1,64(sp)
	load_x  x12, 9 * portWORD_SIZE( sp )	/* a2 */
    80000524:	6626                	ld	a2,72(sp)
	load_x  x13, 10 * portWORD_SIZE( sp )	/* a3 */
    80000526:	66c6                	ld	a3,80(sp)
	load_x  x14, 11 * portWORD_SIZE( sp )	/* a4 */
    80000528:	6766                	ld	a4,88(sp)
	load_x  x15, 12 * portWORD_SIZE( sp )	/* a5 */
    8000052a:	7786                	ld	a5,96(sp)
	load_x  x16, 13 * portWORD_SIZE( sp )	/* a6 */
    8000052c:	7826                	ld	a6,104(sp)
	load_x  x17, 14 * portWORD_SIZE( sp )	/* a7 */
    8000052e:	78c6                	ld	a7,112(sp)
	load_x  x18, 15 * portWORD_SIZE( sp )	/* s2 */
    80000530:	7966                	ld	s2,120(sp)
	load_x  x19, 16 * portWORD_SIZE( sp )	/* s3 */
    80000532:	698a                	ld	s3,128(sp)
	load_x  x20, 17 * portWORD_SIZE( sp )	/* s4 */
    80000534:	6a2a                	ld	s4,136(sp)
	load_x  x21, 18 * portWORD_SIZE( sp )	/* s5 */
    80000536:	6aca                	ld	s5,144(sp)
	load_x  x22, 19 * portWORD_SIZE( sp )	/* s6 */
    80000538:	6b6a                	ld	s6,152(sp)
	load_x  x23, 20 * portWORD_SIZE( sp )	/* s7 */
    8000053a:	7b8a                	ld	s7,160(sp)
	load_x  x24, 21 * portWORD_SIZE( sp )	/* s8 */
    8000053c:	7c2a                	ld	s8,168(sp)
	load_x  x25, 22 * portWORD_SIZE( sp )	/* s9 */
    8000053e:	7cca                	ld	s9,176(sp)
	load_x  x26, 23 * portWORD_SIZE( sp )	/* s10 */
    80000540:	7d6a                	ld	s10,184(sp)
	load_x  x27, 24 * portWORD_SIZE( sp )	/* s11 */
    80000542:	6d8e                	ld	s11,192(sp)
	load_x  x28, 25 * portWORD_SIZE( sp )	/* t3 */
    80000544:	6e2e                	ld	t3,200(sp)
	load_x  x29, 26 * portWORD_SIZE( sp )	/* t4 */
    80000546:	6ece                	ld	t4,208(sp)
	load_x  x30, 27 * portWORD_SIZE( sp )	/* t5 */
    80000548:	6f6e                	ld	t5,216(sp)
	load_x  x31, 28 * portWORD_SIZE( sp )	/* t6 */
    8000054a:	7f8e                	ld	t6,224(sp)

	load_x  x5, 29 * portWORD_SIZE( sp )	/* Initial mstatus into x5 (t0) */
    8000054c:	72ae                	ld	t0,232(sp)
	addi x5, x5, 0x08						/* Set MIE bit so the first task starts with interrupts enabled - required as returns with ret not eret. */
    8000054e:	02a1                	addi	t0,t0,8
	csrrw  x0, mstatus, x5					/* Interrupts enabled from here! */
    80000550:	30029073          	csrw	mstatus,t0
	load_x  x5, 2 * portWORD_SIZE( sp )		/* Initial x5 (t0) value. */
    80000554:	62c2                	ld	t0,16(sp)

	addi	sp, sp, portCONTEXT_SIZE
    80000556:	616d                	addi	sp,sp,240
	ret
    80000558:	8082                	ret
    8000055a:	00000013          	nop
    8000055e:	00000013          	nop
    80000562:	00000013          	nop
    80000566:	00000013          	nop
    8000056a:	00000013          	nop
    8000056e:	00000013          	nop
    80000572:	00000013          	nop
    80000576:	00000013          	nop
    8000057a:	00000013          	nop
    8000057e:	00000013          	nop
    80000582:	00000013          	nop
    80000586:	00000013          	nop
    8000058a:	00000013          	nop
    8000058e:	00000013          	nop
    80000592:	00000013          	nop
    80000596:	00000013          	nop
    8000059a:	00000013          	nop
    8000059e:	00000013          	nop
    800005a2:	00000013          	nop
    800005a6:	00000013          	nop
    800005aa:	00000013          	nop
    800005ae:	00000013          	nop
    800005b2:	00000013          	nop
    800005b6:	00000013          	nop
    800005ba:	00000013          	nop
    800005be:	00000013          	nop
    800005c2:	00000013          	nop
    800005c6:	00000013          	nop
    800005ca:	00000013          	nop
    800005ce:	00000013          	nop
    800005d2:	00000013          	nop
    800005d6:	00000013          	nop
    800005da:	00000013          	nop
    800005de:	00000013          	nop
    800005e2:	00000013          	nop
    800005e6:	00000013          	nop
    800005ea:	00000013          	nop
    800005ee:	00000013          	nop
    800005f2:	00000013          	nop
    800005f6:	00000013          	nop
    800005fa:	00000013          	nop
    800005fe:	0001                	nop

0000000080000600 <pxPortInitialiseStack>:
 */
.align 8
.func
pxPortInitialiseStack:

	csrr t0, mstatus					/* Obtain current mstatus value. */
    80000600:	300022f3          	csrr	t0,mstatus
	andi t0, t0, ~0x8					/* Ensure interrupts are disabled when the stack is restored within an ISR.  Required when a task is created after the schedulre has been started, otherwise interrupts would be disabled anyway. */
    80000604:	ff72f293          	andi	t0,t0,-9
	addi t1, x0, 0x188					/* Generate the value 0x1880, which are the MPIE and MPP bits to set in mstatus. */
    80000608:	18800313          	li	t1,392
	slli t1, t1, 4
    8000060c:	0312                	slli	t1,t1,0x4
	or t0, t0, t1						/* Set MPIE and MPP bits in mstatus value. */
    8000060e:	0062e2b3          	or	t0,t0,t1

	addi a0, a0, -portWORD_SIZE
    80000612:	1561                	addi	a0,a0,-8
	store_x t0, 0(a0)					/* mstatus onto the stack. */
    80000614:	00553023          	sd	t0,0(a0)
	addi a0, a0, -(22 * portWORD_SIZE)	/* Space for registers x11-x31. */
    80000618:	f5050513          	addi	a0,a0,-176
	store_x a2, 0(a0)					/* Task parameters (pvParameters parameter) goes into register X10/a0 on the stack. */
    8000061c:	e110                	sd	a2,0(a0)
	addi a0, a0, -(6 * portWORD_SIZE)	/* Space for registers x5-x9. */
    8000061e:	fd050513          	addi	a0,a0,-48
	store_x x0, 0(a0)					/* Return address onto the stack, could be portTASK_RETURN_ADDRESS */
    80000622:	00053023          	sd	zero,0(a0)
	addi t0, x0, portasmADDITIONAL_CONTEXT_SIZE /* The number of chip specific additional registers. */
    80000626:	00000293          	li	t0,0

000000008000062a <chip_specific_stack_frame>:
chip_specific_stack_frame:				/* First add any chip specific registers to the stack frame being created. */
	beq t0, x0, 1f						/* No more chip specific registers to save. */
    8000062a:	00028763          	beqz	t0,80000638 <chip_specific_stack_frame+0xe>
	addi a0, a0, -portWORD_SIZE			/* Make space for chip specific register. */
    8000062e:	1561                	addi	a0,a0,-8
	store_x x0, 0(a0)					/* Give the chip specific register an initial value of zero. */
    80000630:	00053023          	sd	zero,0(a0)
	addi t0, t0, -1						/* Decrement the count of chip specific registers remaining. */
    80000634:	12fd                	addi	t0,t0,-1
	j chip_specific_stack_frame			/* Until no more chip specific registers. */
    80000636:	bfd5                	j	8000062a <chip_specific_stack_frame>
1:
	addi a0, a0, -portWORD_SIZE
    80000638:	1561                	addi	a0,a0,-8
	store_x a1, 0(a0)					/* mret value (pxCode parameter) onto the stack. */
    8000063a:	e10c                	sd	a1,0(a0)
	ret
    8000063c:	8082                	ret
	...

0000000080000670 <vListInitialise>:
/*-----------------------------------------------------------
* PUBLIC LIST API documented in list.h
*----------------------------------------------------------*/

void vListInitialise( List_t * const pxList )
{
    80000670:	1141                	addi	sp,sp,-16
    80000672:	e42a                	sd	a0,8(sp)
    /* The list structure contains a list item which is used to mark the
     * end of the list.  To initialise the list the list end is inserted
     * as the only list entry. */
    pxList->pxIndex = ( ListItem_t * ) &( pxList->xListEnd ); /*lint !e826 !e740 !e9087 The mini list structure is used as the list end to save RAM.  This is checked and valid. */
    80000674:	67a2                	ld	a5,8(sp)
    80000676:	01078713          	addi	a4,a5,16 # 1010 <_tbss_end+0x1010>
    8000067a:	67a2                	ld	a5,8(sp)
    8000067c:	e798                	sd	a4,8(a5)

    /* The list end value is the highest possible value in the list to
     * ensure it remains at the end of the list. */
    pxList->xListEnd.xItemValue = portMAX_DELAY;
    8000067e:	67a2                	ld	a5,8(sp)
    80000680:	577d                	li	a4,-1
    80000682:	eb98                	sd	a4,16(a5)

    /* The list end next and previous pointers point to itself so we know
     * when the list is empty. */
    pxList->xListEnd.pxNext = ( ListItem_t * ) &( pxList->xListEnd );     /*lint !e826 !e740 !e9087 The mini list structure is used as the list end to save RAM.  This is checked and valid. */
    80000684:	67a2                	ld	a5,8(sp)
    80000686:	01078713          	addi	a4,a5,16
    8000068a:	67a2                	ld	a5,8(sp)
    8000068c:	ef98                	sd	a4,24(a5)
    pxList->xListEnd.pxPrevious = ( ListItem_t * ) &( pxList->xListEnd ); /*lint !e826 !e740 !e9087 The mini list structure is used as the list end to save RAM.  This is checked and valid. */
    8000068e:	67a2                	ld	a5,8(sp)
    80000690:	01078713          	addi	a4,a5,16
    80000694:	67a2                	ld	a5,8(sp)
    80000696:	f398                	sd	a4,32(a5)

    pxList->uxNumberOfItems = ( UBaseType_t ) 0U;
    80000698:	67a2                	ld	a5,8(sp)
    8000069a:	0007b023          	sd	zero,0(a5)

    /* Write known values into the list if
     * configUSE_LIST_DATA_INTEGRITY_CHECK_BYTES is set to 1. */
    listSET_LIST_INTEGRITY_CHECK_1_VALUE( pxList );
    listSET_LIST_INTEGRITY_CHECK_2_VALUE( pxList );
}
    8000069e:	0001                	nop
    800006a0:	0141                	addi	sp,sp,16
    800006a2:	8082                	ret

00000000800006a4 <vListInitialiseItem>:
/*-----------------------------------------------------------*/

void vListInitialiseItem( ListItem_t * const pxItem )
{
    800006a4:	1141                	addi	sp,sp,-16
    800006a6:	e42a                	sd	a0,8(sp)
    /* Make sure the list item is not recorded as being on a list. */
    pxItem->pxContainer = NULL;
    800006a8:	67a2                	ld	a5,8(sp)
    800006aa:	0207b023          	sd	zero,32(a5)

    /* Write known values into the list item if
     * configUSE_LIST_DATA_INTEGRITY_CHECK_BYTES is set to 1. */
    listSET_FIRST_LIST_ITEM_INTEGRITY_CHECK_VALUE( pxItem );
    listSET_SECOND_LIST_ITEM_INTEGRITY_CHECK_VALUE( pxItem );
}
    800006ae:	0001                	nop
    800006b0:	0141                	addi	sp,sp,16
    800006b2:	8082                	ret

00000000800006b4 <vListInsertEnd>:
/*-----------------------------------------------------------*/

void vListInsertEnd( List_t * const pxList,
                     ListItem_t * const pxNewListItem )
{
    800006b4:	1101                	addi	sp,sp,-32
    800006b6:	e42a                	sd	a0,8(sp)
    800006b8:	e02e                	sd	a1,0(sp)
    ListItem_t * const pxIndex = pxList->pxIndex;
    800006ba:	67a2                	ld	a5,8(sp)
    800006bc:	679c                	ld	a5,8(a5)
    800006be:	ec3e                	sd	a5,24(sp)
    listTEST_LIST_ITEM_INTEGRITY( pxNewListItem );

    /* Insert a new list item into pxList, but rather than sort the list,
     * makes the new list item the last item to be removed by a call to
     * listGET_OWNER_OF_NEXT_ENTRY(). */
    pxNewListItem->pxNext = pxIndex;
    800006c0:	6782                	ld	a5,0(sp)
    800006c2:	6762                	ld	a4,24(sp)
    800006c4:	e798                	sd	a4,8(a5)
    pxNewListItem->pxPrevious = pxIndex->pxPrevious;
    800006c6:	67e2                	ld	a5,24(sp)
    800006c8:	6b98                	ld	a4,16(a5)
    800006ca:	6782                	ld	a5,0(sp)
    800006cc:	eb98                	sd	a4,16(a5)

    /* Only used during decision coverage testing. */
    mtCOVERAGE_TEST_DELAY();

    pxIndex->pxPrevious->pxNext = pxNewListItem;
    800006ce:	67e2                	ld	a5,24(sp)
    800006d0:	6b9c                	ld	a5,16(a5)
    800006d2:	6702                	ld	a4,0(sp)
    800006d4:	e798                	sd	a4,8(a5)
    pxIndex->pxPrevious = pxNewListItem;
    800006d6:	67e2                	ld	a5,24(sp)
    800006d8:	6702                	ld	a4,0(sp)
    800006da:	eb98                	sd	a4,16(a5)

    /* Remember which list the item is in. */
    pxNewListItem->pxContainer = pxList;
    800006dc:	6782                	ld	a5,0(sp)
    800006de:	6722                	ld	a4,8(sp)
    800006e0:	f398                	sd	a4,32(a5)

    ( pxList->uxNumberOfItems )++;
    800006e2:	67a2                	ld	a5,8(sp)
    800006e4:	639c                	ld	a5,0(a5)
    800006e6:	00178713          	addi	a4,a5,1
    800006ea:	67a2                	ld	a5,8(sp)
    800006ec:	e398                	sd	a4,0(a5)
}
    800006ee:	0001                	nop
    800006f0:	6105                	addi	sp,sp,32
    800006f2:	8082                	ret

00000000800006f4 <vListInsert>:
/*-----------------------------------------------------------*/

void vListInsert( List_t * const pxList,
                  ListItem_t * const pxNewListItem )
{
    800006f4:	1101                	addi	sp,sp,-32
    800006f6:	e42a                	sd	a0,8(sp)
    800006f8:	e02e                	sd	a1,0(sp)
    ListItem_t * pxIterator;
    const TickType_t xValueOfInsertion = pxNewListItem->xItemValue;
    800006fa:	6782                	ld	a5,0(sp)
    800006fc:	639c                	ld	a5,0(a5)
    800006fe:	e83e                	sd	a5,16(sp)
     * new list item should be placed after it.  This ensures that TCBs which are
     * stored in ready lists (all of which have the same xItemValue value) get a
     * share of the CPU.  However, if the xItemValue is the same as the back marker
     * the iteration loop below will not end.  Therefore the value is checked
     * first, and the algorithm slightly modified if necessary. */
    if( xValueOfInsertion == portMAX_DELAY )
    80000700:	6742                	ld	a4,16(sp)
    80000702:	57fd                	li	a5,-1
    80000704:	00f71663          	bne	a4,a5,80000710 <vListInsert+0x1c>
    {
        pxIterator = pxList->xListEnd.pxPrevious;
    80000708:	67a2                	ld	a5,8(sp)
    8000070a:	739c                	ld	a5,32(a5)
    8000070c:	ec3e                	sd	a5,24(sp)
    8000070e:	a831                	j	8000072a <vListInsert+0x36>
        *   4) Using a queue or semaphore before it has been initialised or
        *      before the scheduler has been started (are interrupts firing
        *      before vTaskStartScheduler() has been called?).
        **********************************************************************/

        for( pxIterator = ( ListItem_t * ) &( pxList->xListEnd ); pxIterator->pxNext->xItemValue <= xValueOfInsertion; pxIterator = pxIterator->pxNext ) /*lint !e826 !e740 !e9087 The mini list structure is used as the list end to save RAM.  This is checked and valid. *//*lint !e440 The iterator moves to a different value, not xValueOfInsertion. */
    80000710:	67a2                	ld	a5,8(sp)
    80000712:	07c1                	addi	a5,a5,16
    80000714:	ec3e                	sd	a5,24(sp)
    80000716:	a021                	j	8000071e <vListInsert+0x2a>
    80000718:	67e2                	ld	a5,24(sp)
    8000071a:	679c                	ld	a5,8(a5)
    8000071c:	ec3e                	sd	a5,24(sp)
    8000071e:	67e2                	ld	a5,24(sp)
    80000720:	679c                	ld	a5,8(a5)
    80000722:	639c                	ld	a5,0(a5)
    80000724:	6742                	ld	a4,16(sp)
    80000726:	fef779e3          	bgeu	a4,a5,80000718 <vListInsert+0x24>
            /* There is nothing to do here, just iterating to the wanted
             * insertion position. */
        }
    }

    pxNewListItem->pxNext = pxIterator->pxNext;
    8000072a:	67e2                	ld	a5,24(sp)
    8000072c:	6798                	ld	a4,8(a5)
    8000072e:	6782                	ld	a5,0(sp)
    80000730:	e798                	sd	a4,8(a5)
    pxNewListItem->pxNext->pxPrevious = pxNewListItem;
    80000732:	6782                	ld	a5,0(sp)
    80000734:	679c                	ld	a5,8(a5)
    80000736:	6702                	ld	a4,0(sp)
    80000738:	eb98                	sd	a4,16(a5)
    pxNewListItem->pxPrevious = pxIterator;
    8000073a:	6782                	ld	a5,0(sp)
    8000073c:	6762                	ld	a4,24(sp)
    8000073e:	eb98                	sd	a4,16(a5)
    pxIterator->pxNext = pxNewListItem;
    80000740:	67e2                	ld	a5,24(sp)
    80000742:	6702                	ld	a4,0(sp)
    80000744:	e798                	sd	a4,8(a5)

    /* Remember which list the item is in.  This allows fast removal of the
     * item later. */
    pxNewListItem->pxContainer = pxList;
    80000746:	6782                	ld	a5,0(sp)
    80000748:	6722                	ld	a4,8(sp)
    8000074a:	f398                	sd	a4,32(a5)

    ( pxList->uxNumberOfItems )++;
    8000074c:	67a2                	ld	a5,8(sp)
    8000074e:	639c                	ld	a5,0(a5)
    80000750:	00178713          	addi	a4,a5,1
    80000754:	67a2                	ld	a5,8(sp)
    80000756:	e398                	sd	a4,0(a5)
}
    80000758:	0001                	nop
    8000075a:	6105                	addi	sp,sp,32
    8000075c:	8082                	ret

000000008000075e <uxListRemove>:
/*-----------------------------------------------------------*/

UBaseType_t uxListRemove( ListItem_t * const pxItemToRemove )
{
    8000075e:	1101                	addi	sp,sp,-32
    80000760:	e42a                	sd	a0,8(sp)
/* The list item knows which list it is in.  Obtain the list from the list
 * item. */
    List_t * const pxList = pxItemToRemove->pxContainer;
    80000762:	67a2                	ld	a5,8(sp)
    80000764:	739c                	ld	a5,32(a5)
    80000766:	ec3e                	sd	a5,24(sp)

    pxItemToRemove->pxNext->pxPrevious = pxItemToRemove->pxPrevious;
    80000768:	67a2                	ld	a5,8(sp)
    8000076a:	679c                	ld	a5,8(a5)
    8000076c:	6722                	ld	a4,8(sp)
    8000076e:	6b18                	ld	a4,16(a4)
    80000770:	eb98                	sd	a4,16(a5)
    pxItemToRemove->pxPrevious->pxNext = pxItemToRemove->pxNext;
    80000772:	67a2                	ld	a5,8(sp)
    80000774:	6b9c                	ld	a5,16(a5)
    80000776:	6722                	ld	a4,8(sp)
    80000778:	6718                	ld	a4,8(a4)
    8000077a:	e798                	sd	a4,8(a5)

    /* Only used during decision coverage testing. */
    mtCOVERAGE_TEST_DELAY();

    /* Make sure the index is left pointing to a valid item. */
    if( pxList->pxIndex == pxItemToRemove )
    8000077c:	67e2                	ld	a5,24(sp)
    8000077e:	679c                	ld	a5,8(a5)
    80000780:	6722                	ld	a4,8(sp)
    80000782:	00f71663          	bne	a4,a5,8000078e <uxListRemove+0x30>
    {
        pxList->pxIndex = pxItemToRemove->pxPrevious;
    80000786:	67a2                	ld	a5,8(sp)
    80000788:	6b98                	ld	a4,16(a5)
    8000078a:	67e2                	ld	a5,24(sp)
    8000078c:	e798                	sd	a4,8(a5)
    else
    {
        mtCOVERAGE_TEST_MARKER();
    }

    pxItemToRemove->pxContainer = NULL;
    8000078e:	67a2                	ld	a5,8(sp)
    80000790:	0207b023          	sd	zero,32(a5)
    ( pxList->uxNumberOfItems )--;
    80000794:	67e2                	ld	a5,24(sp)
    80000796:	639c                	ld	a5,0(a5)
    80000798:	fff78713          	addi	a4,a5,-1
    8000079c:	67e2                	ld	a5,24(sp)
    8000079e:	e398                	sd	a4,0(a5)

    return pxList->uxNumberOfItems;
    800007a0:	67e2                	ld	a5,24(sp)
    800007a2:	639c                	ld	a5,0(a5)
}
    800007a4:	853e                	mv	a0,a5
    800007a6:	6105                	addi	sp,sp,32
    800007a8:	8082                	ret

00000000800007aa <xQueueGenericReset>:
    taskEXIT_CRITICAL()
/*-----------------------------------------------------------*/

BaseType_t xQueueGenericReset( QueueHandle_t xQueue,
                               BaseType_t xNewQueue )
{
    800007aa:	7179                	addi	sp,sp,-48
    800007ac:	f406                	sd	ra,40(sp)
    800007ae:	e42a                	sd	a0,8(sp)
    800007b0:	e02e                	sd	a1,0(sp)
    Queue_t * const pxQueue = xQueue;
    800007b2:	67a2                	ld	a5,8(sp)
    800007b4:	ec3e                	sd	a5,24(sp)

    configASSERT( pxQueue );
    800007b6:	67e2                	ld	a5,24(sp)
    800007b8:	e781                	bnez	a5,800007c0 <xQueueGenericReset+0x16>
    800007ba:	30047073          	csrci	mstatus,8
    800007be:	a001                	j	800007be <xQueueGenericReset+0x14>

    taskENTER_CRITICAL();
    800007c0:	40d020ef          	jal	ra,800033cc <vTaskEnterCritical>
    {
        pxQueue->u.xQueue.pcTail = pxQueue->pcHead + ( pxQueue->uxLength * pxQueue->uxItemSize ); /*lint !e9016 Pointer arithmetic allowed on char types, especially when it assists conveying intent. */
    800007c4:	67e2                	ld	a5,24(sp)
    800007c6:	6398                	ld	a4,0(a5)
    800007c8:	67e2                	ld	a5,24(sp)
    800007ca:	7fb4                	ld	a3,120(a5)
    800007cc:	67e2                	ld	a5,24(sp)
    800007ce:	63dc                	ld	a5,128(a5)
    800007d0:	02f687b3          	mul	a5,a3,a5
    800007d4:	973e                	add	a4,a4,a5
    800007d6:	67e2                	ld	a5,24(sp)
    800007d8:	eb98                	sd	a4,16(a5)
        pxQueue->uxMessagesWaiting = ( UBaseType_t ) 0U;
    800007da:	67e2                	ld	a5,24(sp)
    800007dc:	0607b823          	sd	zero,112(a5)
        pxQueue->pcWriteTo = pxQueue->pcHead;
    800007e0:	67e2                	ld	a5,24(sp)
    800007e2:	6398                	ld	a4,0(a5)
    800007e4:	67e2                	ld	a5,24(sp)
    800007e6:	e798                	sd	a4,8(a5)
        pxQueue->u.xQueue.pcReadFrom = pxQueue->pcHead + ( ( pxQueue->uxLength - 1U ) * pxQueue->uxItemSize ); /*lint !e9016 Pointer arithmetic allowed on char types, especially when it assists conveying intent. */
    800007e8:	67e2                	ld	a5,24(sp)
    800007ea:	6398                	ld	a4,0(a5)
    800007ec:	67e2                	ld	a5,24(sp)
    800007ee:	7fbc                	ld	a5,120(a5)
    800007f0:	fff78693          	addi	a3,a5,-1
    800007f4:	67e2                	ld	a5,24(sp)
    800007f6:	63dc                	ld	a5,128(a5)
    800007f8:	02f687b3          	mul	a5,a3,a5
    800007fc:	973e                	add	a4,a4,a5
    800007fe:	67e2                	ld	a5,24(sp)
    80000800:	ef98                	sd	a4,24(a5)
        pxQueue->cRxLock = queueUNLOCKED;
    80000802:	67e2                	ld	a5,24(sp)
    80000804:	577d                	li	a4,-1
    80000806:	08e78423          	sb	a4,136(a5)
        pxQueue->cTxLock = queueUNLOCKED;
    8000080a:	67e2                	ld	a5,24(sp)
    8000080c:	577d                	li	a4,-1
    8000080e:	08e784a3          	sb	a4,137(a5)

        if( xNewQueue == pdFALSE )
    80000812:	6782                	ld	a5,0(sp)
    80000814:	ef99                	bnez	a5,80000832 <xQueueGenericReset+0x88>
            /* If there are tasks blocked waiting to read from the queue, then
             * the tasks will remain blocked as after this function exits the queue
             * will still be empty.  If there are tasks blocked waiting to write to
             * the queue, then one should be unblocked as after this function exits
             * it will be possible to write to it. */
            if( listLIST_IS_EMPTY( &( pxQueue->xTasksWaitingToSend ) ) == pdFALSE )
    80000816:	67e2                	ld	a5,24(sp)
    80000818:	739c                	ld	a5,32(a5)
    8000081a:	cb85                	beqz	a5,8000084a <xQueueGenericReset+0xa0>
            {
                if( xTaskRemoveFromEventList( &( pxQueue->xTasksWaitingToSend ) ) != pdFALSE )
    8000081c:	67e2                	ld	a5,24(sp)
    8000081e:	02078793          	addi	a5,a5,32
    80000822:	853e                	mv	a0,a5
    80000824:	224020ef          	jal	ra,80002a48 <xTaskRemoveFromEventList>
    80000828:	87aa                	mv	a5,a0
    8000082a:	c385                	beqz	a5,8000084a <xQueueGenericReset+0xa0>
                {
                    queueYIELD_IF_USING_PREEMPTION();
    8000082c:	00000073          	ecall
    80000830:	a829                	j	8000084a <xQueueGenericReset+0xa0>
            }
        }
        else
        {
            /* Ensure the event queues start in the correct state. */
            vListInitialise( &( pxQueue->xTasksWaitingToSend ) );
    80000832:	67e2                	ld	a5,24(sp)
    80000834:	02078793          	addi	a5,a5,32
    80000838:	853e                	mv	a0,a5
    8000083a:	e37ff0ef          	jal	ra,80000670 <vListInitialise>
            vListInitialise( &( pxQueue->xTasksWaitingToReceive ) );
    8000083e:	67e2                	ld	a5,24(sp)
    80000840:	04878793          	addi	a5,a5,72
    80000844:	853e                	mv	a0,a5
    80000846:	e2bff0ef          	jal	ra,80000670 <vListInitialise>
        }
    }
    taskEXIT_CRITICAL();
    8000084a:	3b1020ef          	jal	ra,800033fa <vTaskExitCritical>

    /* A value is returned for calling semantic consistency with previous
     * versions. */
    return pdPASS;
    8000084e:	4785                	li	a5,1
}
    80000850:	853e                	mv	a0,a5
    80000852:	70a2                	ld	ra,40(sp)
    80000854:	6145                	addi	sp,sp,48
    80000856:	8082                	ret

0000000080000858 <xQueueGenericCreate>:
#if ( configSUPPORT_DYNAMIC_ALLOCATION == 1 )

    QueueHandle_t xQueueGenericCreate( const UBaseType_t uxQueueLength,
                                       const UBaseType_t uxItemSize,
                                       const uint8_t ucQueueType )
    {
    80000858:	715d                	addi	sp,sp,-80
    8000085a:	e486                	sd	ra,72(sp)
    8000085c:	ec2a                	sd	a0,24(sp)
    8000085e:	e82e                	sd	a1,16(sp)
    80000860:	87b2                	mv	a5,a2
    80000862:	00f107a3          	sb	a5,15(sp)
        Queue_t * pxNewQueue;
        size_t xQueueSizeInBytes;
        uint8_t * pucQueueStorage;

        configASSERT( uxQueueLength > ( UBaseType_t ) 0 );
    80000866:	67e2                	ld	a5,24(sp)
    80000868:	e781                	bnez	a5,80000870 <xQueueGenericCreate+0x18>
    8000086a:	30047073          	csrci	mstatus,8
    8000086e:	a001                	j	8000086e <xQueueGenericCreate+0x16>

        /* Allocate enough space to hold the maximum number of items that
         * can be in the queue at any time.  It is valid for uxItemSize to be
         * zero in the case the queue is used as a semaphore. */
        xQueueSizeInBytes = ( size_t ) ( uxQueueLength * uxItemSize ); /*lint !e961 MISRA exception as the casts are only redundant for some ports. */
    80000870:	6762                	ld	a4,24(sp)
    80000872:	67c2                	ld	a5,16(sp)
    80000874:	02f707b3          	mul	a5,a4,a5
    80000878:	fc3e                	sd	a5,56(sp)

        /* Check for multiplication overflow. */
        configASSERT( ( uxItemSize == 0 ) || ( uxQueueLength == ( xQueueSizeInBytes / uxItemSize ) ) );
    8000087a:	67c2                	ld	a5,16(sp)
    8000087c:	cb81                	beqz	a5,8000088c <xQueueGenericCreate+0x34>
    8000087e:	7762                	ld	a4,56(sp)
    80000880:	67c2                	ld	a5,16(sp)
    80000882:	02f757b3          	divu	a5,a4,a5
    80000886:	6762                	ld	a4,24(sp)
    80000888:	00f71463          	bne	a4,a5,80000890 <xQueueGenericCreate+0x38>
    8000088c:	4785                	li	a5,1
    8000088e:	a011                	j	80000892 <xQueueGenericCreate+0x3a>
    80000890:	4781                	li	a5,0
    80000892:	e781                	bnez	a5,8000089a <xQueueGenericCreate+0x42>
    80000894:	30047073          	csrci	mstatus,8
    80000898:	a001                	j	80000898 <xQueueGenericCreate+0x40>
         * alignment requirements of the Queue_t structure - which in this case
         * is an int8_t *.  Therefore, whenever the stack alignment requirements
         * are greater than or equal to the pointer to char requirements the cast
         * is safe.  In other cases alignment requirements are not strict (one or
         * two bytes). */
        pxNewQueue = ( Queue_t * ) pvPortMalloc( sizeof( Queue_t ) + xQueueSizeInBytes ); /*lint !e9087 !e9079 see comment above. */
    8000089a:	77e2                	ld	a5,56(sp)
    8000089c:	0a078793          	addi	a5,a5,160
    800008a0:	853e                	mv	a0,a5
    800008a2:	1be040ef          	jal	ra,80004a60 <pvPortMalloc>
    800008a6:	f82a                	sd	a0,48(sp)

        if( pxNewQueue != NULL )
    800008a8:	77c2                	ld	a5,48(sp)
    800008aa:	c385                	beqz	a5,800008ca <xQueueGenericCreate+0x72>
        {
            /* Jump past the queue structure to find the location of the queue
             * storage area. */
            pucQueueStorage = ( uint8_t * ) pxNewQueue;
    800008ac:	77c2                	ld	a5,48(sp)
    800008ae:	f43e                	sd	a5,40(sp)
            pucQueueStorage += sizeof( Queue_t ); /*lint !e9016 Pointer arithmetic allowed on char types, especially when it assists conveying intent. */
    800008b0:	77a2                	ld	a5,40(sp)
    800008b2:	0a078793          	addi	a5,a5,160
    800008b6:	f43e                	sd	a5,40(sp)
                     * deleted. */
                    pxNewQueue->ucStaticallyAllocated = pdFALSE;
                }
            #endif /* configSUPPORT_STATIC_ALLOCATION */

            prvInitialiseNewQueue( uxQueueLength, uxItemSize, pucQueueStorage, ucQueueType, pxNewQueue );
    800008b8:	00f14783          	lbu	a5,15(sp)
    800008bc:	7742                	ld	a4,48(sp)
    800008be:	86be                	mv	a3,a5
    800008c0:	7622                	ld	a2,40(sp)
    800008c2:	65c2                	ld	a1,16(sp)
    800008c4:	6562                	ld	a0,24(sp)
    800008c6:	00e000ef          	jal	ra,800008d4 <prvInitialiseNewQueue>
        {
            traceQUEUE_CREATE_FAILED( ucQueueType );
            mtCOVERAGE_TEST_MARKER();
        }

        return pxNewQueue;
    800008ca:	77c2                	ld	a5,48(sp)
    }
    800008cc:	853e                	mv	a0,a5
    800008ce:	60a6                	ld	ra,72(sp)
    800008d0:	6161                	addi	sp,sp,80
    800008d2:	8082                	ret

00000000800008d4 <prvInitialiseNewQueue>:
static void prvInitialiseNewQueue( const UBaseType_t uxQueueLength,
                                   const UBaseType_t uxItemSize,
                                   uint8_t * pucQueueStorage,
                                   const uint8_t ucQueueType,
                                   Queue_t * pxNewQueue )
{
    800008d4:	7139                	addi	sp,sp,-64
    800008d6:	fc06                	sd	ra,56(sp)
    800008d8:	f42a                	sd	a0,40(sp)
    800008da:	f02e                	sd	a1,32(sp)
    800008dc:	ec32                	sd	a2,24(sp)
    800008de:	87b6                	mv	a5,a3
    800008e0:	e43a                	sd	a4,8(sp)
    800008e2:	00f10ba3          	sb	a5,23(sp)
    /* Remove compiler warnings about unused parameters should
     * configUSE_TRACE_FACILITY not be set to 1. */
    ( void ) ucQueueType;

    if( uxItemSize == ( UBaseType_t ) 0 )
    800008e6:	7782                	ld	a5,32(sp)
    800008e8:	e789                	bnez	a5,800008f2 <prvInitialiseNewQueue+0x1e>
    {
        /* No RAM was allocated for the queue storage area, but PC head cannot
         * be set to NULL because NULL is used as a key to say the queue is used as
         * a mutex.  Therefore just set pcHead to point to the queue as a benign
         * value that is known to be within the memory map. */
        pxNewQueue->pcHead = ( int8_t * ) pxNewQueue;
    800008ea:	67a2                	ld	a5,8(sp)
    800008ec:	6722                	ld	a4,8(sp)
    800008ee:	e398                	sd	a4,0(a5)
    800008f0:	a021                	j	800008f8 <prvInitialiseNewQueue+0x24>
    }
    else
    {
        /* Set the head to the start of the queue storage area. */
        pxNewQueue->pcHead = ( int8_t * ) pucQueueStorage;
    800008f2:	67a2                	ld	a5,8(sp)
    800008f4:	6762                	ld	a4,24(sp)
    800008f6:	e398                	sd	a4,0(a5)
    }

    /* Initialise the queue members as described where the queue type is
     * defined. */
    pxNewQueue->uxLength = uxQueueLength;
    800008f8:	67a2                	ld	a5,8(sp)
    800008fa:	7722                	ld	a4,40(sp)
    800008fc:	ffb8                	sd	a4,120(a5)
    pxNewQueue->uxItemSize = uxItemSize;
    800008fe:	67a2                	ld	a5,8(sp)
    80000900:	7702                	ld	a4,32(sp)
    80000902:	e3d8                	sd	a4,128(a5)
    ( void ) xQueueGenericReset( pxNewQueue, pdTRUE );
    80000904:	4585                	li	a1,1
    80000906:	6522                	ld	a0,8(sp)
    80000908:	ea3ff0ef          	jal	ra,800007aa <xQueueGenericReset>

    #if ( configUSE_TRACE_FACILITY == 1 )
        {
            pxNewQueue->ucQueueType = ucQueueType;
    8000090c:	67a2                	ld	a5,8(sp)
    8000090e:	01714703          	lbu	a4,23(sp)
    80000912:	08e78c23          	sb	a4,152(a5)
            pxNewQueue->pxQueueSetContainer = NULL;
        }
    #endif /* configUSE_QUEUE_SETS */

    traceQUEUE_CREATE( pxNewQueue );
}
    80000916:	0001                	nop
    80000918:	70e2                	ld	ra,56(sp)
    8000091a:	6121                	addi	sp,sp,64
    8000091c:	8082                	ret

000000008000091e <prvInitialiseMutex>:
/*-----------------------------------------------------------*/

#if ( configUSE_MUTEXES == 1 )

    static void prvInitialiseMutex( Queue_t * pxNewQueue )
    {
    8000091e:	1101                	addi	sp,sp,-32
    80000920:	ec06                	sd	ra,24(sp)
    80000922:	e42a                	sd	a0,8(sp)
        if( pxNewQueue != NULL )
    80000924:	67a2                	ld	a5,8(sp)
    80000926:	c385                	beqz	a5,80000946 <prvInitialiseMutex+0x28>
        {
            /* The queue create function will set all the queue structure members
            * correctly for a generic queue, but this function is creating a
            * mutex.  Overwrite those members that need to be set differently -
            * in particular the information required for priority inheritance. */
            pxNewQueue->u.xSemaphore.xMutexHolder = NULL;
    80000928:	67a2                	ld	a5,8(sp)
    8000092a:	0007b823          	sd	zero,16(a5)
            pxNewQueue->uxQueueType = queueQUEUE_IS_MUTEX;
    8000092e:	67a2                	ld	a5,8(sp)
    80000930:	0007b023          	sd	zero,0(a5)

            /* In case this is a recursive mutex. */
            pxNewQueue->u.xSemaphore.uxRecursiveCallCount = 0;
    80000934:	67a2                	ld	a5,8(sp)
    80000936:	0007bc23          	sd	zero,24(a5)

            traceCREATE_MUTEX( pxNewQueue );

            /* Start with the semaphore in the expected state. */
            ( void ) xQueueGenericSend( pxNewQueue, NULL, ( TickType_t ) 0U, queueSEND_TO_BACK );
    8000093a:	4681                	li	a3,0
    8000093c:	4601                	li	a2,0
    8000093e:	4581                	li	a1,0
    80000940:	6522                	ld	a0,8(sp)
    80000942:	130000ef          	jal	ra,80000a72 <xQueueGenericSend>
        }
        else
        {
            traceCREATE_MUTEX_FAILED();
        }
    }
    80000946:	0001                	nop
    80000948:	60e2                	ld	ra,24(sp)
    8000094a:	6105                	addi	sp,sp,32
    8000094c:	8082                	ret

000000008000094e <xQueueCreateMutex>:
/*-----------------------------------------------------------*/

#if ( ( configUSE_MUTEXES == 1 ) && ( configSUPPORT_DYNAMIC_ALLOCATION == 1 ) )

    QueueHandle_t xQueueCreateMutex( const uint8_t ucQueueType )
    {
    8000094e:	7139                	addi	sp,sp,-64
    80000950:	fc06                	sd	ra,56(sp)
    80000952:	87aa                	mv	a5,a0
    80000954:	00f107a3          	sb	a5,15(sp)
        QueueHandle_t xNewQueue;
        const UBaseType_t uxMutexLength = ( UBaseType_t ) 1, uxMutexSize = ( UBaseType_t ) 0;
    80000958:	4785                	li	a5,1
    8000095a:	f43e                	sd	a5,40(sp)
    8000095c:	f002                	sd	zero,32(sp)

        xNewQueue = xQueueGenericCreate( uxMutexLength, uxMutexSize, ucQueueType );
    8000095e:	00f14783          	lbu	a5,15(sp)
    80000962:	863e                	mv	a2,a5
    80000964:	7582                	ld	a1,32(sp)
    80000966:	7522                	ld	a0,40(sp)
    80000968:	ef1ff0ef          	jal	ra,80000858 <xQueueGenericCreate>
    8000096c:	ec2a                	sd	a0,24(sp)
        prvInitialiseMutex( ( Queue_t * ) xNewQueue );
    8000096e:	6562                	ld	a0,24(sp)
    80000970:	fafff0ef          	jal	ra,8000091e <prvInitialiseMutex>

        return xNewQueue;
    80000974:	67e2                	ld	a5,24(sp)
    }
    80000976:	853e                	mv	a0,a5
    80000978:	70e2                	ld	ra,56(sp)
    8000097a:	6121                	addi	sp,sp,64
    8000097c:	8082                	ret

000000008000097e <xQueueGiveMutexRecursive>:
/*-----------------------------------------------------------*/

#if ( configUSE_RECURSIVE_MUTEXES == 1 )

    BaseType_t xQueueGiveMutexRecursive( QueueHandle_t xMutex )
    {
    8000097e:	7179                	addi	sp,sp,-48
    80000980:	f406                	sd	ra,40(sp)
    80000982:	f022                	sd	s0,32(sp)
    80000984:	e42a                	sd	a0,8(sp)
        BaseType_t xReturn;
        Queue_t * const pxMutex = ( Queue_t * ) xMutex;
    80000986:	67a2                	ld	a5,8(sp)
    80000988:	e83e                	sd	a5,16(sp)

        configASSERT( pxMutex );
    8000098a:	67c2                	ld	a5,16(sp)
    8000098c:	e781                	bnez	a5,80000994 <xQueueGiveMutexRecursive+0x16>
    8000098e:	30047073          	csrci	mstatus,8
    80000992:	a001                	j	80000992 <xQueueGiveMutexRecursive+0x14>
         * change outside of this task.  If this task does not hold the mutex then
         * pxMutexHolder can never coincidentally equal the tasks handle, and as
         * this is the only condition we are interested in it does not matter if
         * pxMutexHolder is accessed simultaneously by another task.  Therefore no
         * mutual exclusion is required to test the pxMutexHolder variable. */
        if( pxMutex->u.xSemaphore.xMutexHolder == xTaskGetCurrentTaskHandle() )
    80000994:	67c2                	ld	a5,16(sp)
    80000996:	6b80                	ld	s0,16(a5)
    80000998:	6b2020ef          	jal	ra,8000304a <xTaskGetCurrentTaskHandle>
    8000099c:	87aa                	mv	a5,a0
    8000099e:	02f41463          	bne	s0,a5,800009c6 <xQueueGiveMutexRecursive+0x48>
            /* uxRecursiveCallCount cannot be zero if xMutexHolder is equal to
             * the task handle, therefore no underflow check is required.  Also,
             * uxRecursiveCallCount is only modified by the mutex holder, and as
             * there can only be one, no mutual exclusion is required to modify the
             * uxRecursiveCallCount member. */
            ( pxMutex->u.xSemaphore.uxRecursiveCallCount )--;
    800009a2:	67c2                	ld	a5,16(sp)
    800009a4:	6f9c                	ld	a5,24(a5)
    800009a6:	fff78713          	addi	a4,a5,-1
    800009aa:	67c2                	ld	a5,16(sp)
    800009ac:	ef98                	sd	a4,24(a5)

            /* Has the recursive call count unwound to 0? */
            if( pxMutex->u.xSemaphore.uxRecursiveCallCount == ( UBaseType_t ) 0 )
    800009ae:	67c2                	ld	a5,16(sp)
    800009b0:	6f9c                	ld	a5,24(a5)
    800009b2:	e799                	bnez	a5,800009c0 <xQueueGiveMutexRecursive+0x42>
            {
                /* Return the mutex.  This will automatically unblock any other
                 * task that might be waiting to access the mutex. */
                ( void ) xQueueGenericSend( pxMutex, NULL, queueMUTEX_GIVE_BLOCK_TIME, queueSEND_TO_BACK );
    800009b4:	4681                	li	a3,0
    800009b6:	4601                	li	a2,0
    800009b8:	4581                	li	a1,0
    800009ba:	6542                	ld	a0,16(sp)
    800009bc:	0b6000ef          	jal	ra,80000a72 <xQueueGenericSend>
            else
            {
                mtCOVERAGE_TEST_MARKER();
            }

            xReturn = pdPASS;
    800009c0:	4785                	li	a5,1
    800009c2:	ec3e                	sd	a5,24(sp)
    800009c4:	a011                	j	800009c8 <xQueueGiveMutexRecursive+0x4a>
        }
        else
        {
            /* The mutex cannot be given because the calling task is not the
             * holder. */
            xReturn = pdFAIL;
    800009c6:	ec02                	sd	zero,24(sp)

            traceGIVE_MUTEX_RECURSIVE_FAILED( pxMutex );
        }

        return xReturn;
    800009c8:	67e2                	ld	a5,24(sp)
    }
    800009ca:	853e                	mv	a0,a5
    800009cc:	70a2                	ld	ra,40(sp)
    800009ce:	7402                	ld	s0,32(sp)
    800009d0:	6145                	addi	sp,sp,48
    800009d2:	8082                	ret

00000000800009d4 <xQueueTakeMutexRecursive>:

#if ( configUSE_RECURSIVE_MUTEXES == 1 )

    BaseType_t xQueueTakeMutexRecursive( QueueHandle_t xMutex,
                                         TickType_t xTicksToWait )
    {
    800009d4:	7179                	addi	sp,sp,-48
    800009d6:	f406                	sd	ra,40(sp)
    800009d8:	f022                	sd	s0,32(sp)
    800009da:	e42a                	sd	a0,8(sp)
    800009dc:	e02e                	sd	a1,0(sp)
        BaseType_t xReturn;
        Queue_t * const pxMutex = ( Queue_t * ) xMutex;
    800009de:	67a2                	ld	a5,8(sp)
    800009e0:	e83e                	sd	a5,16(sp)

        configASSERT( pxMutex );
    800009e2:	67c2                	ld	a5,16(sp)
    800009e4:	e781                	bnez	a5,800009ec <xQueueTakeMutexRecursive+0x18>
    800009e6:	30047073          	csrci	mstatus,8
    800009ea:	a001                	j	800009ea <xQueueTakeMutexRecursive+0x16>
        /* Comments regarding mutual exclusion as per those within
         * xQueueGiveMutexRecursive(). */

        traceTAKE_MUTEX_RECURSIVE( pxMutex );

        if( pxMutex->u.xSemaphore.xMutexHolder == xTaskGetCurrentTaskHandle() )
    800009ec:	67c2                	ld	a5,16(sp)
    800009ee:	6b80                	ld	s0,16(a5)
    800009f0:	65a020ef          	jal	ra,8000304a <xTaskGetCurrentTaskHandle>
    800009f4:	87aa                	mv	a5,a0
    800009f6:	00f41b63          	bne	s0,a5,80000a0c <xQueueTakeMutexRecursive+0x38>
        {
            ( pxMutex->u.xSemaphore.uxRecursiveCallCount )++;
    800009fa:	67c2                	ld	a5,16(sp)
    800009fc:	6f9c                	ld	a5,24(a5)
    800009fe:	00178713          	addi	a4,a5,1
    80000a02:	67c2                	ld	a5,16(sp)
    80000a04:	ef98                	sd	a4,24(a5)
            xReturn = pdPASS;
    80000a06:	4785                	li	a5,1
    80000a08:	ec3e                	sd	a5,24(sp)
    80000a0a:	a831                	j	80000a26 <xQueueTakeMutexRecursive+0x52>
        }
        else
        {
            xReturn = xQueueSemaphoreTake( pxMutex, xTicksToWait );
    80000a0c:	6582                	ld	a1,0(sp)
    80000a0e:	6542                	ld	a0,16(sp)
    80000a10:	50a000ef          	jal	ra,80000f1a <xQueueSemaphoreTake>
    80000a14:	ec2a                	sd	a0,24(sp)

            /* pdPASS will only be returned if the mutex was successfully
             * obtained.  The calling task may have entered the Blocked state
             * before reaching here. */
            if( xReturn != pdFAIL )
    80000a16:	67e2                	ld	a5,24(sp)
    80000a18:	c799                	beqz	a5,80000a26 <xQueueTakeMutexRecursive+0x52>
            {
                ( pxMutex->u.xSemaphore.uxRecursiveCallCount )++;
    80000a1a:	67c2                	ld	a5,16(sp)
    80000a1c:	6f9c                	ld	a5,24(a5)
    80000a1e:	00178713          	addi	a4,a5,1
    80000a22:	67c2                	ld	a5,16(sp)
    80000a24:	ef98                	sd	a4,24(a5)
            {
                traceTAKE_MUTEX_RECURSIVE_FAILED( pxMutex );
            }
        }

        return xReturn;
    80000a26:	67e2                	ld	a5,24(sp)
    }
    80000a28:	853e                	mv	a0,a5
    80000a2a:	70a2                	ld	ra,40(sp)
    80000a2c:	7402                	ld	s0,32(sp)
    80000a2e:	6145                	addi	sp,sp,48
    80000a30:	8082                	ret

0000000080000a32 <xQueueCreateCountingSemaphore>:

#if ( ( configUSE_COUNTING_SEMAPHORES == 1 ) && ( configSUPPORT_DYNAMIC_ALLOCATION == 1 ) )

    QueueHandle_t xQueueCreateCountingSemaphore( const UBaseType_t uxMaxCount,
                                                 const UBaseType_t uxInitialCount )
    {
    80000a32:	7179                	addi	sp,sp,-48
    80000a34:	f406                	sd	ra,40(sp)
    80000a36:	e42a                	sd	a0,8(sp)
    80000a38:	e02e                	sd	a1,0(sp)
        QueueHandle_t xHandle;

        configASSERT( uxMaxCount != 0 );
    80000a3a:	67a2                	ld	a5,8(sp)
    80000a3c:	e781                	bnez	a5,80000a44 <xQueueCreateCountingSemaphore+0x12>
    80000a3e:	30047073          	csrci	mstatus,8
    80000a42:	a001                	j	80000a42 <xQueueCreateCountingSemaphore+0x10>
        configASSERT( uxInitialCount <= uxMaxCount );
    80000a44:	6702                	ld	a4,0(sp)
    80000a46:	67a2                	ld	a5,8(sp)
    80000a48:	00e7f563          	bgeu	a5,a4,80000a52 <xQueueCreateCountingSemaphore+0x20>
    80000a4c:	30047073          	csrci	mstatus,8
    80000a50:	a001                	j	80000a50 <xQueueCreateCountingSemaphore+0x1e>

        xHandle = xQueueGenericCreate( uxMaxCount, queueSEMAPHORE_QUEUE_ITEM_LENGTH, queueQUEUE_TYPE_COUNTING_SEMAPHORE );
    80000a52:	4609                	li	a2,2
    80000a54:	4581                	li	a1,0
    80000a56:	6522                	ld	a0,8(sp)
    80000a58:	e01ff0ef          	jal	ra,80000858 <xQueueGenericCreate>
    80000a5c:	ec2a                	sd	a0,24(sp)

        if( xHandle != NULL )
    80000a5e:	67e2                	ld	a5,24(sp)
    80000a60:	c781                	beqz	a5,80000a68 <xQueueCreateCountingSemaphore+0x36>
        {
            ( ( Queue_t * ) xHandle )->uxMessagesWaiting = uxInitialCount;
    80000a62:	67e2                	ld	a5,24(sp)
    80000a64:	6702                	ld	a4,0(sp)
    80000a66:	fbb8                	sd	a4,112(a5)
        else
        {
            traceCREATE_COUNTING_SEMAPHORE_FAILED();
        }

        return xHandle;
    80000a68:	67e2                	ld	a5,24(sp)
    }
    80000a6a:	853e                	mv	a0,a5
    80000a6c:	70a2                	ld	ra,40(sp)
    80000a6e:	6145                	addi	sp,sp,48
    80000a70:	8082                	ret

0000000080000a72 <xQueueGenericSend>:

BaseType_t xQueueGenericSend( QueueHandle_t xQueue,
                              const void * const pvItemToQueue,
                              TickType_t xTicksToWait,
                              const BaseType_t xCopyPosition )
{
    80000a72:	711d                	addi	sp,sp,-96
    80000a74:	ec86                	sd	ra,88(sp)
    80000a76:	ec2a                	sd	a0,24(sp)
    80000a78:	e82e                	sd	a1,16(sp)
    80000a7a:	e432                	sd	a2,8(sp)
    80000a7c:	e036                	sd	a3,0(sp)
    BaseType_t xEntryTimeSet = pdFALSE, xYieldRequired;
    80000a7e:	e482                	sd	zero,72(sp)
    TimeOut_t xTimeOut;
    Queue_t * const pxQueue = xQueue;
    80000a80:	67e2                	ld	a5,24(sp)
    80000a82:	e0be                	sd	a5,64(sp)

    configASSERT( pxQueue );
    80000a84:	6786                	ld	a5,64(sp)
    80000a86:	e781                	bnez	a5,80000a8e <xQueueGenericSend+0x1c>
    80000a88:	30047073          	csrci	mstatus,8
    80000a8c:	a001                	j	80000a8c <xQueueGenericSend+0x1a>
    configASSERT( !( ( pvItemToQueue == NULL ) && ( pxQueue->uxItemSize != ( UBaseType_t ) 0U ) ) );
    80000a8e:	67c2                	ld	a5,16(sp)
    80000a90:	e781                	bnez	a5,80000a98 <xQueueGenericSend+0x26>
    80000a92:	6786                	ld	a5,64(sp)
    80000a94:	63dc                	ld	a5,128(a5)
    80000a96:	e399                	bnez	a5,80000a9c <xQueueGenericSend+0x2a>
    80000a98:	4785                	li	a5,1
    80000a9a:	a011                	j	80000a9e <xQueueGenericSend+0x2c>
    80000a9c:	4781                	li	a5,0
    80000a9e:	e781                	bnez	a5,80000aa6 <xQueueGenericSend+0x34>
    80000aa0:	30047073          	csrci	mstatus,8
    80000aa4:	a001                	j	80000aa4 <xQueueGenericSend+0x32>
    configASSERT( !( ( xCopyPosition == queueOVERWRITE ) && ( pxQueue->uxLength != 1 ) ) );
    80000aa6:	6702                	ld	a4,0(sp)
    80000aa8:	4789                	li	a5,2
    80000aaa:	00f71763          	bne	a4,a5,80000ab8 <xQueueGenericSend+0x46>
    80000aae:	6786                	ld	a5,64(sp)
    80000ab0:	7fb8                	ld	a4,120(a5)
    80000ab2:	4785                	li	a5,1
    80000ab4:	00f71463          	bne	a4,a5,80000abc <xQueueGenericSend+0x4a>
    80000ab8:	4785                	li	a5,1
    80000aba:	a011                	j	80000abe <xQueueGenericSend+0x4c>
    80000abc:	4781                	li	a5,0
    80000abe:	e781                	bnez	a5,80000ac6 <xQueueGenericSend+0x54>
    80000ac0:	30047073          	csrci	mstatus,8
    80000ac4:	a001                	j	80000ac4 <xQueueGenericSend+0x52>
    #if ( ( INCLUDE_xTaskGetSchedulerState == 1 ) || ( configUSE_TIMERS == 1 ) )
        {
            configASSERT( !( ( xTaskGetSchedulerState() == taskSCHEDULER_SUSPENDED ) && ( xTicksToWait != 0 ) ) );
    80000ac6:	59a020ef          	jal	ra,80003060 <xTaskGetSchedulerState>
    80000aca:	87aa                	mv	a5,a0
    80000acc:	e399                	bnez	a5,80000ad2 <xQueueGenericSend+0x60>
    80000ace:	67a2                	ld	a5,8(sp)
    80000ad0:	e399                	bnez	a5,80000ad6 <xQueueGenericSend+0x64>
    80000ad2:	4785                	li	a5,1
    80000ad4:	a011                	j	80000ad8 <xQueueGenericSend+0x66>
    80000ad6:	4781                	li	a5,0
    80000ad8:	e781                	bnez	a5,80000ae0 <xQueueGenericSend+0x6e>
    80000ada:	30047073          	csrci	mstatus,8
    80000ade:	a001                	j	80000ade <xQueueGenericSend+0x6c>
    /*lint -save -e904 This function relaxes the coding standard somewhat to
     * allow return statements within the function itself.  This is done in the
     * interest of execution time efficiency. */
    for( ; ; )
    {
        taskENTER_CRITICAL();
    80000ae0:	0ed020ef          	jal	ra,800033cc <vTaskEnterCritical>
        {
            /* Is there room on the queue now?  The running task must be the
             * highest priority task wanting to access the queue.  If the head item
             * in the queue is to be overwritten then it does not matter if the
             * queue is full. */
            if( ( pxQueue->uxMessagesWaiting < pxQueue->uxLength ) || ( xCopyPosition == queueOVERWRITE ) )
    80000ae4:	6786                	ld	a5,64(sp)
    80000ae6:	7bb8                	ld	a4,112(a5)
    80000ae8:	6786                	ld	a5,64(sp)
    80000aea:	7fbc                	ld	a5,120(a5)
    80000aec:	00f76663          	bltu	a4,a5,80000af8 <xQueueGenericSend+0x86>
    80000af0:	6702                	ld	a4,0(sp)
    80000af2:	4789                	li	a5,2
    80000af4:	02f71e63          	bne	a4,a5,80000b30 <xQueueGenericSend+0xbe>
                            }
                        }
                    }
                #else /* configUSE_QUEUE_SETS */
                    {
                        xYieldRequired = prvCopyDataToQueue( pxQueue, pvItemToQueue, xCopyPosition );
    80000af8:	6602                	ld	a2,0(sp)
    80000afa:	65c2                	ld	a1,16(sp)
    80000afc:	6506                	ld	a0,64(sp)
    80000afe:	145000ef          	jal	ra,80001442 <prvCopyDataToQueue>
    80000b02:	fc2a                	sd	a0,56(sp)

                        /* If there was a task waiting for data to arrive on the
                         * queue then unblock it now. */
                        if( listLIST_IS_EMPTY( &( pxQueue->xTasksWaitingToReceive ) ) == pdFALSE )
    80000b04:	6786                	ld	a5,64(sp)
    80000b06:	67bc                	ld	a5,72(a5)
    80000b08:	cf81                	beqz	a5,80000b20 <xQueueGenericSend+0xae>
                        {
                            if( xTaskRemoveFromEventList( &( pxQueue->xTasksWaitingToReceive ) ) != pdFALSE )
    80000b0a:	6786                	ld	a5,64(sp)
    80000b0c:	04878793          	addi	a5,a5,72
    80000b10:	853e                	mv	a0,a5
    80000b12:	737010ef          	jal	ra,80002a48 <xTaskRemoveFromEventList>
    80000b16:	87aa                	mv	a5,a0
    80000b18:	cb81                	beqz	a5,80000b28 <xQueueGenericSend+0xb6>
                            {
                                /* The unblocked task has a priority higher than
                                 * our own so yield immediately.  Yes it is ok to do
                                 * this from within the critical section - the kernel
                                 * takes care of that. */
                                queueYIELD_IF_USING_PREEMPTION();
    80000b1a:	00000073          	ecall
    80000b1e:	a029                	j	80000b28 <xQueueGenericSend+0xb6>
                            else
                            {
                                mtCOVERAGE_TEST_MARKER();
                            }
                        }
                        else if( xYieldRequired != pdFALSE )
    80000b20:	77e2                	ld	a5,56(sp)
    80000b22:	c399                	beqz	a5,80000b28 <xQueueGenericSend+0xb6>
                        {
                            /* This path is a special case that will only get
                             * executed if the task was holding multiple mutexes and
                             * the mutexes were given back in an order that is
                             * different to that in which they were taken. */
                            queueYIELD_IF_USING_PREEMPTION();
    80000b24:	00000073          	ecall
                            mtCOVERAGE_TEST_MARKER();
                        }
                    }
                #endif /* configUSE_QUEUE_SETS */

                taskEXIT_CRITICAL();
    80000b28:	0d3020ef          	jal	ra,800033fa <vTaskExitCritical>
                return pdPASS;
    80000b2c:	4785                	li	a5,1
    80000b2e:	a87d                	j	80000bec <xQueueGenericSend+0x17a>
            }
            else
            {
                if( xTicksToWait == ( TickType_t ) 0 )
    80000b30:	67a2                	ld	a5,8(sp)
    80000b32:	e789                	bnez	a5,80000b3c <xQueueGenericSend+0xca>
                {
                    /* The queue was full and no block time is specified (or
                     * the block time has expired) so leave now. */
                    taskEXIT_CRITICAL();
    80000b34:	0c7020ef          	jal	ra,800033fa <vTaskExitCritical>

                    /* Return to the original privilege level before exiting
                     * the function. */
                    traceQUEUE_SEND_FAILED( pxQueue );
                    return errQUEUE_FULL;
    80000b38:	4781                	li	a5,0
    80000b3a:	a84d                	j	80000bec <xQueueGenericSend+0x17a>
                }
                else if( xEntryTimeSet == pdFALSE )
    80000b3c:	67a6                	ld	a5,72(sp)
    80000b3e:	e799                	bnez	a5,80000b4c <xQueueGenericSend+0xda>
                {
                    /* The queue was full and a block time was specified so
                     * configure the timeout structure. */
                    vTaskInternalSetTimeOutState( &xTimeOut );
    80000b40:	103c                	addi	a5,sp,40
    80000b42:	853e                	mv	a0,a5
    80000b44:	0bc020ef          	jal	ra,80002c00 <vTaskInternalSetTimeOutState>
                    xEntryTimeSet = pdTRUE;
    80000b48:	4785                	li	a5,1
    80000b4a:	e4be                	sd	a5,72(sp)
                    /* Entry time was already set. */
                    mtCOVERAGE_TEST_MARKER();
                }
            }
        }
        taskEXIT_CRITICAL();
    80000b4c:	0af020ef          	jal	ra,800033fa <vTaskExitCritical>

        /* Interrupts and other tasks can send to and receive from the queue
         * now the critical section has been exited. */

        vTaskSuspendAll();
    80000b50:	7f4010ef          	jal	ra,80002344 <vTaskSuspendAll>
        prvLockQueue( pxQueue );
    80000b54:	079020ef          	jal	ra,800033cc <vTaskEnterCritical>
    80000b58:	6786                	ld	a5,64(sp)
    80000b5a:	0887c783          	lbu	a5,136(a5)
    80000b5e:	0187979b          	slliw	a5,a5,0x18
    80000b62:	4187d79b          	sraiw	a5,a5,0x18
    80000b66:	873e                	mv	a4,a5
    80000b68:	57fd                	li	a5,-1
    80000b6a:	00f71563          	bne	a4,a5,80000b74 <xQueueGenericSend+0x102>
    80000b6e:	6786                	ld	a5,64(sp)
    80000b70:	08078423          	sb	zero,136(a5)
    80000b74:	6786                	ld	a5,64(sp)
    80000b76:	0897c783          	lbu	a5,137(a5)
    80000b7a:	0187979b          	slliw	a5,a5,0x18
    80000b7e:	4187d79b          	sraiw	a5,a5,0x18
    80000b82:	873e                	mv	a4,a5
    80000b84:	57fd                	li	a5,-1
    80000b86:	00f71563          	bne	a4,a5,80000b90 <xQueueGenericSend+0x11e>
    80000b8a:	6786                	ld	a5,64(sp)
    80000b8c:	080784a3          	sb	zero,137(a5)
    80000b90:	06b020ef          	jal	ra,800033fa <vTaskExitCritical>

        /* Update the timeout state to see if it has expired yet. */
        if( xTaskCheckForTimeOut( &xTimeOut, &xTicksToWait ) == pdFALSE )
    80000b94:	0038                	addi	a4,sp,8
    80000b96:	103c                	addi	a5,sp,40
    80000b98:	85ba                	mv	a1,a4
    80000b9a:	853e                	mv	a0,a5
    80000b9c:	08a020ef          	jal	ra,80002c26 <xTaskCheckForTimeOut>
    80000ba0:	87aa                	mv	a5,a0
    80000ba2:	ef9d                	bnez	a5,80000be0 <xQueueGenericSend+0x16e>
        {
            if( prvIsQueueFull( pxQueue ) != pdFALSE )
    80000ba4:	6506                	ld	a0,64(sp)
    80000ba6:	2c7000ef          	jal	ra,8000166c <prvIsQueueFull>
    80000baa:	87aa                	mv	a5,a0
    80000bac:	c785                	beqz	a5,80000bd4 <xQueueGenericSend+0x162>
            {
                traceBLOCKING_ON_QUEUE_SEND( pxQueue );
                vTaskPlaceOnEventList( &( pxQueue->xTasksWaitingToSend ), xTicksToWait );
    80000bae:	6786                	ld	a5,64(sp)
    80000bb0:	02078793          	addi	a5,a5,32
    80000bb4:	6722                	ld	a4,8(sp)
    80000bb6:	85ba                	mv	a1,a4
    80000bb8:	853e                	mv	a0,a5
    80000bba:	5b5010ef          	jal	ra,8000296e <vTaskPlaceOnEventList>
                /* Unlocking the queue means queue events can effect the
                 * event list.  It is possible that interrupts occurring now
                 * remove this task from the event list again - but as the
                 * scheduler is suspended the task will go onto the pending
                 * ready last instead of the actual ready list. */
                prvUnlockQueue( pxQueue );
    80000bbe:	6506                	ld	a0,64(sp)
    80000bc0:	1a1000ef          	jal	ra,80001560 <prvUnlockQueue>
                /* Resuming the scheduler will move tasks from the pending
                 * ready list into the ready list - so it is feasible that this
                 * task is already in a ready list before it yields - in which
                 * case the yield will not cause a context switch unless there
                 * is also a higher priority task in the pending ready list. */
                if( xTaskResumeAll() == pdFALSE )
    80000bc4:	79c010ef          	jal	ra,80002360 <xTaskResumeAll>
    80000bc8:	87aa                	mv	a5,a0
    80000bca:	f0079be3          	bnez	a5,80000ae0 <xQueueGenericSend+0x6e>
                {
                    portYIELD_WITHIN_API();
    80000bce:	00000073          	ecall
    80000bd2:	b739                	j	80000ae0 <xQueueGenericSend+0x6e>
                }
            }
            else
            {
                /* Try again. */
                prvUnlockQueue( pxQueue );
    80000bd4:	6506                	ld	a0,64(sp)
    80000bd6:	18b000ef          	jal	ra,80001560 <prvUnlockQueue>
                ( void ) xTaskResumeAll();
    80000bda:	786010ef          	jal	ra,80002360 <xTaskResumeAll>
    80000bde:	b709                	j	80000ae0 <xQueueGenericSend+0x6e>
            }
        }
        else
        {
            /* The timeout has expired. */
            prvUnlockQueue( pxQueue );
    80000be0:	6506                	ld	a0,64(sp)
    80000be2:	17f000ef          	jal	ra,80001560 <prvUnlockQueue>
            ( void ) xTaskResumeAll();
    80000be6:	77a010ef          	jal	ra,80002360 <xTaskResumeAll>

            traceQUEUE_SEND_FAILED( pxQueue );
            return errQUEUE_FULL;
    80000bea:	4781                	li	a5,0
        }
    } /*lint -restore */
}
    80000bec:	853e                	mv	a0,a5
    80000bee:	60e6                	ld	ra,88(sp)
    80000bf0:	6125                	addi	sp,sp,96
    80000bf2:	8082                	ret

0000000080000bf4 <xQueueGenericSendFromISR>:

BaseType_t xQueueGenericSendFromISR( QueueHandle_t xQueue,
                                     const void * const pvItemToQueue,
                                     BaseType_t * const pxHigherPriorityTaskWoken,
                                     const BaseType_t xCopyPosition )
{
    80000bf4:	711d                	addi	sp,sp,-96
    80000bf6:	ec86                	sd	ra,88(sp)
    80000bf8:	ec2a                	sd	a0,24(sp)
    80000bfa:	e82e                	sd	a1,16(sp)
    80000bfc:	e432                	sd	a2,8(sp)
    80000bfe:	e036                	sd	a3,0(sp)
    BaseType_t xReturn;
    UBaseType_t uxSavedInterruptStatus;
    Queue_t * const pxQueue = xQueue;
    80000c00:	67e2                	ld	a5,24(sp)
    80000c02:	e0be                	sd	a5,64(sp)

    configASSERT( pxQueue );
    80000c04:	6786                	ld	a5,64(sp)
    80000c06:	e781                	bnez	a5,80000c0e <xQueueGenericSendFromISR+0x1a>
    80000c08:	30047073          	csrci	mstatus,8
    80000c0c:	a001                	j	80000c0c <xQueueGenericSendFromISR+0x18>
    configASSERT( !( ( pvItemToQueue == NULL ) && ( pxQueue->uxItemSize != ( UBaseType_t ) 0U ) ) );
    80000c0e:	67c2                	ld	a5,16(sp)
    80000c10:	e781                	bnez	a5,80000c18 <xQueueGenericSendFromISR+0x24>
    80000c12:	6786                	ld	a5,64(sp)
    80000c14:	63dc                	ld	a5,128(a5)
    80000c16:	e399                	bnez	a5,80000c1c <xQueueGenericSendFromISR+0x28>
    80000c18:	4785                	li	a5,1
    80000c1a:	a011                	j	80000c1e <xQueueGenericSendFromISR+0x2a>
    80000c1c:	4781                	li	a5,0
    80000c1e:	e781                	bnez	a5,80000c26 <xQueueGenericSendFromISR+0x32>
    80000c20:	30047073          	csrci	mstatus,8
    80000c24:	a001                	j	80000c24 <xQueueGenericSendFromISR+0x30>
    configASSERT( !( ( xCopyPosition == queueOVERWRITE ) && ( pxQueue->uxLength != 1 ) ) );
    80000c26:	6702                	ld	a4,0(sp)
    80000c28:	4789                	li	a5,2
    80000c2a:	00f71763          	bne	a4,a5,80000c38 <xQueueGenericSendFromISR+0x44>
    80000c2e:	6786                	ld	a5,64(sp)
    80000c30:	7fb8                	ld	a4,120(a5)
    80000c32:	4785                	li	a5,1
    80000c34:	00f71463          	bne	a4,a5,80000c3c <xQueueGenericSendFromISR+0x48>
    80000c38:	4785                	li	a5,1
    80000c3a:	a011                	j	80000c3e <xQueueGenericSendFromISR+0x4a>
    80000c3c:	4781                	li	a5,0
    80000c3e:	e781                	bnez	a5,80000c46 <xQueueGenericSendFromISR+0x52>
    80000c40:	30047073          	csrci	mstatus,8
    80000c44:	a001                	j	80000c44 <xQueueGenericSendFromISR+0x50>
    /* Similar to xQueueGenericSend, except without blocking if there is no room
     * in the queue.  Also don't directly wake a task that was blocked on a queue
     * read, instead return a flag to say whether a context switch is required or
     * not (i.e. has a task with a higher priority than us been woken by this
     * post). */
    uxSavedInterruptStatus = portSET_INTERRUPT_MASK_FROM_ISR();
    80000c46:	fc02                	sd	zero,56(sp)
    {
        if( ( pxQueue->uxMessagesWaiting < pxQueue->uxLength ) || ( xCopyPosition == queueOVERWRITE ) )
    80000c48:	6786                	ld	a5,64(sp)
    80000c4a:	7bb8                	ld	a4,112(a5)
    80000c4c:	6786                	ld	a5,64(sp)
    80000c4e:	7fbc                	ld	a5,120(a5)
    80000c50:	00f76663          	bltu	a4,a5,80000c5c <xQueueGenericSendFromISR+0x68>
    80000c54:	6702                	ld	a4,0(sp)
    80000c56:	4789                	li	a5,2
    80000c58:	08f71263          	bne	a4,a5,80000cdc <xQueueGenericSendFromISR+0xe8>
        {
            const int8_t cTxLock = pxQueue->cTxLock;
    80000c5c:	6786                	ld	a5,64(sp)
    80000c5e:	0897c783          	lbu	a5,137(a5)
    80000c62:	02f10ba3          	sb	a5,55(sp)
            const UBaseType_t uxPreviousMessagesWaiting = pxQueue->uxMessagesWaiting;
    80000c66:	6786                	ld	a5,64(sp)
    80000c68:	7bbc                	ld	a5,112(a5)
    80000c6a:	f43e                	sd	a5,40(sp)
            /* Semaphores use xQueueGiveFromISR(), so pxQueue will not be a
             *  semaphore or mutex.  That means prvCopyDataToQueue() cannot result
             *  in a task disinheriting a priority and prvCopyDataToQueue() can be
             *  called here even though the disinherit function does not check if
             *  the scheduler is suspended before accessing the ready lists. */
            ( void ) prvCopyDataToQueue( pxQueue, pvItemToQueue, xCopyPosition );
    80000c6c:	6602                	ld	a2,0(sp)
    80000c6e:	65c2                	ld	a1,16(sp)
    80000c70:	6506                	ld	a0,64(sp)
    80000c72:	7d0000ef          	jal	ra,80001442 <prvCopyDataToQueue>

            /* The event list is not altered if the queue is locked.  This will
             * be done when the queue is unlocked later. */
            if( cTxLock == queueUNLOCKED )
    80000c76:	03714783          	lbu	a5,55(sp)
    80000c7a:	0ff7f713          	andi	a4,a5,255
    80000c7e:	0ff00793          	li	a5,255
    80000c82:	02f71363          	bne	a4,a5,80000ca8 <xQueueGenericSendFromISR+0xb4>
                            }
                        }
                    }
                #else /* configUSE_QUEUE_SETS */
                    {
                        if( listLIST_IS_EMPTY( &( pxQueue->xTasksWaitingToReceive ) ) == pdFALSE )
    80000c86:	6786                	ld	a5,64(sp)
    80000c88:	67bc                	ld	a5,72(a5)
    80000c8a:	c7b1                	beqz	a5,80000cd6 <xQueueGenericSendFromISR+0xe2>
                        {
                            if( xTaskRemoveFromEventList( &( pxQueue->xTasksWaitingToReceive ) ) != pdFALSE )
    80000c8c:	6786                	ld	a5,64(sp)
    80000c8e:	04878793          	addi	a5,a5,72
    80000c92:	853e                	mv	a0,a5
    80000c94:	5b5010ef          	jal	ra,80002a48 <xTaskRemoveFromEventList>
    80000c98:	87aa                	mv	a5,a0
    80000c9a:	cf95                	beqz	a5,80000cd6 <xQueueGenericSendFromISR+0xe2>
                            {
                                /* The task waiting has a higher priority so record that a
                                 * context switch is required. */
                                if( pxHigherPriorityTaskWoken != NULL )
    80000c9c:	67a2                	ld	a5,8(sp)
    80000c9e:	cf85                	beqz	a5,80000cd6 <xQueueGenericSendFromISR+0xe2>
                                {
                                    *pxHigherPriorityTaskWoken = pdTRUE;
    80000ca0:	67a2                	ld	a5,8(sp)
    80000ca2:	4705                	li	a4,1
    80000ca4:	e398                	sd	a4,0(a5)
    80000ca6:	a805                	j	80000cd6 <xQueueGenericSendFromISR+0xe2>
            }
            else
            {
                /* Increment the lock count so the task that unlocks the queue
                 * knows that data was posted while it was locked. */
                configASSERT( cTxLock != queueINT8_MAX );
    80000ca8:	03714783          	lbu	a5,55(sp)
    80000cac:	0ff7f713          	andi	a4,a5,255
    80000cb0:	07f00793          	li	a5,127
    80000cb4:	00f71563          	bne	a4,a5,80000cbe <xQueueGenericSendFromISR+0xca>
    80000cb8:	30047073          	csrci	mstatus,8
    80000cbc:	a001                	j	80000cbc <xQueueGenericSendFromISR+0xc8>

                pxQueue->cTxLock = ( int8_t ) ( cTxLock + 1 );
    80000cbe:	03714783          	lbu	a5,55(sp)
    80000cc2:	2785                	addiw	a5,a5,1
    80000cc4:	0ff7f793          	andi	a5,a5,255
    80000cc8:	0187971b          	slliw	a4,a5,0x18
    80000ccc:	4187571b          	sraiw	a4,a4,0x18
    80000cd0:	6786                	ld	a5,64(sp)
    80000cd2:	08e784a3          	sb	a4,137(a5)
            }

            xReturn = pdPASS;
    80000cd6:	4785                	li	a5,1
    80000cd8:	e4be                	sd	a5,72(sp)
        {
    80000cda:	a011                	j	80000cde <xQueueGenericSendFromISR+0xea>
        }
        else
        {
            traceQUEUE_SEND_FROM_ISR_FAILED( pxQueue );
            xReturn = errQUEUE_FULL;
    80000cdc:	e482                	sd	zero,72(sp)
        }
    }
    portCLEAR_INTERRUPT_MASK_FROM_ISR( uxSavedInterruptStatus );

    return xReturn;
    80000cde:	67a6                	ld	a5,72(sp)
}
    80000ce0:	853e                	mv	a0,a5
    80000ce2:	60e6                	ld	ra,88(sp)
    80000ce4:	6125                	addi	sp,sp,96
    80000ce6:	8082                	ret

0000000080000ce8 <xQueueGiveFromISR>:
/*-----------------------------------------------------------*/

BaseType_t xQueueGiveFromISR( QueueHandle_t xQueue,
                              BaseType_t * const pxHigherPriorityTaskWoken )
{
    80000ce8:	715d                	addi	sp,sp,-80
    80000cea:	e486                	sd	ra,72(sp)
    80000cec:	e42a                	sd	a0,8(sp)
    80000cee:	e02e                	sd	a1,0(sp)
    BaseType_t xReturn;
    UBaseType_t uxSavedInterruptStatus;
    Queue_t * const pxQueue = xQueue;
    80000cf0:	67a2                	ld	a5,8(sp)
    80000cf2:	f83e                	sd	a5,48(sp)
     * item size is 0.  Don't directly wake a task that was blocked on a queue
     * read, instead return a flag to say whether a context switch is required or
     * not (i.e. has a task with a higher priority than us been woken by this
     * post). */

    configASSERT( pxQueue );
    80000cf4:	77c2                	ld	a5,48(sp)
    80000cf6:	e781                	bnez	a5,80000cfe <xQueueGiveFromISR+0x16>
    80000cf8:	30047073          	csrci	mstatus,8
    80000cfc:	a001                	j	80000cfc <xQueueGiveFromISR+0x14>

    /* xQueueGenericSendFromISR() should be used instead of xQueueGiveFromISR()
     * if the item size is not 0. */
    configASSERT( pxQueue->uxItemSize == 0 );
    80000cfe:	77c2                	ld	a5,48(sp)
    80000d00:	63dc                	ld	a5,128(a5)
    80000d02:	c781                	beqz	a5,80000d0a <xQueueGiveFromISR+0x22>
    80000d04:	30047073          	csrci	mstatus,8
    80000d08:	a001                	j	80000d08 <xQueueGiveFromISR+0x20>

    /* Normally a mutex would not be given from an interrupt, especially if
     * there is a mutex holder, as priority inheritance makes no sense for an
     * interrupts, only tasks. */
    configASSERT( !( ( pxQueue->uxQueueType == queueQUEUE_IS_MUTEX ) && ( pxQueue->u.xSemaphore.xMutexHolder != NULL ) ) );
    80000d0a:	77c2                	ld	a5,48(sp)
    80000d0c:	639c                	ld	a5,0(a5)
    80000d0e:	e781                	bnez	a5,80000d16 <xQueueGiveFromISR+0x2e>
    80000d10:	77c2                	ld	a5,48(sp)
    80000d12:	6b9c                	ld	a5,16(a5)
    80000d14:	e399                	bnez	a5,80000d1a <xQueueGiveFromISR+0x32>
    80000d16:	4785                	li	a5,1
    80000d18:	a011                	j	80000d1c <xQueueGiveFromISR+0x34>
    80000d1a:	4781                	li	a5,0
    80000d1c:	e781                	bnez	a5,80000d24 <xQueueGiveFromISR+0x3c>
    80000d1e:	30047073          	csrci	mstatus,8
    80000d22:	a001                	j	80000d22 <xQueueGiveFromISR+0x3a>
     * safe API to ensure interrupt entry is as fast and as simple as possible.
     * More information (albeit Cortex-M specific) is provided on the following
     * link: https://www.FreeRTOS.org/RTOS-Cortex-M3-M4.html */
    portASSERT_IF_INTERRUPT_PRIORITY_INVALID();

    uxSavedInterruptStatus = portSET_INTERRUPT_MASK_FROM_ISR();
    80000d24:	f402                	sd	zero,40(sp)
    {
        const UBaseType_t uxMessagesWaiting = pxQueue->uxMessagesWaiting;
    80000d26:	77c2                	ld	a5,48(sp)
    80000d28:	7bbc                	ld	a5,112(a5)
    80000d2a:	f03e                	sd	a5,32(sp)

        /* When the queue is used to implement a semaphore no data is ever
         * moved through the queue but it is still valid to see if the queue 'has
         * space'. */
        if( uxMessagesWaiting < pxQueue->uxLength )
    80000d2c:	77c2                	ld	a5,48(sp)
    80000d2e:	7fbc                	ld	a5,120(a5)
    80000d30:	7702                	ld	a4,32(sp)
    80000d32:	06f77f63          	bgeu	a4,a5,80000db0 <xQueueGiveFromISR+0xc8>
        {
            const int8_t cTxLock = pxQueue->cTxLock;
    80000d36:	77c2                	ld	a5,48(sp)
    80000d38:	0897c783          	lbu	a5,137(a5)
    80000d3c:	00f10fa3          	sb	a5,31(sp)
             * holder - and if there is a mutex holder then the mutex cannot be
             * given from an ISR.  As this is the ISR version of the function it
             * can be assumed there is no mutex holder and no need to determine if
             * priority disinheritance is needed.  Simply increase the count of
             * messages (semaphores) available. */
            pxQueue->uxMessagesWaiting = uxMessagesWaiting + ( UBaseType_t ) 1;
    80000d40:	7782                	ld	a5,32(sp)
    80000d42:	00178713          	addi	a4,a5,1
    80000d46:	77c2                	ld	a5,48(sp)
    80000d48:	fbb8                	sd	a4,112(a5)

            /* The event list is not altered if the queue is locked.  This will
             * be done when the queue is unlocked later. */
            if( cTxLock == queueUNLOCKED )
    80000d4a:	01f14783          	lbu	a5,31(sp)
    80000d4e:	0ff7f713          	andi	a4,a5,255
    80000d52:	0ff00793          	li	a5,255
    80000d56:	02f71363          	bne	a4,a5,80000d7c <xQueueGiveFromISR+0x94>
                            }
                        }
                    }
                #else /* configUSE_QUEUE_SETS */
                    {
                        if( listLIST_IS_EMPTY( &( pxQueue->xTasksWaitingToReceive ) ) == pdFALSE )
    80000d5a:	77c2                	ld	a5,48(sp)
    80000d5c:	67bc                	ld	a5,72(a5)
    80000d5e:	c7b1                	beqz	a5,80000daa <xQueueGiveFromISR+0xc2>
                        {
                            if( xTaskRemoveFromEventList( &( pxQueue->xTasksWaitingToReceive ) ) != pdFALSE )
    80000d60:	77c2                	ld	a5,48(sp)
    80000d62:	04878793          	addi	a5,a5,72
    80000d66:	853e                	mv	a0,a5
    80000d68:	4e1010ef          	jal	ra,80002a48 <xTaskRemoveFromEventList>
    80000d6c:	87aa                	mv	a5,a0
    80000d6e:	cf95                	beqz	a5,80000daa <xQueueGiveFromISR+0xc2>
                            {
                                /* The task waiting has a higher priority so record that a
                                 * context switch is required. */
                                if( pxHigherPriorityTaskWoken != NULL )
    80000d70:	6782                	ld	a5,0(sp)
    80000d72:	cf85                	beqz	a5,80000daa <xQueueGiveFromISR+0xc2>
                                {
                                    *pxHigherPriorityTaskWoken = pdTRUE;
    80000d74:	6782                	ld	a5,0(sp)
    80000d76:	4705                	li	a4,1
    80000d78:	e398                	sd	a4,0(a5)
    80000d7a:	a805                	j	80000daa <xQueueGiveFromISR+0xc2>
            }
            else
            {
                /* Increment the lock count so the task that unlocks the queue
                 * knows that data was posted while it was locked. */
                configASSERT( cTxLock != queueINT8_MAX );
    80000d7c:	01f14783          	lbu	a5,31(sp)
    80000d80:	0ff7f713          	andi	a4,a5,255
    80000d84:	07f00793          	li	a5,127
    80000d88:	00f71563          	bne	a4,a5,80000d92 <xQueueGiveFromISR+0xaa>
    80000d8c:	30047073          	csrci	mstatus,8
    80000d90:	a001                	j	80000d90 <xQueueGiveFromISR+0xa8>

                pxQueue->cTxLock = ( int8_t ) ( cTxLock + 1 );
    80000d92:	01f14783          	lbu	a5,31(sp)
    80000d96:	2785                	addiw	a5,a5,1
    80000d98:	0ff7f793          	andi	a5,a5,255
    80000d9c:	0187971b          	slliw	a4,a5,0x18
    80000da0:	4187571b          	sraiw	a4,a4,0x18
    80000da4:	77c2                	ld	a5,48(sp)
    80000da6:	08e784a3          	sb	a4,137(a5)
            }

            xReturn = pdPASS;
    80000daa:	4785                	li	a5,1
    80000dac:	fc3e                	sd	a5,56(sp)
    80000dae:	a011                	j	80000db2 <xQueueGiveFromISR+0xca>
        }
        else
        {
            traceQUEUE_SEND_FROM_ISR_FAILED( pxQueue );
            xReturn = errQUEUE_FULL;
    80000db0:	fc02                	sd	zero,56(sp)
        }
    }
    portCLEAR_INTERRUPT_MASK_FROM_ISR( uxSavedInterruptStatus );

    return xReturn;
    80000db2:	77e2                	ld	a5,56(sp)
}
    80000db4:	853e                	mv	a0,a5
    80000db6:	60a6                	ld	ra,72(sp)
    80000db8:	6161                	addi	sp,sp,80
    80000dba:	8082                	ret

0000000080000dbc <xQueueReceive>:
/*-----------------------------------------------------------*/

BaseType_t xQueueReceive( QueueHandle_t xQueue,
                          void * const pvBuffer,
                          TickType_t xTicksToWait )
{
    80000dbc:	711d                	addi	sp,sp,-96
    80000dbe:	ec86                	sd	ra,88(sp)
    80000dc0:	ec2a                	sd	a0,24(sp)
    80000dc2:	e82e                	sd	a1,16(sp)
    80000dc4:	e432                	sd	a2,8(sp)
    BaseType_t xEntryTimeSet = pdFALSE;
    80000dc6:	e482                	sd	zero,72(sp)
    TimeOut_t xTimeOut;
    Queue_t * const pxQueue = xQueue;
    80000dc8:	67e2                	ld	a5,24(sp)
    80000dca:	e0be                	sd	a5,64(sp)

    /* Check the pointer is not NULL. */
    configASSERT( ( pxQueue ) );
    80000dcc:	6786                	ld	a5,64(sp)
    80000dce:	e781                	bnez	a5,80000dd6 <xQueueReceive+0x1a>
    80000dd0:	30047073          	csrci	mstatus,8
    80000dd4:	a001                	j	80000dd4 <xQueueReceive+0x18>

    /* The buffer into which data is received can only be NULL if the data size
     * is zero (so no data is copied into the buffer). */
    configASSERT( !( ( ( pvBuffer ) == NULL ) && ( ( pxQueue )->uxItemSize != ( UBaseType_t ) 0U ) ) );
    80000dd6:	67c2                	ld	a5,16(sp)
    80000dd8:	e781                	bnez	a5,80000de0 <xQueueReceive+0x24>
    80000dda:	6786                	ld	a5,64(sp)
    80000ddc:	63dc                	ld	a5,128(a5)
    80000dde:	e399                	bnez	a5,80000de4 <xQueueReceive+0x28>
    80000de0:	4785                	li	a5,1
    80000de2:	a011                	j	80000de6 <xQueueReceive+0x2a>
    80000de4:	4781                	li	a5,0
    80000de6:	e781                	bnez	a5,80000dee <xQueueReceive+0x32>
    80000de8:	30047073          	csrci	mstatus,8
    80000dec:	a001                	j	80000dec <xQueueReceive+0x30>

    /* Cannot block if the scheduler is suspended. */
    #if ( ( INCLUDE_xTaskGetSchedulerState == 1 ) || ( configUSE_TIMERS == 1 ) )
        {
            configASSERT( !( ( xTaskGetSchedulerState() == taskSCHEDULER_SUSPENDED ) && ( xTicksToWait != 0 ) ) );
    80000dee:	272020ef          	jal	ra,80003060 <xTaskGetSchedulerState>
    80000df2:	87aa                	mv	a5,a0
    80000df4:	e399                	bnez	a5,80000dfa <xQueueReceive+0x3e>
    80000df6:	67a2                	ld	a5,8(sp)
    80000df8:	e399                	bnez	a5,80000dfe <xQueueReceive+0x42>
    80000dfa:	4785                	li	a5,1
    80000dfc:	a011                	j	80000e00 <xQueueReceive+0x44>
    80000dfe:	4781                	li	a5,0
    80000e00:	e781                	bnez	a5,80000e08 <xQueueReceive+0x4c>
    80000e02:	30047073          	csrci	mstatus,8
    80000e06:	a001                	j	80000e06 <xQueueReceive+0x4a>
    /*lint -save -e904  This function relaxes the coding standard somewhat to
     * allow return statements within the function itself.  This is done in the
     * interest of execution time efficiency. */
    for( ; ; )
    {
        taskENTER_CRITICAL();
    80000e08:	5c4020ef          	jal	ra,800033cc <vTaskEnterCritical>
        {
            const UBaseType_t uxMessagesWaiting = pxQueue->uxMessagesWaiting;
    80000e0c:	6786                	ld	a5,64(sp)
    80000e0e:	7bbc                	ld	a5,112(a5)
    80000e10:	fc3e                	sd	a5,56(sp)

            /* Is there data in the queue now?  To be running the calling task
             * must be the highest priority task wanting to access the queue. */
            if( uxMessagesWaiting > ( UBaseType_t ) 0 )
    80000e12:	77e2                	ld	a5,56(sp)
    80000e14:	cb9d                	beqz	a5,80000e4a <xQueueReceive+0x8e>
            {
                /* Data available, remove one item. */
                prvCopyDataFromQueue( pxQueue, pvBuffer );
    80000e16:	65c2                	ld	a1,16(sp)
    80000e18:	6506                	ld	a0,64(sp)
    80000e1a:	6fc000ef          	jal	ra,80001516 <prvCopyDataFromQueue>
                traceQUEUE_RECEIVE( pxQueue );
                pxQueue->uxMessagesWaiting = uxMessagesWaiting - ( UBaseType_t ) 1;
    80000e1e:	77e2                	ld	a5,56(sp)
    80000e20:	fff78713          	addi	a4,a5,-1
    80000e24:	6786                	ld	a5,64(sp)
    80000e26:	fbb8                	sd	a4,112(a5)

                /* There is now space in the queue, were any tasks waiting to
                 * post to the queue?  If so, unblock the highest priority waiting
                 * task. */
                if( listLIST_IS_EMPTY( &( pxQueue->xTasksWaitingToSend ) ) == pdFALSE )
    80000e28:	6786                	ld	a5,64(sp)
    80000e2a:	739c                	ld	a5,32(a5)
    80000e2c:	cb99                	beqz	a5,80000e42 <xQueueReceive+0x86>
                {
                    if( xTaskRemoveFromEventList( &( pxQueue->xTasksWaitingToSend ) ) != pdFALSE )
    80000e2e:	6786                	ld	a5,64(sp)
    80000e30:	02078793          	addi	a5,a5,32
    80000e34:	853e                	mv	a0,a5
    80000e36:	413010ef          	jal	ra,80002a48 <xTaskRemoveFromEventList>
    80000e3a:	87aa                	mv	a5,a0
    80000e3c:	c399                	beqz	a5,80000e42 <xQueueReceive+0x86>
                    {
                        queueYIELD_IF_USING_PREEMPTION();
    80000e3e:	00000073          	ecall
                else
                {
                    mtCOVERAGE_TEST_MARKER();
                }

                taskEXIT_CRITICAL();
    80000e42:	5b8020ef          	jal	ra,800033fa <vTaskExitCritical>
                return pdPASS;
    80000e46:	4785                	li	a5,1
    80000e48:	a0e9                	j	80000f12 <xQueueReceive+0x156>
            }
            else
            {
                if( xTicksToWait == ( TickType_t ) 0 )
    80000e4a:	67a2                	ld	a5,8(sp)
    80000e4c:	e789                	bnez	a5,80000e56 <xQueueReceive+0x9a>
                {
                    /* The queue was empty and no block time is specified (or
                     * the block time has expired) so leave now. */
                    taskEXIT_CRITICAL();
    80000e4e:	5ac020ef          	jal	ra,800033fa <vTaskExitCritical>
                    traceQUEUE_RECEIVE_FAILED( pxQueue );
                    return errQUEUE_EMPTY;
    80000e52:	4781                	li	a5,0
    80000e54:	a87d                	j	80000f12 <xQueueReceive+0x156>
                }
                else if( xEntryTimeSet == pdFALSE )
    80000e56:	67a6                	ld	a5,72(sp)
    80000e58:	e799                	bnez	a5,80000e66 <xQueueReceive+0xaa>
                {
                    /* The queue was empty and a block time was specified so
                     * configure the timeout structure. */
                    vTaskInternalSetTimeOutState( &xTimeOut );
    80000e5a:	103c                	addi	a5,sp,40
    80000e5c:	853e                	mv	a0,a5
    80000e5e:	5a3010ef          	jal	ra,80002c00 <vTaskInternalSetTimeOutState>
                    xEntryTimeSet = pdTRUE;
    80000e62:	4785                	li	a5,1
    80000e64:	e4be                	sd	a5,72(sp)
                    /* Entry time was already set. */
                    mtCOVERAGE_TEST_MARKER();
                }
            }
        }
        taskEXIT_CRITICAL();
    80000e66:	594020ef          	jal	ra,800033fa <vTaskExitCritical>

        /* Interrupts and other tasks can send to and receive from the queue
         * now the critical section has been exited. */

        vTaskSuspendAll();
    80000e6a:	4da010ef          	jal	ra,80002344 <vTaskSuspendAll>
        prvLockQueue( pxQueue );
    80000e6e:	55e020ef          	jal	ra,800033cc <vTaskEnterCritical>
    80000e72:	6786                	ld	a5,64(sp)
    80000e74:	0887c783          	lbu	a5,136(a5)
    80000e78:	0187979b          	slliw	a5,a5,0x18
    80000e7c:	4187d79b          	sraiw	a5,a5,0x18
    80000e80:	873e                	mv	a4,a5
    80000e82:	57fd                	li	a5,-1
    80000e84:	00f71563          	bne	a4,a5,80000e8e <xQueueReceive+0xd2>
    80000e88:	6786                	ld	a5,64(sp)
    80000e8a:	08078423          	sb	zero,136(a5)
    80000e8e:	6786                	ld	a5,64(sp)
    80000e90:	0897c783          	lbu	a5,137(a5)
    80000e94:	0187979b          	slliw	a5,a5,0x18
    80000e98:	4187d79b          	sraiw	a5,a5,0x18
    80000e9c:	873e                	mv	a4,a5
    80000e9e:	57fd                	li	a5,-1
    80000ea0:	00f71563          	bne	a4,a5,80000eaa <xQueueReceive+0xee>
    80000ea4:	6786                	ld	a5,64(sp)
    80000ea6:	080784a3          	sb	zero,137(a5)
    80000eaa:	550020ef          	jal	ra,800033fa <vTaskExitCritical>

        /* Update the timeout state to see if it has expired yet. */
        if( xTaskCheckForTimeOut( &xTimeOut, &xTicksToWait ) == pdFALSE )
    80000eae:	0038                	addi	a4,sp,8
    80000eb0:	103c                	addi	a5,sp,40
    80000eb2:	85ba                	mv	a1,a4
    80000eb4:	853e                	mv	a0,a5
    80000eb6:	571010ef          	jal	ra,80002c26 <xTaskCheckForTimeOut>
    80000eba:	87aa                	mv	a5,a0
    80000ebc:	ef9d                	bnez	a5,80000efa <xQueueReceive+0x13e>
        {
            /* The timeout has not expired.  If the queue is still empty place
             * the task on the list of tasks waiting to receive from the queue. */
            if( prvIsQueueEmpty( pxQueue ) != pdFALSE )
    80000ebe:	6506                	ld	a0,64(sp)
    80000ec0:	75e000ef          	jal	ra,8000161e <prvIsQueueEmpty>
    80000ec4:	87aa                	mv	a5,a0
    80000ec6:	c785                	beqz	a5,80000eee <xQueueReceive+0x132>
            {
                traceBLOCKING_ON_QUEUE_RECEIVE( pxQueue );
                vTaskPlaceOnEventList( &( pxQueue->xTasksWaitingToReceive ), xTicksToWait );
    80000ec8:	6786                	ld	a5,64(sp)
    80000eca:	04878793          	addi	a5,a5,72
    80000ece:	6722                	ld	a4,8(sp)
    80000ed0:	85ba                	mv	a1,a4
    80000ed2:	853e                	mv	a0,a5
    80000ed4:	29b010ef          	jal	ra,8000296e <vTaskPlaceOnEventList>
                prvUnlockQueue( pxQueue );
    80000ed8:	6506                	ld	a0,64(sp)
    80000eda:	686000ef          	jal	ra,80001560 <prvUnlockQueue>

                if( xTaskResumeAll() == pdFALSE )
    80000ede:	482010ef          	jal	ra,80002360 <xTaskResumeAll>
    80000ee2:	87aa                	mv	a5,a0
    80000ee4:	f20792e3          	bnez	a5,80000e08 <xQueueReceive+0x4c>
                {
                    portYIELD_WITHIN_API();
    80000ee8:	00000073          	ecall
    80000eec:	bf31                	j	80000e08 <xQueueReceive+0x4c>
            }
            else
            {
                /* The queue contains data again.  Loop back to try and read the
                 * data. */
                prvUnlockQueue( pxQueue );
    80000eee:	6506                	ld	a0,64(sp)
    80000ef0:	670000ef          	jal	ra,80001560 <prvUnlockQueue>
                ( void ) xTaskResumeAll();
    80000ef4:	46c010ef          	jal	ra,80002360 <xTaskResumeAll>
    80000ef8:	bf01                	j	80000e08 <xQueueReceive+0x4c>
        }
        else
        {
            /* Timed out.  If there is no data in the queue exit, otherwise loop
             * back and attempt to read the data. */
            prvUnlockQueue( pxQueue );
    80000efa:	6506                	ld	a0,64(sp)
    80000efc:	664000ef          	jal	ra,80001560 <prvUnlockQueue>
            ( void ) xTaskResumeAll();
    80000f00:	460010ef          	jal	ra,80002360 <xTaskResumeAll>

            if( prvIsQueueEmpty( pxQueue ) != pdFALSE )
    80000f04:	6506                	ld	a0,64(sp)
    80000f06:	718000ef          	jal	ra,8000161e <prvIsQueueEmpty>
    80000f0a:	87aa                	mv	a5,a0
    80000f0c:	ee078ee3          	beqz	a5,80000e08 <xQueueReceive+0x4c>
            {
                traceQUEUE_RECEIVE_FAILED( pxQueue );
                return errQUEUE_EMPTY;
    80000f10:	4781                	li	a5,0
            {
                mtCOVERAGE_TEST_MARKER();
            }
        }
    } /*lint -restore */
}
    80000f12:	853e                	mv	a0,a5
    80000f14:	60e6                	ld	ra,88(sp)
    80000f16:	6125                	addi	sp,sp,96
    80000f18:	8082                	ret

0000000080000f1a <xQueueSemaphoreTake>:
/*-----------------------------------------------------------*/

BaseType_t xQueueSemaphoreTake( QueueHandle_t xQueue,
                                TickType_t xTicksToWait )
{
    80000f1a:	711d                	addi	sp,sp,-96
    80000f1c:	ec86                	sd	ra,88(sp)
    80000f1e:	e42a                	sd	a0,8(sp)
    80000f20:	e02e                	sd	a1,0(sp)
    BaseType_t xEntryTimeSet = pdFALSE;
    80000f22:	e482                	sd	zero,72(sp)
    TimeOut_t xTimeOut;
    Queue_t * const pxQueue = xQueue;
    80000f24:	67a2                	ld	a5,8(sp)
    80000f26:	fc3e                	sd	a5,56(sp)

    #if ( configUSE_MUTEXES == 1 )
        BaseType_t xInheritanceOccurred = pdFALSE;
    80000f28:	e082                	sd	zero,64(sp)
    #endif

    /* Check the queue pointer is not NULL. */
    configASSERT( ( pxQueue ) );
    80000f2a:	77e2                	ld	a5,56(sp)
    80000f2c:	e781                	bnez	a5,80000f34 <xQueueSemaphoreTake+0x1a>
    80000f2e:	30047073          	csrci	mstatus,8
    80000f32:	a001                	j	80000f32 <xQueueSemaphoreTake+0x18>

    /* Check this really is a semaphore, in which case the item size will be
     * 0. */
    configASSERT( pxQueue->uxItemSize == 0 );
    80000f34:	77e2                	ld	a5,56(sp)
    80000f36:	63dc                	ld	a5,128(a5)
    80000f38:	c781                	beqz	a5,80000f40 <xQueueSemaphoreTake+0x26>
    80000f3a:	30047073          	csrci	mstatus,8
    80000f3e:	a001                	j	80000f3e <xQueueSemaphoreTake+0x24>

    /* Cannot block if the scheduler is suspended. */
    #if ( ( INCLUDE_xTaskGetSchedulerState == 1 ) || ( configUSE_TIMERS == 1 ) )
        {
            configASSERT( !( ( xTaskGetSchedulerState() == taskSCHEDULER_SUSPENDED ) && ( xTicksToWait != 0 ) ) );
    80000f40:	120020ef          	jal	ra,80003060 <xTaskGetSchedulerState>
    80000f44:	87aa                	mv	a5,a0
    80000f46:	e399                	bnez	a5,80000f4c <xQueueSemaphoreTake+0x32>
    80000f48:	6782                	ld	a5,0(sp)
    80000f4a:	e399                	bnez	a5,80000f50 <xQueueSemaphoreTake+0x36>
    80000f4c:	4785                	li	a5,1
    80000f4e:	a011                	j	80000f52 <xQueueSemaphoreTake+0x38>
    80000f50:	4781                	li	a5,0
    80000f52:	e781                	bnez	a5,80000f5a <xQueueSemaphoreTake+0x40>
    80000f54:	30047073          	csrci	mstatus,8
    80000f58:	a001                	j	80000f58 <xQueueSemaphoreTake+0x3e>
    /*lint -save -e904 This function relaxes the coding standard somewhat to allow return
     * statements within the function itself.  This is done in the interest
     * of execution time efficiency. */
    for( ; ; )
    {
        taskENTER_CRITICAL();
    80000f5a:	472020ef          	jal	ra,800033cc <vTaskEnterCritical>
        {
            /* Semaphores are queues with an item size of 0, and where the
             * number of messages in the queue is the semaphore's count value. */
            const UBaseType_t uxSemaphoreCount = pxQueue->uxMessagesWaiting;
    80000f5e:	77e2                	ld	a5,56(sp)
    80000f60:	7bbc                	ld	a5,112(a5)
    80000f62:	f83e                	sd	a5,48(sp)

            /* Is there data in the queue now?  To be running the calling task
             * must be the highest priority task wanting to access the queue. */
            if( uxSemaphoreCount > ( UBaseType_t ) 0 )
    80000f64:	77c2                	ld	a5,48(sp)
    80000f66:	cf9d                	beqz	a5,80000fa4 <xQueueSemaphoreTake+0x8a>
            {
                traceQUEUE_RECEIVE( pxQueue );

                /* Semaphores are queues with a data size of zero and where the
                 * messages waiting is the semaphore's count.  Reduce the count. */
                pxQueue->uxMessagesWaiting = uxSemaphoreCount - ( UBaseType_t ) 1;
    80000f68:	77c2                	ld	a5,48(sp)
    80000f6a:	fff78713          	addi	a4,a5,-1
    80000f6e:	77e2                	ld	a5,56(sp)
    80000f70:	fbb8                	sd	a4,112(a5)

                #if ( configUSE_MUTEXES == 1 )
                    {
                        if( pxQueue->uxQueueType == queueQUEUE_IS_MUTEX )
    80000f72:	77e2                	ld	a5,56(sp)
    80000f74:	639c                	ld	a5,0(a5)
    80000f76:	e791                	bnez	a5,80000f82 <xQueueSemaphoreTake+0x68>
                        {
                            /* Record the information required to implement
                             * priority inheritance should it become necessary. */
                            pxQueue->u.xSemaphore.xMutexHolder = pvTaskIncrementMutexHeldCount();
    80000f78:	4f8020ef          	jal	ra,80003470 <pvTaskIncrementMutexHeldCount>
    80000f7c:	872a                	mv	a4,a0
    80000f7e:	77e2                	ld	a5,56(sp)
    80000f80:	eb98                	sd	a4,16(a5)
                    }
                #endif /* configUSE_MUTEXES */

                /* Check to see if other tasks are blocked waiting to give the
                 * semaphore, and if so, unblock the highest priority such task. */
                if( listLIST_IS_EMPTY( &( pxQueue->xTasksWaitingToSend ) ) == pdFALSE )
    80000f82:	77e2                	ld	a5,56(sp)
    80000f84:	739c                	ld	a5,32(a5)
    80000f86:	cb99                	beqz	a5,80000f9c <xQueueSemaphoreTake+0x82>
                {
                    if( xTaskRemoveFromEventList( &( pxQueue->xTasksWaitingToSend ) ) != pdFALSE )
    80000f88:	77e2                	ld	a5,56(sp)
    80000f8a:	02078793          	addi	a5,a5,32
    80000f8e:	853e                	mv	a0,a5
    80000f90:	2b9010ef          	jal	ra,80002a48 <xTaskRemoveFromEventList>
    80000f94:	87aa                	mv	a5,a0
    80000f96:	c399                	beqz	a5,80000f9c <xQueueSemaphoreTake+0x82>
                    {
                        queueYIELD_IF_USING_PREEMPTION();
    80000f98:	00000073          	ecall
                else
                {
                    mtCOVERAGE_TEST_MARKER();
                }

                taskEXIT_CRITICAL();
    80000f9c:	45e020ef          	jal	ra,800033fa <vTaskExitCritical>
                return pdPASS;
    80000fa0:	4785                	li	a5,1
    80000fa2:	a239                	j	800010b0 <xQueueSemaphoreTake+0x196>
            }
            else
            {
                if( xTicksToWait == ( TickType_t ) 0 )
    80000fa4:	6782                	ld	a5,0(sp)
    80000fa6:	eb91                	bnez	a5,80000fba <xQueueSemaphoreTake+0xa0>
                    /* For inheritance to have occurred there must have been an
                     * initial timeout, and an adjusted timeout cannot become 0, as
                     * if it were 0 the function would have exited. */
                    #if ( configUSE_MUTEXES == 1 )
                        {
                            configASSERT( xInheritanceOccurred == pdFALSE );
    80000fa8:	6786                	ld	a5,64(sp)
    80000faa:	c781                	beqz	a5,80000fb2 <xQueueSemaphoreTake+0x98>
    80000fac:	30047073          	csrci	mstatus,8
    80000fb0:	a001                	j	80000fb0 <xQueueSemaphoreTake+0x96>
                        }
                    #endif /* configUSE_MUTEXES */

                    /* The semaphore count was 0 and no block time is specified
                     * (or the block time has expired) so exit now. */
                    taskEXIT_CRITICAL();
    80000fb2:	448020ef          	jal	ra,800033fa <vTaskExitCritical>
                    traceQUEUE_RECEIVE_FAILED( pxQueue );
                    return errQUEUE_EMPTY;
    80000fb6:	4781                	li	a5,0
    80000fb8:	a8e5                	j	800010b0 <xQueueSemaphoreTake+0x196>
                }
                else if( xEntryTimeSet == pdFALSE )
    80000fba:	67a6                	ld	a5,72(sp)
    80000fbc:	e799                	bnez	a5,80000fca <xQueueSemaphoreTake+0xb0>
                {
                    /* The semaphore count was 0 and a block time was specified
                     * so configure the timeout structure ready to block. */
                    vTaskInternalSetTimeOutState( &xTimeOut );
    80000fbe:	083c                	addi	a5,sp,24
    80000fc0:	853e                	mv	a0,a5
    80000fc2:	43f010ef          	jal	ra,80002c00 <vTaskInternalSetTimeOutState>
                    xEntryTimeSet = pdTRUE;
    80000fc6:	4785                	li	a5,1
    80000fc8:	e4be                	sd	a5,72(sp)
                    /* Entry time was already set. */
                    mtCOVERAGE_TEST_MARKER();
                }
            }
        }
        taskEXIT_CRITICAL();
    80000fca:	430020ef          	jal	ra,800033fa <vTaskExitCritical>

        /* Interrupts and other tasks can give to and take from the semaphore
         * now the critical section has been exited. */

        vTaskSuspendAll();
    80000fce:	376010ef          	jal	ra,80002344 <vTaskSuspendAll>
        prvLockQueue( pxQueue );
    80000fd2:	3fa020ef          	jal	ra,800033cc <vTaskEnterCritical>
    80000fd6:	77e2                	ld	a5,56(sp)
    80000fd8:	0887c783          	lbu	a5,136(a5)
    80000fdc:	0187979b          	slliw	a5,a5,0x18
    80000fe0:	4187d79b          	sraiw	a5,a5,0x18
    80000fe4:	873e                	mv	a4,a5
    80000fe6:	57fd                	li	a5,-1
    80000fe8:	00f71563          	bne	a4,a5,80000ff2 <xQueueSemaphoreTake+0xd8>
    80000fec:	77e2                	ld	a5,56(sp)
    80000fee:	08078423          	sb	zero,136(a5)
    80000ff2:	77e2                	ld	a5,56(sp)
    80000ff4:	0897c783          	lbu	a5,137(a5)
    80000ff8:	0187979b          	slliw	a5,a5,0x18
    80000ffc:	4187d79b          	sraiw	a5,a5,0x18
    80001000:	873e                	mv	a4,a5
    80001002:	57fd                	li	a5,-1
    80001004:	00f71563          	bne	a4,a5,8000100e <xQueueSemaphoreTake+0xf4>
    80001008:	77e2                	ld	a5,56(sp)
    8000100a:	080784a3          	sb	zero,137(a5)
    8000100e:	3ec020ef          	jal	ra,800033fa <vTaskExitCritical>

        /* Update the timeout state to see if it has expired yet. */
        if( xTaskCheckForTimeOut( &xTimeOut, &xTicksToWait ) == pdFALSE )
    80001012:	870a                	mv	a4,sp
    80001014:	083c                	addi	a5,sp,24
    80001016:	85ba                	mv	a1,a4
    80001018:	853e                	mv	a0,a5
    8000101a:	40d010ef          	jal	ra,80002c26 <xTaskCheckForTimeOut>
    8000101e:	87aa                	mv	a5,a0
    80001020:	efa1                	bnez	a5,80001078 <xQueueSemaphoreTake+0x15e>
        {
            /* A block time is specified and not expired.  If the semaphore
             * count is 0 then enter the Blocked state to wait for a semaphore to
             * become available.  As semaphores are implemented with queues the
             * queue being empty is equivalent to the semaphore count being 0. */
            if( prvIsQueueEmpty( pxQueue ) != pdFALSE )
    80001022:	7562                	ld	a0,56(sp)
    80001024:	5fa000ef          	jal	ra,8000161e <prvIsQueueEmpty>
    80001028:	87aa                	mv	a5,a0
    8000102a:	c3a9                	beqz	a5,8000106c <xQueueSemaphoreTake+0x152>
            {
                traceBLOCKING_ON_QUEUE_RECEIVE( pxQueue );

                #if ( configUSE_MUTEXES == 1 )
                    {
                        if( pxQueue->uxQueueType == queueQUEUE_IS_MUTEX )
    8000102c:	77e2                	ld	a5,56(sp)
    8000102e:	639c                	ld	a5,0(a5)
    80001030:	eb99                	bnez	a5,80001046 <xQueueSemaphoreTake+0x12c>
                        {
                            taskENTER_CRITICAL();
    80001032:	39a020ef          	jal	ra,800033cc <vTaskEnterCritical>
                            {
                                xInheritanceOccurred = xTaskPriorityInherit( pxQueue->u.xSemaphore.xMutexHolder );
    80001036:	77e2                	ld	a5,56(sp)
    80001038:	6b9c                	ld	a5,16(a5)
    8000103a:	853e                	mv	a0,a5
    8000103c:	054020ef          	jal	ra,80003090 <xTaskPriorityInherit>
    80001040:	e0aa                	sd	a0,64(sp)
                            }
                            taskEXIT_CRITICAL();
    80001042:	3b8020ef          	jal	ra,800033fa <vTaskExitCritical>
                            mtCOVERAGE_TEST_MARKER();
                        }
                    }
                #endif /* if ( configUSE_MUTEXES == 1 ) */

                vTaskPlaceOnEventList( &( pxQueue->xTasksWaitingToReceive ), xTicksToWait );
    80001046:	77e2                	ld	a5,56(sp)
    80001048:	04878793          	addi	a5,a5,72
    8000104c:	6702                	ld	a4,0(sp)
    8000104e:	85ba                	mv	a1,a4
    80001050:	853e                	mv	a0,a5
    80001052:	11d010ef          	jal	ra,8000296e <vTaskPlaceOnEventList>
                prvUnlockQueue( pxQueue );
    80001056:	7562                	ld	a0,56(sp)
    80001058:	508000ef          	jal	ra,80001560 <prvUnlockQueue>

                if( xTaskResumeAll() == pdFALSE )
    8000105c:	304010ef          	jal	ra,80002360 <xTaskResumeAll>
    80001060:	87aa                	mv	a5,a0
    80001062:	ee079ce3          	bnez	a5,80000f5a <xQueueSemaphoreTake+0x40>
                {
                    portYIELD_WITHIN_API();
    80001066:	00000073          	ecall
    8000106a:	bdc5                	j	80000f5a <xQueueSemaphoreTake+0x40>
            }
            else
            {
                /* There was no timeout and the semaphore count was not 0, so
                 * attempt to take the semaphore again. */
                prvUnlockQueue( pxQueue );
    8000106c:	7562                	ld	a0,56(sp)
    8000106e:	4f2000ef          	jal	ra,80001560 <prvUnlockQueue>
                ( void ) xTaskResumeAll();
    80001072:	2ee010ef          	jal	ra,80002360 <xTaskResumeAll>
    80001076:	b5d5                	j	80000f5a <xQueueSemaphoreTake+0x40>
            }
        }
        else
        {
            /* Timed out. */
            prvUnlockQueue( pxQueue );
    80001078:	7562                	ld	a0,56(sp)
    8000107a:	4e6000ef          	jal	ra,80001560 <prvUnlockQueue>
            ( void ) xTaskResumeAll();
    8000107e:	2e2010ef          	jal	ra,80002360 <xTaskResumeAll>

            /* If the semaphore count is 0 exit now as the timeout has
             * expired.  Otherwise return to attempt to take the semaphore that is
             * known to be available.  As semaphores are implemented by queues the
             * queue being empty is equivalent to the semaphore count being 0. */
            if( prvIsQueueEmpty( pxQueue ) != pdFALSE )
    80001082:	7562                	ld	a0,56(sp)
    80001084:	59a000ef          	jal	ra,8000161e <prvIsQueueEmpty>
    80001088:	87aa                	mv	a5,a0
    8000108a:	ec0788e3          	beqz	a5,80000f5a <xQueueSemaphoreTake+0x40>
                #if ( configUSE_MUTEXES == 1 )
                    {
                        /* xInheritanceOccurred could only have be set if
                         * pxQueue->uxQueueType == queueQUEUE_IS_MUTEX so no need to
                         * test the mutex type again to check it is actually a mutex. */
                        if( xInheritanceOccurred != pdFALSE )
    8000108e:	6786                	ld	a5,64(sp)
    80001090:	cf99                	beqz	a5,800010ae <xQueueSemaphoreTake+0x194>
                        {
                            taskENTER_CRITICAL();
    80001092:	33a020ef          	jal	ra,800033cc <vTaskEnterCritical>
                                /* This task blocking on the mutex caused another
                                 * task to inherit this task's priority.  Now this task
                                 * has timed out the priority should be disinherited
                                 * again, but only as low as the next highest priority
                                 * task that is waiting for the same mutex. */
                                uxHighestWaitingPriority = prvGetDisinheritPriorityAfterTimeout( pxQueue );
    80001096:	7562                	ld	a0,56(sp)
    80001098:	386000ef          	jal	ra,8000141e <prvGetDisinheritPriorityAfterTimeout>
    8000109c:	f42a                	sd	a0,40(sp)
                                vTaskPriorityDisinheritAfterTimeout( pxQueue->u.xSemaphore.xMutexHolder, uxHighestWaitingPriority );
    8000109e:	77e2                	ld	a5,56(sp)
    800010a0:	6b9c                	ld	a5,16(a5)
    800010a2:	75a2                	ld	a1,40(sp)
    800010a4:	853e                	mv	a0,a5
    800010a6:	202020ef          	jal	ra,800032a8 <vTaskPriorityDisinheritAfterTimeout>
                            }
                            taskEXIT_CRITICAL();
    800010aa:	350020ef          	jal	ra,800033fa <vTaskExitCritical>
                        }
                    }
                #endif /* configUSE_MUTEXES */

                traceQUEUE_RECEIVE_FAILED( pxQueue );
                return errQUEUE_EMPTY;
    800010ae:	4781                	li	a5,0
            {
                mtCOVERAGE_TEST_MARKER();
            }
        }
    } /*lint -restore */
}
    800010b0:	853e                	mv	a0,a5
    800010b2:	60e6                	ld	ra,88(sp)
    800010b4:	6125                	addi	sp,sp,96
    800010b6:	8082                	ret

00000000800010b8 <xQueuePeek>:
/*-----------------------------------------------------------*/

BaseType_t xQueuePeek( QueueHandle_t xQueue,
                       void * const pvBuffer,
                       TickType_t xTicksToWait )
{
    800010b8:	711d                	addi	sp,sp,-96
    800010ba:	ec86                	sd	ra,88(sp)
    800010bc:	ec2a                	sd	a0,24(sp)
    800010be:	e82e                	sd	a1,16(sp)
    800010c0:	e432                	sd	a2,8(sp)
    BaseType_t xEntryTimeSet = pdFALSE;
    800010c2:	e482                	sd	zero,72(sp)
    TimeOut_t xTimeOut;
    int8_t * pcOriginalReadPosition;
    Queue_t * const pxQueue = xQueue;
    800010c4:	67e2                	ld	a5,24(sp)
    800010c6:	e0be                	sd	a5,64(sp)

    /* Check the pointer is not NULL. */
    configASSERT( ( pxQueue ) );
    800010c8:	6786                	ld	a5,64(sp)
    800010ca:	e781                	bnez	a5,800010d2 <xQueuePeek+0x1a>
    800010cc:	30047073          	csrci	mstatus,8
    800010d0:	a001                	j	800010d0 <xQueuePeek+0x18>

    /* The buffer into which data is received can only be NULL if the data size
     * is zero (so no data is copied into the buffer. */
    configASSERT( !( ( ( pvBuffer ) == NULL ) && ( ( pxQueue )->uxItemSize != ( UBaseType_t ) 0U ) ) );
    800010d2:	67c2                	ld	a5,16(sp)
    800010d4:	e781                	bnez	a5,800010dc <xQueuePeek+0x24>
    800010d6:	6786                	ld	a5,64(sp)
    800010d8:	63dc                	ld	a5,128(a5)
    800010da:	e399                	bnez	a5,800010e0 <xQueuePeek+0x28>
    800010dc:	4785                	li	a5,1
    800010de:	a011                	j	800010e2 <xQueuePeek+0x2a>
    800010e0:	4781                	li	a5,0
    800010e2:	e781                	bnez	a5,800010ea <xQueuePeek+0x32>
    800010e4:	30047073          	csrci	mstatus,8
    800010e8:	a001                	j	800010e8 <xQueuePeek+0x30>

    /* Cannot block if the scheduler is suspended. */
    #if ( ( INCLUDE_xTaskGetSchedulerState == 1 ) || ( configUSE_TIMERS == 1 ) )
        {
            configASSERT( !( ( xTaskGetSchedulerState() == taskSCHEDULER_SUSPENDED ) && ( xTicksToWait != 0 ) ) );
    800010ea:	777010ef          	jal	ra,80003060 <xTaskGetSchedulerState>
    800010ee:	87aa                	mv	a5,a0
    800010f0:	e399                	bnez	a5,800010f6 <xQueuePeek+0x3e>
    800010f2:	67a2                	ld	a5,8(sp)
    800010f4:	e399                	bnez	a5,800010fa <xQueuePeek+0x42>
    800010f6:	4785                	li	a5,1
    800010f8:	a011                	j	800010fc <xQueuePeek+0x44>
    800010fa:	4781                	li	a5,0
    800010fc:	e781                	bnez	a5,80001104 <xQueuePeek+0x4c>
    800010fe:	30047073          	csrci	mstatus,8
    80001102:	a001                	j	80001102 <xQueuePeek+0x4a>
    /*lint -save -e904  This function relaxes the coding standard somewhat to
     * allow return statements within the function itself.  This is done in the
     * interest of execution time efficiency. */
    for( ; ; )
    {
        taskENTER_CRITICAL();
    80001104:	2c8020ef          	jal	ra,800033cc <vTaskEnterCritical>
        {
            const UBaseType_t uxMessagesWaiting = pxQueue->uxMessagesWaiting;
    80001108:	6786                	ld	a5,64(sp)
    8000110a:	7bbc                	ld	a5,112(a5)
    8000110c:	fc3e                	sd	a5,56(sp)

            /* Is there data in the queue now?  To be running the calling task
             * must be the highest priority task wanting to access the queue. */
            if( uxMessagesWaiting > ( UBaseType_t ) 0 )
    8000110e:	77e2                	ld	a5,56(sp)
    80001110:	cf85                	beqz	a5,80001148 <xQueuePeek+0x90>
            {
                /* Remember the read position so it can be reset after the data
                 * is read from the queue as this function is only peeking the
                 * data, not removing it. */
                pcOriginalReadPosition = pxQueue->u.xQueue.pcReadFrom;
    80001112:	6786                	ld	a5,64(sp)
    80001114:	6f9c                	ld	a5,24(a5)
    80001116:	f83e                	sd	a5,48(sp)

                prvCopyDataFromQueue( pxQueue, pvBuffer );
    80001118:	65c2                	ld	a1,16(sp)
    8000111a:	6506                	ld	a0,64(sp)
    8000111c:	3fa000ef          	jal	ra,80001516 <prvCopyDataFromQueue>
                traceQUEUE_PEEK( pxQueue );

                /* The data is not being removed, so reset the read pointer. */
                pxQueue->u.xQueue.pcReadFrom = pcOriginalReadPosition;
    80001120:	6786                	ld	a5,64(sp)
    80001122:	7742                	ld	a4,48(sp)
    80001124:	ef98                	sd	a4,24(a5)

                /* The data is being left in the queue, so see if there are
                 * any other tasks waiting for the data. */
                if( listLIST_IS_EMPTY( &( pxQueue->xTasksWaitingToReceive ) ) == pdFALSE )
    80001126:	6786                	ld	a5,64(sp)
    80001128:	67bc                	ld	a5,72(a5)
    8000112a:	cb99                	beqz	a5,80001140 <xQueuePeek+0x88>
                {
                    if( xTaskRemoveFromEventList( &( pxQueue->xTasksWaitingToReceive ) ) != pdFALSE )
    8000112c:	6786                	ld	a5,64(sp)
    8000112e:	04878793          	addi	a5,a5,72
    80001132:	853e                	mv	a0,a5
    80001134:	115010ef          	jal	ra,80002a48 <xTaskRemoveFromEventList>
    80001138:	87aa                	mv	a5,a0
    8000113a:	c399                	beqz	a5,80001140 <xQueuePeek+0x88>
                    {
                        /* The task waiting has a higher priority than this task. */
                        queueYIELD_IF_USING_PREEMPTION();
    8000113c:	00000073          	ecall
                else
                {
                    mtCOVERAGE_TEST_MARKER();
                }

                taskEXIT_CRITICAL();
    80001140:	2ba020ef          	jal	ra,800033fa <vTaskExitCritical>
                return pdPASS;
    80001144:	4785                	li	a5,1
    80001146:	a0e9                	j	80001210 <xQueuePeek+0x158>
            }
            else
            {
                if( xTicksToWait == ( TickType_t ) 0 )
    80001148:	67a2                	ld	a5,8(sp)
    8000114a:	e789                	bnez	a5,80001154 <xQueuePeek+0x9c>
                {
                    /* The queue was empty and no block time is specified (or
                     * the block time has expired) so leave now. */
                    taskEXIT_CRITICAL();
    8000114c:	2ae020ef          	jal	ra,800033fa <vTaskExitCritical>
                    traceQUEUE_PEEK_FAILED( pxQueue );
                    return errQUEUE_EMPTY;
    80001150:	4781                	li	a5,0
    80001152:	a87d                	j	80001210 <xQueuePeek+0x158>
                }
                else if( xEntryTimeSet == pdFALSE )
    80001154:	67a6                	ld	a5,72(sp)
    80001156:	e799                	bnez	a5,80001164 <xQueuePeek+0xac>
                {
                    /* The queue was empty and a block time was specified so
                     * configure the timeout structure ready to enter the blocked
                     * state. */
                    vTaskInternalSetTimeOutState( &xTimeOut );
    80001158:	101c                	addi	a5,sp,32
    8000115a:	853e                	mv	a0,a5
    8000115c:	2a5010ef          	jal	ra,80002c00 <vTaskInternalSetTimeOutState>
                    xEntryTimeSet = pdTRUE;
    80001160:	4785                	li	a5,1
    80001162:	e4be                	sd	a5,72(sp)
                    /* Entry time was already set. */
                    mtCOVERAGE_TEST_MARKER();
                }
            }
        }
        taskEXIT_CRITICAL();
    80001164:	296020ef          	jal	ra,800033fa <vTaskExitCritical>

        /* Interrupts and other tasks can send to and receive from the queue
         * now the critical section has been exited. */

        vTaskSuspendAll();
    80001168:	1dc010ef          	jal	ra,80002344 <vTaskSuspendAll>
        prvLockQueue( pxQueue );
    8000116c:	260020ef          	jal	ra,800033cc <vTaskEnterCritical>
    80001170:	6786                	ld	a5,64(sp)
    80001172:	0887c783          	lbu	a5,136(a5)
    80001176:	0187979b          	slliw	a5,a5,0x18
    8000117a:	4187d79b          	sraiw	a5,a5,0x18
    8000117e:	873e                	mv	a4,a5
    80001180:	57fd                	li	a5,-1
    80001182:	00f71563          	bne	a4,a5,8000118c <xQueuePeek+0xd4>
    80001186:	6786                	ld	a5,64(sp)
    80001188:	08078423          	sb	zero,136(a5)
    8000118c:	6786                	ld	a5,64(sp)
    8000118e:	0897c783          	lbu	a5,137(a5)
    80001192:	0187979b          	slliw	a5,a5,0x18
    80001196:	4187d79b          	sraiw	a5,a5,0x18
    8000119a:	873e                	mv	a4,a5
    8000119c:	57fd                	li	a5,-1
    8000119e:	00f71563          	bne	a4,a5,800011a8 <xQueuePeek+0xf0>
    800011a2:	6786                	ld	a5,64(sp)
    800011a4:	080784a3          	sb	zero,137(a5)
    800011a8:	252020ef          	jal	ra,800033fa <vTaskExitCritical>

        /* Update the timeout state to see if it has expired yet. */
        if( xTaskCheckForTimeOut( &xTimeOut, &xTicksToWait ) == pdFALSE )
    800011ac:	0038                	addi	a4,sp,8
    800011ae:	101c                	addi	a5,sp,32
    800011b0:	85ba                	mv	a1,a4
    800011b2:	853e                	mv	a0,a5
    800011b4:	273010ef          	jal	ra,80002c26 <xTaskCheckForTimeOut>
    800011b8:	87aa                	mv	a5,a0
    800011ba:	ef9d                	bnez	a5,800011f8 <xQueuePeek+0x140>
        {
            /* Timeout has not expired yet, check to see if there is data in the
            * queue now, and if not enter the Blocked state to wait for data. */
            if( prvIsQueueEmpty( pxQueue ) != pdFALSE )
    800011bc:	6506                	ld	a0,64(sp)
    800011be:	460000ef          	jal	ra,8000161e <prvIsQueueEmpty>
    800011c2:	87aa                	mv	a5,a0
    800011c4:	c785                	beqz	a5,800011ec <xQueuePeek+0x134>
            {
                traceBLOCKING_ON_QUEUE_PEEK( pxQueue );
                vTaskPlaceOnEventList( &( pxQueue->xTasksWaitingToReceive ), xTicksToWait );
    800011c6:	6786                	ld	a5,64(sp)
    800011c8:	04878793          	addi	a5,a5,72
    800011cc:	6722                	ld	a4,8(sp)
    800011ce:	85ba                	mv	a1,a4
    800011d0:	853e                	mv	a0,a5
    800011d2:	79c010ef          	jal	ra,8000296e <vTaskPlaceOnEventList>
                prvUnlockQueue( pxQueue );
    800011d6:	6506                	ld	a0,64(sp)
    800011d8:	388000ef          	jal	ra,80001560 <prvUnlockQueue>

                if( xTaskResumeAll() == pdFALSE )
    800011dc:	184010ef          	jal	ra,80002360 <xTaskResumeAll>
    800011e0:	87aa                	mv	a5,a0
    800011e2:	f20791e3          	bnez	a5,80001104 <xQueuePeek+0x4c>
                {
                    portYIELD_WITHIN_API();
    800011e6:	00000073          	ecall
    800011ea:	bf29                	j	80001104 <xQueuePeek+0x4c>
            }
            else
            {
                /* There is data in the queue now, so don't enter the blocked
                 * state, instead return to try and obtain the data. */
                prvUnlockQueue( pxQueue );
    800011ec:	6506                	ld	a0,64(sp)
    800011ee:	372000ef          	jal	ra,80001560 <prvUnlockQueue>
                ( void ) xTaskResumeAll();
    800011f2:	16e010ef          	jal	ra,80002360 <xTaskResumeAll>
    800011f6:	b739                	j	80001104 <xQueuePeek+0x4c>
        }
        else
        {
            /* The timeout has expired.  If there is still no data in the queue
             * exit, otherwise go back and try to read the data again. */
            prvUnlockQueue( pxQueue );
    800011f8:	6506                	ld	a0,64(sp)
    800011fa:	366000ef          	jal	ra,80001560 <prvUnlockQueue>
            ( void ) xTaskResumeAll();
    800011fe:	162010ef          	jal	ra,80002360 <xTaskResumeAll>

            if( prvIsQueueEmpty( pxQueue ) != pdFALSE )
    80001202:	6506                	ld	a0,64(sp)
    80001204:	41a000ef          	jal	ra,8000161e <prvIsQueueEmpty>
    80001208:	87aa                	mv	a5,a0
    8000120a:	ee078de3          	beqz	a5,80001104 <xQueuePeek+0x4c>
            {
                traceQUEUE_PEEK_FAILED( pxQueue );
                return errQUEUE_EMPTY;
    8000120e:	4781                	li	a5,0
            {
                mtCOVERAGE_TEST_MARKER();
            }
        }
    } /*lint -restore */
}
    80001210:	853e                	mv	a0,a5
    80001212:	60e6                	ld	ra,88(sp)
    80001214:	6125                	addi	sp,sp,96
    80001216:	8082                	ret

0000000080001218 <xQueueReceiveFromISR>:
/*-----------------------------------------------------------*/

BaseType_t xQueueReceiveFromISR( QueueHandle_t xQueue,
                                 void * const pvBuffer,
                                 BaseType_t * const pxHigherPriorityTaskWoken )
{
    80001218:	711d                	addi	sp,sp,-96
    8000121a:	ec86                	sd	ra,88(sp)
    8000121c:	ec2a                	sd	a0,24(sp)
    8000121e:	e82e                	sd	a1,16(sp)
    80001220:	e432                	sd	a2,8(sp)
    BaseType_t xReturn;
    UBaseType_t uxSavedInterruptStatus;
    Queue_t * const pxQueue = xQueue;
    80001222:	67e2                	ld	a5,24(sp)
    80001224:	e0be                	sd	a5,64(sp)

    configASSERT( pxQueue );
    80001226:	6786                	ld	a5,64(sp)
    80001228:	e781                	bnez	a5,80001230 <xQueueReceiveFromISR+0x18>
    8000122a:	30047073          	csrci	mstatus,8
    8000122e:	a001                	j	8000122e <xQueueReceiveFromISR+0x16>
    configASSERT( !( ( pvBuffer == NULL ) && ( pxQueue->uxItemSize != ( UBaseType_t ) 0U ) ) );
    80001230:	67c2                	ld	a5,16(sp)
    80001232:	e781                	bnez	a5,8000123a <xQueueReceiveFromISR+0x22>
    80001234:	6786                	ld	a5,64(sp)
    80001236:	63dc                	ld	a5,128(a5)
    80001238:	e399                	bnez	a5,8000123e <xQueueReceiveFromISR+0x26>
    8000123a:	4785                	li	a5,1
    8000123c:	a011                	j	80001240 <xQueueReceiveFromISR+0x28>
    8000123e:	4781                	li	a5,0
    80001240:	e781                	bnez	a5,80001248 <xQueueReceiveFromISR+0x30>
    80001242:	30047073          	csrci	mstatus,8
    80001246:	a001                	j	80001246 <xQueueReceiveFromISR+0x2e>
     * safe API to ensure interrupt entry is as fast and as simple as possible.
     * More information (albeit Cortex-M specific) is provided on the following
     * link: https://www.FreeRTOS.org/RTOS-Cortex-M3-M4.html */
    portASSERT_IF_INTERRUPT_PRIORITY_INVALID();

    uxSavedInterruptStatus = portSET_INTERRUPT_MASK_FROM_ISR();
    80001248:	fc02                	sd	zero,56(sp)
    {
        const UBaseType_t uxMessagesWaiting = pxQueue->uxMessagesWaiting;
    8000124a:	6786                	ld	a5,64(sp)
    8000124c:	7bbc                	ld	a5,112(a5)
    8000124e:	f83e                	sd	a5,48(sp)

        /* Cannot block in an ISR, so check there is data available. */
        if( uxMessagesWaiting > ( UBaseType_t ) 0 )
    80001250:	77c2                	ld	a5,48(sp)
    80001252:	c3d1                	beqz	a5,800012d6 <xQueueReceiveFromISR+0xbe>
        {
            const int8_t cRxLock = pxQueue->cRxLock;
    80001254:	6786                	ld	a5,64(sp)
    80001256:	0887c783          	lbu	a5,136(a5)
    8000125a:	02f107a3          	sb	a5,47(sp)

            traceQUEUE_RECEIVE_FROM_ISR( pxQueue );

            prvCopyDataFromQueue( pxQueue, pvBuffer );
    8000125e:	65c2                	ld	a1,16(sp)
    80001260:	6506                	ld	a0,64(sp)
    80001262:	2b4000ef          	jal	ra,80001516 <prvCopyDataFromQueue>
            pxQueue->uxMessagesWaiting = uxMessagesWaiting - ( UBaseType_t ) 1;
    80001266:	77c2                	ld	a5,48(sp)
    80001268:	fff78713          	addi	a4,a5,-1
    8000126c:	6786                	ld	a5,64(sp)
    8000126e:	fbb8                	sd	a4,112(a5)

            /* If the queue is locked the event list will not be modified.
             * Instead update the lock count so the task that unlocks the queue
             * will know that an ISR has removed data while the queue was
             * locked. */
            if( cRxLock == queueUNLOCKED )
    80001270:	02f14783          	lbu	a5,47(sp)
    80001274:	0ff7f713          	andi	a4,a5,255
    80001278:	0ff00793          	li	a5,255
    8000127c:	02f71363          	bne	a4,a5,800012a2 <xQueueReceiveFromISR+0x8a>
            {
                if( listLIST_IS_EMPTY( &( pxQueue->xTasksWaitingToSend ) ) == pdFALSE )
    80001280:	6786                	ld	a5,64(sp)
    80001282:	739c                	ld	a5,32(a5)
    80001284:	c7b1                	beqz	a5,800012d0 <xQueueReceiveFromISR+0xb8>
                {
                    if( xTaskRemoveFromEventList( &( pxQueue->xTasksWaitingToSend ) ) != pdFALSE )
    80001286:	6786                	ld	a5,64(sp)
    80001288:	02078793          	addi	a5,a5,32
    8000128c:	853e                	mv	a0,a5
    8000128e:	7ba010ef          	jal	ra,80002a48 <xTaskRemoveFromEventList>
    80001292:	87aa                	mv	a5,a0
    80001294:	cf95                	beqz	a5,800012d0 <xQueueReceiveFromISR+0xb8>
                    {
                        /* The task waiting has a higher priority than us so
                         * force a context switch. */
                        if( pxHigherPriorityTaskWoken != NULL )
    80001296:	67a2                	ld	a5,8(sp)
    80001298:	cf85                	beqz	a5,800012d0 <xQueueReceiveFromISR+0xb8>
                        {
                            *pxHigherPriorityTaskWoken = pdTRUE;
    8000129a:	67a2                	ld	a5,8(sp)
    8000129c:	4705                	li	a4,1
    8000129e:	e398                	sd	a4,0(a5)
    800012a0:	a805                	j	800012d0 <xQueueReceiveFromISR+0xb8>
            }
            else
            {
                /* Increment the lock count so the task that unlocks the queue
                 * knows that data was removed while it was locked. */
                configASSERT( cRxLock != queueINT8_MAX );
    800012a2:	02f14783          	lbu	a5,47(sp)
    800012a6:	0ff7f713          	andi	a4,a5,255
    800012aa:	07f00793          	li	a5,127
    800012ae:	00f71563          	bne	a4,a5,800012b8 <xQueueReceiveFromISR+0xa0>
    800012b2:	30047073          	csrci	mstatus,8
    800012b6:	a001                	j	800012b6 <xQueueReceiveFromISR+0x9e>

                pxQueue->cRxLock = ( int8_t ) ( cRxLock + 1 );
    800012b8:	02f14783          	lbu	a5,47(sp)
    800012bc:	2785                	addiw	a5,a5,1
    800012be:	0ff7f793          	andi	a5,a5,255
    800012c2:	0187971b          	slliw	a4,a5,0x18
    800012c6:	4187571b          	sraiw	a4,a4,0x18
    800012ca:	6786                	ld	a5,64(sp)
    800012cc:	08e78423          	sb	a4,136(a5)
            }

            xReturn = pdPASS;
    800012d0:	4785                	li	a5,1
    800012d2:	e4be                	sd	a5,72(sp)
    800012d4:	a011                	j	800012d8 <xQueueReceiveFromISR+0xc0>
        }
        else
        {
            xReturn = pdFAIL;
    800012d6:	e482                	sd	zero,72(sp)
            traceQUEUE_RECEIVE_FROM_ISR_FAILED( pxQueue );
        }
    }
    portCLEAR_INTERRUPT_MASK_FROM_ISR( uxSavedInterruptStatus );

    return xReturn;
    800012d8:	67a6                	ld	a5,72(sp)
}
    800012da:	853e                	mv	a0,a5
    800012dc:	60e6                	ld	ra,88(sp)
    800012de:	6125                	addi	sp,sp,96
    800012e0:	8082                	ret

00000000800012e2 <xQueuePeekFromISR>:
/*-----------------------------------------------------------*/

BaseType_t xQueuePeekFromISR( QueueHandle_t xQueue,
                              void * const pvBuffer )
{
    800012e2:	7139                	addi	sp,sp,-64
    800012e4:	fc06                	sd	ra,56(sp)
    800012e6:	e42a                	sd	a0,8(sp)
    800012e8:	e02e                	sd	a1,0(sp)
    BaseType_t xReturn;
    UBaseType_t uxSavedInterruptStatus;
    int8_t * pcOriginalReadPosition;
    Queue_t * const pxQueue = xQueue;
    800012ea:	67a2                	ld	a5,8(sp)
    800012ec:	f03e                	sd	a5,32(sp)

    configASSERT( pxQueue );
    800012ee:	7782                	ld	a5,32(sp)
    800012f0:	e781                	bnez	a5,800012f8 <xQueuePeekFromISR+0x16>
    800012f2:	30047073          	csrci	mstatus,8
    800012f6:	a001                	j	800012f6 <xQueuePeekFromISR+0x14>
    configASSERT( !( ( pvBuffer == NULL ) && ( pxQueue->uxItemSize != ( UBaseType_t ) 0U ) ) );
    800012f8:	6782                	ld	a5,0(sp)
    800012fa:	e781                	bnez	a5,80001302 <xQueuePeekFromISR+0x20>
    800012fc:	7782                	ld	a5,32(sp)
    800012fe:	63dc                	ld	a5,128(a5)
    80001300:	e399                	bnez	a5,80001306 <xQueuePeekFromISR+0x24>
    80001302:	4785                	li	a5,1
    80001304:	a011                	j	80001308 <xQueuePeekFromISR+0x26>
    80001306:	4781                	li	a5,0
    80001308:	e781                	bnez	a5,80001310 <xQueuePeekFromISR+0x2e>
    8000130a:	30047073          	csrci	mstatus,8
    8000130e:	a001                	j	8000130e <xQueuePeekFromISR+0x2c>
    configASSERT( pxQueue->uxItemSize != 0 ); /* Can't peek a semaphore. */
    80001310:	7782                	ld	a5,32(sp)
    80001312:	63dc                	ld	a5,128(a5)
    80001314:	e781                	bnez	a5,8000131c <xQueuePeekFromISR+0x3a>
    80001316:	30047073          	csrci	mstatus,8
    8000131a:	a001                	j	8000131a <xQueuePeekFromISR+0x38>
     * safe API to ensure interrupt entry is as fast and as simple as possible.
     * More information (albeit Cortex-M specific) is provided on the following
     * link: https://www.FreeRTOS.org/RTOS-Cortex-M3-M4.html */
    portASSERT_IF_INTERRUPT_PRIORITY_INVALID();

    uxSavedInterruptStatus = portSET_INTERRUPT_MASK_FROM_ISR();
    8000131c:	ec02                	sd	zero,24(sp)
    {
        /* Cannot block in an ISR, so check there is data available. */
        if( pxQueue->uxMessagesWaiting > ( UBaseType_t ) 0 )
    8000131e:	7782                	ld	a5,32(sp)
    80001320:	7bbc                	ld	a5,112(a5)
    80001322:	cf91                	beqz	a5,8000133e <xQueuePeekFromISR+0x5c>
        {
            traceQUEUE_PEEK_FROM_ISR( pxQueue );

            /* Remember the read position so it can be reset as nothing is
             * actually being removed from the queue. */
            pcOriginalReadPosition = pxQueue->u.xQueue.pcReadFrom;
    80001324:	7782                	ld	a5,32(sp)
    80001326:	6f9c                	ld	a5,24(a5)
    80001328:	e83e                	sd	a5,16(sp)
            prvCopyDataFromQueue( pxQueue, pvBuffer );
    8000132a:	6582                	ld	a1,0(sp)
    8000132c:	7502                	ld	a0,32(sp)
    8000132e:	1e8000ef          	jal	ra,80001516 <prvCopyDataFromQueue>
            pxQueue->u.xQueue.pcReadFrom = pcOriginalReadPosition;
    80001332:	7782                	ld	a5,32(sp)
    80001334:	6742                	ld	a4,16(sp)
    80001336:	ef98                	sd	a4,24(a5)

            xReturn = pdPASS;
    80001338:	4785                	li	a5,1
    8000133a:	f43e                	sd	a5,40(sp)
    8000133c:	a011                	j	80001340 <xQueuePeekFromISR+0x5e>
        }
        else
        {
            xReturn = pdFAIL;
    8000133e:	f402                	sd	zero,40(sp)
            traceQUEUE_PEEK_FROM_ISR_FAILED( pxQueue );
        }
    }
    portCLEAR_INTERRUPT_MASK_FROM_ISR( uxSavedInterruptStatus );

    return xReturn;
    80001340:	77a2                	ld	a5,40(sp)
}
    80001342:	853e                	mv	a0,a5
    80001344:	70e2                	ld	ra,56(sp)
    80001346:	6121                	addi	sp,sp,64
    80001348:	8082                	ret

000000008000134a <uxQueueMessagesWaiting>:
/*-----------------------------------------------------------*/

UBaseType_t uxQueueMessagesWaiting( const QueueHandle_t xQueue )
{
    8000134a:	7179                	addi	sp,sp,-48
    8000134c:	f406                	sd	ra,40(sp)
    8000134e:	e42a                	sd	a0,8(sp)
    UBaseType_t uxReturn;

    configASSERT( xQueue );
    80001350:	67a2                	ld	a5,8(sp)
    80001352:	e781                	bnez	a5,8000135a <uxQueueMessagesWaiting+0x10>
    80001354:	30047073          	csrci	mstatus,8
    80001358:	a001                	j	80001358 <uxQueueMessagesWaiting+0xe>

    taskENTER_CRITICAL();
    8000135a:	072020ef          	jal	ra,800033cc <vTaskEnterCritical>
    {
        uxReturn = ( ( Queue_t * ) xQueue )->uxMessagesWaiting;
    8000135e:	67a2                	ld	a5,8(sp)
    80001360:	7bbc                	ld	a5,112(a5)
    80001362:	ec3e                	sd	a5,24(sp)
    }
    taskEXIT_CRITICAL();
    80001364:	096020ef          	jal	ra,800033fa <vTaskExitCritical>

    return uxReturn;
    80001368:	67e2                	ld	a5,24(sp)
} /*lint !e818 Pointer cannot be declared const as xQueue is a typedef not pointer. */
    8000136a:	853e                	mv	a0,a5
    8000136c:	70a2                	ld	ra,40(sp)
    8000136e:	6145                	addi	sp,sp,48
    80001370:	8082                	ret

0000000080001372 <uxQueueSpacesAvailable>:
/*-----------------------------------------------------------*/

UBaseType_t uxQueueSpacesAvailable( const QueueHandle_t xQueue )
{
    80001372:	7179                	addi	sp,sp,-48
    80001374:	f406                	sd	ra,40(sp)
    80001376:	e42a                	sd	a0,8(sp)
    UBaseType_t uxReturn;
    Queue_t * const pxQueue = xQueue;
    80001378:	67a2                	ld	a5,8(sp)
    8000137a:	ec3e                	sd	a5,24(sp)

    configASSERT( pxQueue );
    8000137c:	67e2                	ld	a5,24(sp)
    8000137e:	e781                	bnez	a5,80001386 <uxQueueSpacesAvailable+0x14>
    80001380:	30047073          	csrci	mstatus,8
    80001384:	a001                	j	80001384 <uxQueueSpacesAvailable+0x12>

    taskENTER_CRITICAL();
    80001386:	046020ef          	jal	ra,800033cc <vTaskEnterCritical>
    {
        uxReturn = pxQueue->uxLength - pxQueue->uxMessagesWaiting;
    8000138a:	67e2                	ld	a5,24(sp)
    8000138c:	7fb8                	ld	a4,120(a5)
    8000138e:	67e2                	ld	a5,24(sp)
    80001390:	7bbc                	ld	a5,112(a5)
    80001392:	40f707b3          	sub	a5,a4,a5
    80001396:	e83e                	sd	a5,16(sp)
    }
    taskEXIT_CRITICAL();
    80001398:	062020ef          	jal	ra,800033fa <vTaskExitCritical>

    return uxReturn;
    8000139c:	67c2                	ld	a5,16(sp)
} /*lint !e818 Pointer cannot be declared const as xQueue is a typedef not pointer. */
    8000139e:	853e                	mv	a0,a5
    800013a0:	70a2                	ld	ra,40(sp)
    800013a2:	6145                	addi	sp,sp,48
    800013a4:	8082                	ret

00000000800013a6 <uxQueueMessagesWaitingFromISR>:
/*-----------------------------------------------------------*/

UBaseType_t uxQueueMessagesWaitingFromISR( const QueueHandle_t xQueue )
{
    800013a6:	1101                	addi	sp,sp,-32
    800013a8:	e42a                	sd	a0,8(sp)
    UBaseType_t uxReturn;
    Queue_t * const pxQueue = xQueue;
    800013aa:	67a2                	ld	a5,8(sp)
    800013ac:	ec3e                	sd	a5,24(sp)

    configASSERT( pxQueue );
    800013ae:	67e2                	ld	a5,24(sp)
    800013b0:	e781                	bnez	a5,800013b8 <uxQueueMessagesWaitingFromISR+0x12>
    800013b2:	30047073          	csrci	mstatus,8
    800013b6:	a001                	j	800013b6 <uxQueueMessagesWaitingFromISR+0x10>
    uxReturn = pxQueue->uxMessagesWaiting;
    800013b8:	67e2                	ld	a5,24(sp)
    800013ba:	7bbc                	ld	a5,112(a5)
    800013bc:	e83e                	sd	a5,16(sp)

    return uxReturn;
    800013be:	67c2                	ld	a5,16(sp)
} /*lint !e818 Pointer cannot be declared const as xQueue is a typedef not pointer. */
    800013c0:	853e                	mv	a0,a5
    800013c2:	6105                	addi	sp,sp,32
    800013c4:	8082                	ret

00000000800013c6 <vQueueDelete>:
/*-----------------------------------------------------------*/

void vQueueDelete( QueueHandle_t xQueue )
{
    800013c6:	7179                	addi	sp,sp,-48
    800013c8:	f406                	sd	ra,40(sp)
    800013ca:	e42a                	sd	a0,8(sp)
    Queue_t * const pxQueue = xQueue;
    800013cc:	67a2                	ld	a5,8(sp)
    800013ce:	ec3e                	sd	a5,24(sp)

    configASSERT( pxQueue );
    800013d0:	67e2                	ld	a5,24(sp)
    800013d2:	e781                	bnez	a5,800013da <vQueueDelete+0x14>
    800013d4:	30047073          	csrci	mstatus,8
    800013d8:	a001                	j	800013d8 <vQueueDelete+0x12>
    traceQUEUE_DELETE( pxQueue );

    #if ( configQUEUE_REGISTRY_SIZE > 0 )
        {
            vQueueUnregisterQueue( pxQueue );
    800013da:	6562                	ld	a0,24(sp)
    800013dc:	38c000ef          	jal	ra,80001768 <vQueueUnregisterQueue>

    #if ( ( configSUPPORT_DYNAMIC_ALLOCATION == 1 ) && ( configSUPPORT_STATIC_ALLOCATION == 0 ) )
        {
            /* The queue can only have been allocated dynamically - free it
             * again. */
            vPortFree( pxQueue );
    800013e0:	6562                	ld	a0,24(sp)
    800013e2:	7b0030ef          	jal	ra,80004b92 <vPortFree>
            /* The queue must have been statically allocated, so is not going to be
             * deleted.  Avoid compiler warnings about the unused parameter. */
            ( void ) pxQueue;
        }
    #endif /* configSUPPORT_DYNAMIC_ALLOCATION */
}
    800013e6:	0001                	nop
    800013e8:	70a2                	ld	ra,40(sp)
    800013ea:	6145                	addi	sp,sp,48
    800013ec:	8082                	ret

00000000800013ee <uxQueueGetQueueNumber>:
/*-----------------------------------------------------------*/

#if ( configUSE_TRACE_FACILITY == 1 )

    UBaseType_t uxQueueGetQueueNumber( QueueHandle_t xQueue )
    {
    800013ee:	1141                	addi	sp,sp,-16
    800013f0:	e42a                	sd	a0,8(sp)
        return ( ( Queue_t * ) xQueue )->uxQueueNumber;
    800013f2:	67a2                	ld	a5,8(sp)
    800013f4:	6bdc                	ld	a5,144(a5)
    }
    800013f6:	853e                	mv	a0,a5
    800013f8:	0141                	addi	sp,sp,16
    800013fa:	8082                	ret

00000000800013fc <vQueueSetQueueNumber>:

#if ( configUSE_TRACE_FACILITY == 1 )

    void vQueueSetQueueNumber( QueueHandle_t xQueue,
                               UBaseType_t uxQueueNumber )
    {
    800013fc:	1141                	addi	sp,sp,-16
    800013fe:	e42a                	sd	a0,8(sp)
    80001400:	e02e                	sd	a1,0(sp)
        ( ( Queue_t * ) xQueue )->uxQueueNumber = uxQueueNumber;
    80001402:	67a2                	ld	a5,8(sp)
    80001404:	6702                	ld	a4,0(sp)
    80001406:	ebd8                	sd	a4,144(a5)
    }
    80001408:	0001                	nop
    8000140a:	0141                	addi	sp,sp,16
    8000140c:	8082                	ret

000000008000140e <ucQueueGetQueueType>:
/*-----------------------------------------------------------*/

#if ( configUSE_TRACE_FACILITY == 1 )

    uint8_t ucQueueGetQueueType( QueueHandle_t xQueue )
    {
    8000140e:	1141                	addi	sp,sp,-16
    80001410:	e42a                	sd	a0,8(sp)
        return ( ( Queue_t * ) xQueue )->ucQueueType;
    80001412:	67a2                	ld	a5,8(sp)
    80001414:	0987c783          	lbu	a5,152(a5)
    }
    80001418:	853e                	mv	a0,a5
    8000141a:	0141                	addi	sp,sp,16
    8000141c:	8082                	ret

000000008000141e <prvGetDisinheritPriorityAfterTimeout>:
/*-----------------------------------------------------------*/

#if ( configUSE_MUTEXES == 1 )

    static UBaseType_t prvGetDisinheritPriorityAfterTimeout( const Queue_t * const pxQueue )
    {
    8000141e:	1101                	addi	sp,sp,-32
    80001420:	e42a                	sd	a0,8(sp)
         * priority, but the waiting task times out, then the holder should
         * disinherit the priority - but only down to the highest priority of any
         * other tasks that are waiting for the same mutex.  For this purpose,
         * return the priority of the highest priority task that is waiting for the
         * mutex. */
        if( listCURRENT_LIST_LENGTH( &( pxQueue->xTasksWaitingToReceive ) ) > 0U )
    80001422:	67a2                	ld	a5,8(sp)
    80001424:	67bc                	ld	a5,72(a5)
    80001426:	cb89                	beqz	a5,80001438 <prvGetDisinheritPriorityAfterTimeout+0x1a>
        {
            uxHighestPriorityOfWaitingTasks = ( UBaseType_t ) configMAX_PRIORITIES - ( UBaseType_t ) listGET_ITEM_VALUE_OF_HEAD_ENTRY( &( pxQueue->xTasksWaitingToReceive ) );
    80001428:	67a2                	ld	a5,8(sp)
    8000142a:	73bc                	ld	a5,96(a5)
    8000142c:	639c                	ld	a5,0(a5)
    8000142e:	4715                	li	a4,5
    80001430:	40f707b3          	sub	a5,a4,a5
    80001434:	ec3e                	sd	a5,24(sp)
    80001436:	a011                	j	8000143a <prvGetDisinheritPriorityAfterTimeout+0x1c>
        }
        else
        {
            uxHighestPriorityOfWaitingTasks = tskIDLE_PRIORITY;
    80001438:	ec02                	sd	zero,24(sp)
        }

        return uxHighestPriorityOfWaitingTasks;
    8000143a:	67e2                	ld	a5,24(sp)
    }
    8000143c:	853e                	mv	a0,a5
    8000143e:	6105                	addi	sp,sp,32
    80001440:	8082                	ret

0000000080001442 <prvCopyDataToQueue>:
/*-----------------------------------------------------------*/

static BaseType_t prvCopyDataToQueue( Queue_t * const pxQueue,
                                      const void * pvItemToQueue,
                                      const BaseType_t xPosition )
{
    80001442:	7139                	addi	sp,sp,-64
    80001444:	fc06                	sd	ra,56(sp)
    80001446:	ec2a                	sd	a0,24(sp)
    80001448:	e82e                	sd	a1,16(sp)
    8000144a:	e432                	sd	a2,8(sp)
    BaseType_t xReturn = pdFALSE;
    8000144c:	f402                	sd	zero,40(sp)
    UBaseType_t uxMessagesWaiting;

    /* This function is called from a critical section. */

    uxMessagesWaiting = pxQueue->uxMessagesWaiting;
    8000144e:	67e2                	ld	a5,24(sp)
    80001450:	7bbc                	ld	a5,112(a5)
    80001452:	f03e                	sd	a5,32(sp)

    if( pxQueue->uxItemSize == ( UBaseType_t ) 0 )
    80001454:	67e2                	ld	a5,24(sp)
    80001456:	63dc                	ld	a5,128(a5)
    80001458:	ef91                	bnez	a5,80001474 <prvCopyDataToQueue+0x32>
    {
        #if ( configUSE_MUTEXES == 1 )
            {
                if( pxQueue->uxQueueType == queueQUEUE_IS_MUTEX )
    8000145a:	67e2                	ld	a5,24(sp)
    8000145c:	639c                	ld	a5,0(a5)
    8000145e:	e3d5                	bnez	a5,80001502 <prvCopyDataToQueue+0xc0>
                {
                    /* The mutex is no longer being held. */
                    xReturn = xTaskPriorityDisinherit( pxQueue->u.xSemaphore.xMutexHolder );
    80001460:	67e2                	ld	a5,24(sp)
    80001462:	6b9c                	ld	a5,16(a5)
    80001464:	853e                	mv	a0,a5
    80001466:	555010ef          	jal	ra,800031ba <xTaskPriorityDisinherit>
    8000146a:	f42a                	sd	a0,40(sp)
                    pxQueue->u.xSemaphore.xMutexHolder = NULL;
    8000146c:	67e2                	ld	a5,24(sp)
    8000146e:	0007b823          	sd	zero,16(a5)
    80001472:	a841                	j	80001502 <prvCopyDataToQueue+0xc0>
                    mtCOVERAGE_TEST_MARKER();
                }
            }
        #endif /* configUSE_MUTEXES */
    }
    else if( xPosition == queueSEND_TO_BACK )
    80001474:	67a2                	ld	a5,8(sp)
    80001476:	ef85                	bnez	a5,800014ae <prvCopyDataToQueue+0x6c>
    {
        ( void ) memcpy( ( void * ) pxQueue->pcWriteTo, pvItemToQueue, ( size_t ) pxQueue->uxItemSize ); /*lint !e961 !e418 !e9087 MISRA exception as the casts are only redundant for some ports, plus previous logic ensures a null pointer can only be passed to memcpy() if the copy size is 0.  Cast to void required by function signature and safe as no alignment requirement and copy length specified in bytes. */
    80001478:	67e2                	ld	a5,24(sp)
    8000147a:	6798                	ld	a4,8(a5)
    8000147c:	67e2                	ld	a5,24(sp)
    8000147e:	63dc                	ld	a5,128(a5)
    80001480:	863e                	mv	a2,a5
    80001482:	65c2                	ld	a1,16(sp)
    80001484:	853a                	mv	a0,a4
    80001486:	7d3060ef          	jal	ra,80008458 <memcpy>
        pxQueue->pcWriteTo += pxQueue->uxItemSize;                                                       /*lint !e9016 Pointer arithmetic on char types ok, especially in this use case where it is the clearest way of conveying intent. */
    8000148a:	67e2                	ld	a5,24(sp)
    8000148c:	6798                	ld	a4,8(a5)
    8000148e:	67e2                	ld	a5,24(sp)
    80001490:	63dc                	ld	a5,128(a5)
    80001492:	973e                	add	a4,a4,a5
    80001494:	67e2                	ld	a5,24(sp)
    80001496:	e798                	sd	a4,8(a5)

        if( pxQueue->pcWriteTo >= pxQueue->u.xQueue.pcTail )                                             /*lint !e946 MISRA exception justified as comparison of pointers is the cleanest solution. */
    80001498:	67e2                	ld	a5,24(sp)
    8000149a:	6798                	ld	a4,8(a5)
    8000149c:	67e2                	ld	a5,24(sp)
    8000149e:	6b9c                	ld	a5,16(a5)
    800014a0:	06f76163          	bltu	a4,a5,80001502 <prvCopyDataToQueue+0xc0>
        {
            pxQueue->pcWriteTo = pxQueue->pcHead;
    800014a4:	67e2                	ld	a5,24(sp)
    800014a6:	6398                	ld	a4,0(a5)
    800014a8:	67e2                	ld	a5,24(sp)
    800014aa:	e798                	sd	a4,8(a5)
    800014ac:	a899                	j	80001502 <prvCopyDataToQueue+0xc0>
            mtCOVERAGE_TEST_MARKER();
        }
    }
    else
    {
        ( void ) memcpy( ( void * ) pxQueue->u.xQueue.pcReadFrom, pvItemToQueue, ( size_t ) pxQueue->uxItemSize ); /*lint !e961 !e9087 !e418 MISRA exception as the casts are only redundant for some ports.  Cast to void required by function signature and safe as no alignment requirement and copy length specified in bytes.  Assert checks null pointer only used when length is 0. */
    800014ae:	67e2                	ld	a5,24(sp)
    800014b0:	6f98                	ld	a4,24(a5)
    800014b2:	67e2                	ld	a5,24(sp)
    800014b4:	63dc                	ld	a5,128(a5)
    800014b6:	863e                	mv	a2,a5
    800014b8:	65c2                	ld	a1,16(sp)
    800014ba:	853a                	mv	a0,a4
    800014bc:	79d060ef          	jal	ra,80008458 <memcpy>
        pxQueue->u.xQueue.pcReadFrom -= pxQueue->uxItemSize;
    800014c0:	67e2                	ld	a5,24(sp)
    800014c2:	6f98                	ld	a4,24(a5)
    800014c4:	67e2                	ld	a5,24(sp)
    800014c6:	63dc                	ld	a5,128(a5)
    800014c8:	40f007b3          	neg	a5,a5
    800014cc:	973e                	add	a4,a4,a5
    800014ce:	67e2                	ld	a5,24(sp)
    800014d0:	ef98                	sd	a4,24(a5)

        if( pxQueue->u.xQueue.pcReadFrom < pxQueue->pcHead ) /*lint !e946 MISRA exception justified as comparison of pointers is the cleanest solution. */
    800014d2:	67e2                	ld	a5,24(sp)
    800014d4:	6f98                	ld	a4,24(a5)
    800014d6:	67e2                	ld	a5,24(sp)
    800014d8:	639c                	ld	a5,0(a5)
    800014da:	00f77b63          	bgeu	a4,a5,800014f0 <prvCopyDataToQueue+0xae>
        {
            pxQueue->u.xQueue.pcReadFrom = ( pxQueue->u.xQueue.pcTail - pxQueue->uxItemSize );
    800014de:	67e2                	ld	a5,24(sp)
    800014e0:	6b98                	ld	a4,16(a5)
    800014e2:	67e2                	ld	a5,24(sp)
    800014e4:	63dc                	ld	a5,128(a5)
    800014e6:	40f007b3          	neg	a5,a5
    800014ea:	973e                	add	a4,a4,a5
    800014ec:	67e2                	ld	a5,24(sp)
    800014ee:	ef98                	sd	a4,24(a5)
        else
        {
            mtCOVERAGE_TEST_MARKER();
        }

        if( xPosition == queueOVERWRITE )
    800014f0:	6722                	ld	a4,8(sp)
    800014f2:	4789                	li	a5,2
    800014f4:	00f71763          	bne	a4,a5,80001502 <prvCopyDataToQueue+0xc0>
        {
            if( uxMessagesWaiting > ( UBaseType_t ) 0 )
    800014f8:	7782                	ld	a5,32(sp)
    800014fa:	c781                	beqz	a5,80001502 <prvCopyDataToQueue+0xc0>
            {
                /* An item is not being added but overwritten, so subtract
                 * one from the recorded number of items in the queue so when
                 * one is added again below the number of recorded items remains
                 * correct. */
                --uxMessagesWaiting;
    800014fc:	7782                	ld	a5,32(sp)
    800014fe:	17fd                	addi	a5,a5,-1
    80001500:	f03e                	sd	a5,32(sp)
        {
            mtCOVERAGE_TEST_MARKER();
        }
    }

    pxQueue->uxMessagesWaiting = uxMessagesWaiting + ( UBaseType_t ) 1;
    80001502:	7782                	ld	a5,32(sp)
    80001504:	00178713          	addi	a4,a5,1
    80001508:	67e2                	ld	a5,24(sp)
    8000150a:	fbb8                	sd	a4,112(a5)

    return xReturn;
    8000150c:	77a2                	ld	a5,40(sp)
}
    8000150e:	853e                	mv	a0,a5
    80001510:	70e2                	ld	ra,56(sp)
    80001512:	6121                	addi	sp,sp,64
    80001514:	8082                	ret

0000000080001516 <prvCopyDataFromQueue>:
/*-----------------------------------------------------------*/

static void prvCopyDataFromQueue( Queue_t * const pxQueue,
                                  void * const pvBuffer )
{
    80001516:	1101                	addi	sp,sp,-32
    80001518:	ec06                	sd	ra,24(sp)
    8000151a:	e42a                	sd	a0,8(sp)
    8000151c:	e02e                	sd	a1,0(sp)
    if( pxQueue->uxItemSize != ( UBaseType_t ) 0 )
    8000151e:	67a2                	ld	a5,8(sp)
    80001520:	63dc                	ld	a5,128(a5)
    80001522:	cb9d                	beqz	a5,80001558 <prvCopyDataFromQueue+0x42>
    {
        pxQueue->u.xQueue.pcReadFrom += pxQueue->uxItemSize;           /*lint !e9016 Pointer arithmetic on char types ok, especially in this use case where it is the clearest way of conveying intent. */
    80001524:	67a2                	ld	a5,8(sp)
    80001526:	6f98                	ld	a4,24(a5)
    80001528:	67a2                	ld	a5,8(sp)
    8000152a:	63dc                	ld	a5,128(a5)
    8000152c:	973e                	add	a4,a4,a5
    8000152e:	67a2                	ld	a5,8(sp)
    80001530:	ef98                	sd	a4,24(a5)

        if( pxQueue->u.xQueue.pcReadFrom >= pxQueue->u.xQueue.pcTail ) /*lint !e946 MISRA exception justified as use of the relational operator is the cleanest solutions. */
    80001532:	67a2                	ld	a5,8(sp)
    80001534:	6f98                	ld	a4,24(a5)
    80001536:	67a2                	ld	a5,8(sp)
    80001538:	6b9c                	ld	a5,16(a5)
    8000153a:	00f76663          	bltu	a4,a5,80001546 <prvCopyDataFromQueue+0x30>
        {
            pxQueue->u.xQueue.pcReadFrom = pxQueue->pcHead;
    8000153e:	67a2                	ld	a5,8(sp)
    80001540:	6398                	ld	a4,0(a5)
    80001542:	67a2                	ld	a5,8(sp)
    80001544:	ef98                	sd	a4,24(a5)
        else
        {
            mtCOVERAGE_TEST_MARKER();
        }

        ( void ) memcpy( ( void * ) pvBuffer, ( void * ) pxQueue->u.xQueue.pcReadFrom, ( size_t ) pxQueue->uxItemSize ); /*lint !e961 !e418 !e9087 MISRA exception as the casts are only redundant for some ports.  Also previous logic ensures a null pointer can only be passed to memcpy() when the count is 0.  Cast to void required by function signature and safe as no alignment requirement and copy length specified in bytes. */
    80001546:	67a2                	ld	a5,8(sp)
    80001548:	6f98                	ld	a4,24(a5)
    8000154a:	67a2                	ld	a5,8(sp)
    8000154c:	63dc                	ld	a5,128(a5)
    8000154e:	863e                	mv	a2,a5
    80001550:	85ba                	mv	a1,a4
    80001552:	6502                	ld	a0,0(sp)
    80001554:	705060ef          	jal	ra,80008458 <memcpy>
    }
}
    80001558:	0001                	nop
    8000155a:	60e2                	ld	ra,24(sp)
    8000155c:	6105                	addi	sp,sp,32
    8000155e:	8082                	ret

0000000080001560 <prvUnlockQueue>:
/*-----------------------------------------------------------*/

static void prvUnlockQueue( Queue_t * const pxQueue )
{
    80001560:	7179                	addi	sp,sp,-48
    80001562:	f406                	sd	ra,40(sp)
    80001564:	e42a                	sd	a0,8(sp)

    /* The lock counts contains the number of extra data items placed or
     * removed from the queue while the queue was locked.  When a queue is
     * locked items can be added or removed, but the event lists cannot be
     * updated. */
    taskENTER_CRITICAL();
    80001566:	667010ef          	jal	ra,800033cc <vTaskEnterCritical>
    {
        int8_t cTxLock = pxQueue->cTxLock;
    8000156a:	67a2                	ld	a5,8(sp)
    8000156c:	0897c783          	lbu	a5,137(a5)
    80001570:	00f10fa3          	sb	a5,31(sp)

        /* See if data was added to the queue while it was locked. */
        while( cTxLock > queueLOCKED_UNMODIFIED )
    80001574:	a02d                	j	8000159e <prvUnlockQueue+0x3e>
                }
            #else /* configUSE_QUEUE_SETS */
                {
                    /* Tasks that are removed from the event list will get added to
                     * the pending ready list as the scheduler is still suspended. */
                    if( listLIST_IS_EMPTY( &( pxQueue->xTasksWaitingToReceive ) ) == pdFALSE )
    80001576:	67a2                	ld	a5,8(sp)
    80001578:	67bc                	ld	a5,72(a5)
    8000157a:	cb9d                	beqz	a5,800015b0 <prvUnlockQueue+0x50>
                    {
                        if( xTaskRemoveFromEventList( &( pxQueue->xTasksWaitingToReceive ) ) != pdFALSE )
    8000157c:	67a2                	ld	a5,8(sp)
    8000157e:	04878793          	addi	a5,a5,72
    80001582:	853e                	mv	a0,a5
    80001584:	4c4010ef          	jal	ra,80002a48 <xTaskRemoveFromEventList>
    80001588:	87aa                	mv	a5,a0
    8000158a:	c399                	beqz	a5,80001590 <prvUnlockQueue+0x30>
                        {
                            /* The task waiting has a higher priority so record that
                             * a context switch is required. */
                            vTaskMissedYield();
    8000158c:	740010ef          	jal	ra,80002ccc <vTaskMissedYield>
                        break;
                    }
                }
            #endif /* configUSE_QUEUE_SETS */

            --cTxLock;
    80001590:	01f14783          	lbu	a5,31(sp)
    80001594:	37fd                	addiw	a5,a5,-1
    80001596:	0ff7f793          	andi	a5,a5,255
    8000159a:	00f10fa3          	sb	a5,31(sp)
        while( cTxLock > queueLOCKED_UNMODIFIED )
    8000159e:	01f14783          	lbu	a5,31(sp)
    800015a2:	0187979b          	slliw	a5,a5,0x18
    800015a6:	4187d79b          	sraiw	a5,a5,0x18
    800015aa:	fcf046e3          	bgtz	a5,80001576 <prvUnlockQueue+0x16>
    800015ae:	a011                	j	800015b2 <prvUnlockQueue+0x52>
                        break;
    800015b0:	0001                	nop
        }

        pxQueue->cTxLock = queueUNLOCKED;
    800015b2:	67a2                	ld	a5,8(sp)
    800015b4:	577d                	li	a4,-1
    800015b6:	08e784a3          	sb	a4,137(a5)
    }
    taskEXIT_CRITICAL();
    800015ba:	641010ef          	jal	ra,800033fa <vTaskExitCritical>

    /* Do the same for the Rx lock. */
    taskENTER_CRITICAL();
    800015be:	60f010ef          	jal	ra,800033cc <vTaskEnterCritical>
    {
        int8_t cRxLock = pxQueue->cRxLock;
    800015c2:	67a2                	ld	a5,8(sp)
    800015c4:	0887c783          	lbu	a5,136(a5)
    800015c8:	00f10f23          	sb	a5,30(sp)

        while( cRxLock > queueLOCKED_UNMODIFIED )
    800015cc:	a02d                	j	800015f6 <prvUnlockQueue+0x96>
        {
            if( listLIST_IS_EMPTY( &( pxQueue->xTasksWaitingToSend ) ) == pdFALSE )
    800015ce:	67a2                	ld	a5,8(sp)
    800015d0:	739c                	ld	a5,32(a5)
    800015d2:	cb9d                	beqz	a5,80001608 <prvUnlockQueue+0xa8>
            {
                if( xTaskRemoveFromEventList( &( pxQueue->xTasksWaitingToSend ) ) != pdFALSE )
    800015d4:	67a2                	ld	a5,8(sp)
    800015d6:	02078793          	addi	a5,a5,32
    800015da:	853e                	mv	a0,a5
    800015dc:	46c010ef          	jal	ra,80002a48 <xTaskRemoveFromEventList>
    800015e0:	87aa                	mv	a5,a0
    800015e2:	c399                	beqz	a5,800015e8 <prvUnlockQueue+0x88>
                {
                    vTaskMissedYield();
    800015e4:	6e8010ef          	jal	ra,80002ccc <vTaskMissedYield>
                else
                {
                    mtCOVERAGE_TEST_MARKER();
                }

                --cRxLock;
    800015e8:	01e14783          	lbu	a5,30(sp)
    800015ec:	37fd                	addiw	a5,a5,-1
    800015ee:	0ff7f793          	andi	a5,a5,255
    800015f2:	00f10f23          	sb	a5,30(sp)
        while( cRxLock > queueLOCKED_UNMODIFIED )
    800015f6:	01e14783          	lbu	a5,30(sp)
    800015fa:	0187979b          	slliw	a5,a5,0x18
    800015fe:	4187d79b          	sraiw	a5,a5,0x18
    80001602:	fcf046e3          	bgtz	a5,800015ce <prvUnlockQueue+0x6e>
    80001606:	a011                	j	8000160a <prvUnlockQueue+0xaa>
            }
            else
            {
                break;
    80001608:	0001                	nop
            }
        }

        pxQueue->cRxLock = queueUNLOCKED;
    8000160a:	67a2                	ld	a5,8(sp)
    8000160c:	577d                	li	a4,-1
    8000160e:	08e78423          	sb	a4,136(a5)
    }
    taskEXIT_CRITICAL();
    80001612:	5e9010ef          	jal	ra,800033fa <vTaskExitCritical>
}
    80001616:	0001                	nop
    80001618:	70a2                	ld	ra,40(sp)
    8000161a:	6145                	addi	sp,sp,48
    8000161c:	8082                	ret

000000008000161e <prvIsQueueEmpty>:
/*-----------------------------------------------------------*/

static BaseType_t prvIsQueueEmpty( const Queue_t * pxQueue )
{
    8000161e:	7179                	addi	sp,sp,-48
    80001620:	f406                	sd	ra,40(sp)
    80001622:	e42a                	sd	a0,8(sp)
    BaseType_t xReturn;

    taskENTER_CRITICAL();
    80001624:	5a9010ef          	jal	ra,800033cc <vTaskEnterCritical>
    {
        if( pxQueue->uxMessagesWaiting == ( UBaseType_t ) 0 )
    80001628:	67a2                	ld	a5,8(sp)
    8000162a:	7bbc                	ld	a5,112(a5)
    8000162c:	e781                	bnez	a5,80001634 <prvIsQueueEmpty+0x16>
        {
            xReturn = pdTRUE;
    8000162e:	4785                	li	a5,1
    80001630:	ec3e                	sd	a5,24(sp)
    80001632:	a011                	j	80001636 <prvIsQueueEmpty+0x18>
        }
        else
        {
            xReturn = pdFALSE;
    80001634:	ec02                	sd	zero,24(sp)
        }
    }
    taskEXIT_CRITICAL();
    80001636:	5c5010ef          	jal	ra,800033fa <vTaskExitCritical>

    return xReturn;
    8000163a:	67e2                	ld	a5,24(sp)
}
    8000163c:	853e                	mv	a0,a5
    8000163e:	70a2                	ld	ra,40(sp)
    80001640:	6145                	addi	sp,sp,48
    80001642:	8082                	ret

0000000080001644 <xQueueIsQueueEmptyFromISR>:
/*-----------------------------------------------------------*/

BaseType_t xQueueIsQueueEmptyFromISR( const QueueHandle_t xQueue )
{
    80001644:	1101                	addi	sp,sp,-32
    80001646:	e42a                	sd	a0,8(sp)
    BaseType_t xReturn;
    Queue_t * const pxQueue = xQueue;
    80001648:	67a2                	ld	a5,8(sp)
    8000164a:	e83e                	sd	a5,16(sp)

    configASSERT( pxQueue );
    8000164c:	67c2                	ld	a5,16(sp)
    8000164e:	e781                	bnez	a5,80001656 <xQueueIsQueueEmptyFromISR+0x12>
    80001650:	30047073          	csrci	mstatus,8
    80001654:	a001                	j	80001654 <xQueueIsQueueEmptyFromISR+0x10>

    if( pxQueue->uxMessagesWaiting == ( UBaseType_t ) 0 )
    80001656:	67c2                	ld	a5,16(sp)
    80001658:	7bbc                	ld	a5,112(a5)
    8000165a:	e781                	bnez	a5,80001662 <xQueueIsQueueEmptyFromISR+0x1e>
    {
        xReturn = pdTRUE;
    8000165c:	4785                	li	a5,1
    8000165e:	ec3e                	sd	a5,24(sp)
    80001660:	a011                	j	80001664 <xQueueIsQueueEmptyFromISR+0x20>
    }
    else
    {
        xReturn = pdFALSE;
    80001662:	ec02                	sd	zero,24(sp)
    }

    return xReturn;
    80001664:	67e2                	ld	a5,24(sp)
} /*lint !e818 xQueue could not be pointer to const because it is a typedef. */
    80001666:	853e                	mv	a0,a5
    80001668:	6105                	addi	sp,sp,32
    8000166a:	8082                	ret

000000008000166c <prvIsQueueFull>:
/*-----------------------------------------------------------*/

static BaseType_t prvIsQueueFull( const Queue_t * pxQueue )
{
    8000166c:	7179                	addi	sp,sp,-48
    8000166e:	f406                	sd	ra,40(sp)
    80001670:	e42a                	sd	a0,8(sp)
    BaseType_t xReturn;

    taskENTER_CRITICAL();
    80001672:	55b010ef          	jal	ra,800033cc <vTaskEnterCritical>
    {
        if( pxQueue->uxMessagesWaiting == pxQueue->uxLength )
    80001676:	67a2                	ld	a5,8(sp)
    80001678:	7bb8                	ld	a4,112(a5)
    8000167a:	67a2                	ld	a5,8(sp)
    8000167c:	7fbc                	ld	a5,120(a5)
    8000167e:	00f71563          	bne	a4,a5,80001688 <prvIsQueueFull+0x1c>
        {
            xReturn = pdTRUE;
    80001682:	4785                	li	a5,1
    80001684:	ec3e                	sd	a5,24(sp)
    80001686:	a011                	j	8000168a <prvIsQueueFull+0x1e>
        }
        else
        {
            xReturn = pdFALSE;
    80001688:	ec02                	sd	zero,24(sp)
        }
    }
    taskEXIT_CRITICAL();
    8000168a:	571010ef          	jal	ra,800033fa <vTaskExitCritical>

    return xReturn;
    8000168e:	67e2                	ld	a5,24(sp)
}
    80001690:	853e                	mv	a0,a5
    80001692:	70a2                	ld	ra,40(sp)
    80001694:	6145                	addi	sp,sp,48
    80001696:	8082                	ret

0000000080001698 <xQueueIsQueueFullFromISR>:
/*-----------------------------------------------------------*/

BaseType_t xQueueIsQueueFullFromISR( const QueueHandle_t xQueue )
{
    80001698:	1101                	addi	sp,sp,-32
    8000169a:	e42a                	sd	a0,8(sp)
    BaseType_t xReturn;
    Queue_t * const pxQueue = xQueue;
    8000169c:	67a2                	ld	a5,8(sp)
    8000169e:	e83e                	sd	a5,16(sp)

    configASSERT( pxQueue );
    800016a0:	67c2                	ld	a5,16(sp)
    800016a2:	e781                	bnez	a5,800016aa <xQueueIsQueueFullFromISR+0x12>
    800016a4:	30047073          	csrci	mstatus,8
    800016a8:	a001                	j	800016a8 <xQueueIsQueueFullFromISR+0x10>

    if( pxQueue->uxMessagesWaiting == pxQueue->uxLength )
    800016aa:	67c2                	ld	a5,16(sp)
    800016ac:	7bb8                	ld	a4,112(a5)
    800016ae:	67c2                	ld	a5,16(sp)
    800016b0:	7fbc                	ld	a5,120(a5)
    800016b2:	00f71563          	bne	a4,a5,800016bc <xQueueIsQueueFullFromISR+0x24>
    {
        xReturn = pdTRUE;
    800016b6:	4785                	li	a5,1
    800016b8:	ec3e                	sd	a5,24(sp)
    800016ba:	a011                	j	800016be <xQueueIsQueueFullFromISR+0x26>
    }
    else
    {
        xReturn = pdFALSE;
    800016bc:	ec02                	sd	zero,24(sp)
    }

    return xReturn;
    800016be:	67e2                	ld	a5,24(sp)
} /*lint !e818 xQueue could not be pointer to const because it is a typedef. */
    800016c0:	853e                	mv	a0,a5
    800016c2:	6105                	addi	sp,sp,32
    800016c4:	8082                	ret

00000000800016c6 <vQueueAddToRegistry>:

#if ( configQUEUE_REGISTRY_SIZE > 0 )

    void vQueueAddToRegistry( QueueHandle_t xQueue,
                              const char * pcQueueName ) /*lint !e971 Unqualified char types are allowed for strings and single characters only. */
    {
    800016c6:	1101                	addi	sp,sp,-32
    800016c8:	e42a                	sd	a0,8(sp)
    800016ca:	e02e                	sd	a1,0(sp)
        UBaseType_t ux;

        /* See if there is an empty space in the registry.  A NULL name denotes
         * a free slot. */
        for( ux = ( UBaseType_t ) 0U; ux < ( UBaseType_t ) configQUEUE_REGISTRY_SIZE; ux++ )
    800016cc:	ec02                	sd	zero,24(sp)
    800016ce:	a081                	j	8000170e <vQueueAddToRegistry+0x48>
        {
            if( xQueueRegistry[ ux ].pcQueueName == NULL )
    800016d0:	00105717          	auipc	a4,0x105
    800016d4:	71070713          	addi	a4,a4,1808 # 80106de0 <xQueueRegistry>
    800016d8:	67e2                	ld	a5,24(sp)
    800016da:	0792                	slli	a5,a5,0x4
    800016dc:	97ba                	add	a5,a5,a4
    800016de:	639c                	ld	a5,0(a5)
    800016e0:	e785                	bnez	a5,80001708 <vQueueAddToRegistry+0x42>
            {
                /* Store the information on this queue. */
                xQueueRegistry[ ux ].pcQueueName = pcQueueName;
    800016e2:	00105717          	auipc	a4,0x105
    800016e6:	6fe70713          	addi	a4,a4,1790 # 80106de0 <xQueueRegistry>
    800016ea:	67e2                	ld	a5,24(sp)
    800016ec:	0792                	slli	a5,a5,0x4
    800016ee:	97ba                	add	a5,a5,a4
    800016f0:	6702                	ld	a4,0(sp)
    800016f2:	e398                	sd	a4,0(a5)
                xQueueRegistry[ ux ].xHandle = xQueue;
    800016f4:	00105717          	auipc	a4,0x105
    800016f8:	6ec70713          	addi	a4,a4,1772 # 80106de0 <xQueueRegistry>
    800016fc:	67e2                	ld	a5,24(sp)
    800016fe:	0792                	slli	a5,a5,0x4
    80001700:	97ba                	add	a5,a5,a4
    80001702:	6722                	ld	a4,8(sp)
    80001704:	e798                	sd	a4,8(a5)

                traceQUEUE_REGISTRY_ADD( xQueue, pcQueueName );
                break;
    80001706:	a809                	j	80001718 <vQueueAddToRegistry+0x52>
        for( ux = ( UBaseType_t ) 0U; ux < ( UBaseType_t ) configQUEUE_REGISTRY_SIZE; ux++ )
    80001708:	67e2                	ld	a5,24(sp)
    8000170a:	0785                	addi	a5,a5,1
    8000170c:	ec3e                	sd	a5,24(sp)
    8000170e:	6762                	ld	a4,24(sp)
    80001710:	479d                	li	a5,7
    80001712:	fae7ffe3          	bgeu	a5,a4,800016d0 <vQueueAddToRegistry+0xa>
            else
            {
                mtCOVERAGE_TEST_MARKER();
            }
        }
    }
    80001716:	0001                	nop
    80001718:	0001                	nop
    8000171a:	6105                	addi	sp,sp,32
    8000171c:	8082                	ret

000000008000171e <pcQueueGetName>:
/*-----------------------------------------------------------*/

#if ( configQUEUE_REGISTRY_SIZE > 0 )

    const char * pcQueueGetName( QueueHandle_t xQueue ) /*lint !e971 Unqualified char types are allowed for strings and single characters only. */
    {
    8000171e:	1101                	addi	sp,sp,-32
    80001720:	e42a                	sd	a0,8(sp)
        UBaseType_t ux;
        const char * pcReturn = NULL; /*lint !e971 Unqualified char types are allowed for strings and single characters only. */
    80001722:	e802                	sd	zero,16(sp)

        /* Note there is nothing here to protect against another task adding or
         * removing entries from the registry while it is being searched. */

        for( ux = ( UBaseType_t ) 0U; ux < ( UBaseType_t ) configQUEUE_REGISTRY_SIZE; ux++ )
    80001724:	ec02                	sd	zero,24(sp)
    80001726:	a80d                	j	80001758 <pcQueueGetName+0x3a>
        {
            if( xQueueRegistry[ ux ].xHandle == xQueue )
    80001728:	00105717          	auipc	a4,0x105
    8000172c:	6b870713          	addi	a4,a4,1720 # 80106de0 <xQueueRegistry>
    80001730:	67e2                	ld	a5,24(sp)
    80001732:	0792                	slli	a5,a5,0x4
    80001734:	97ba                	add	a5,a5,a4
    80001736:	679c                	ld	a5,8(a5)
    80001738:	6722                	ld	a4,8(sp)
    8000173a:	00f71c63          	bne	a4,a5,80001752 <pcQueueGetName+0x34>
            {
                pcReturn = xQueueRegistry[ ux ].pcQueueName;
    8000173e:	00105717          	auipc	a4,0x105
    80001742:	6a270713          	addi	a4,a4,1698 # 80106de0 <xQueueRegistry>
    80001746:	67e2                	ld	a5,24(sp)
    80001748:	0792                	slli	a5,a5,0x4
    8000174a:	97ba                	add	a5,a5,a4
    8000174c:	639c                	ld	a5,0(a5)
    8000174e:	e83e                	sd	a5,16(sp)
                break;
    80001750:	a801                	j	80001760 <pcQueueGetName+0x42>
        for( ux = ( UBaseType_t ) 0U; ux < ( UBaseType_t ) configQUEUE_REGISTRY_SIZE; ux++ )
    80001752:	67e2                	ld	a5,24(sp)
    80001754:	0785                	addi	a5,a5,1
    80001756:	ec3e                	sd	a5,24(sp)
    80001758:	6762                	ld	a4,24(sp)
    8000175a:	479d                	li	a5,7
    8000175c:	fce7f6e3          	bgeu	a5,a4,80001728 <pcQueueGetName+0xa>
            {
                mtCOVERAGE_TEST_MARKER();
            }
        }

        return pcReturn;
    80001760:	67c2                	ld	a5,16(sp)
    } /*lint !e818 xQueue cannot be a pointer to const because it is a typedef. */
    80001762:	853e                	mv	a0,a5
    80001764:	6105                	addi	sp,sp,32
    80001766:	8082                	ret

0000000080001768 <vQueueUnregisterQueue>:
/*-----------------------------------------------------------*/

#if ( configQUEUE_REGISTRY_SIZE > 0 )

    void vQueueUnregisterQueue( QueueHandle_t xQueue )
    {
    80001768:	1101                	addi	sp,sp,-32
    8000176a:	e42a                	sd	a0,8(sp)
        UBaseType_t ux;

        /* See if the handle of the queue being unregistered in actually in the
         * registry. */
        for( ux = ( UBaseType_t ) 0U; ux < ( UBaseType_t ) configQUEUE_REGISTRY_SIZE; ux++ )
    8000176c:	ec02                	sd	zero,24(sp)
    8000176e:	a091                	j	800017b2 <vQueueUnregisterQueue+0x4a>
        {
            if( xQueueRegistry[ ux ].xHandle == xQueue )
    80001770:	00105717          	auipc	a4,0x105
    80001774:	67070713          	addi	a4,a4,1648 # 80106de0 <xQueueRegistry>
    80001778:	67e2                	ld	a5,24(sp)
    8000177a:	0792                	slli	a5,a5,0x4
    8000177c:	97ba                	add	a5,a5,a4
    8000177e:	679c                	ld	a5,8(a5)
    80001780:	6722                	ld	a4,8(sp)
    80001782:	02f71563          	bne	a4,a5,800017ac <vQueueUnregisterQueue+0x44>
            {
                /* Set the name to NULL to show that this slot if free again. */
                xQueueRegistry[ ux ].pcQueueName = NULL;
    80001786:	00105717          	auipc	a4,0x105
    8000178a:	65a70713          	addi	a4,a4,1626 # 80106de0 <xQueueRegistry>
    8000178e:	67e2                	ld	a5,24(sp)
    80001790:	0792                	slli	a5,a5,0x4
    80001792:	97ba                	add	a5,a5,a4
    80001794:	0007b023          	sd	zero,0(a5)

                /* Set the handle to NULL to ensure the same queue handle cannot
                 * appear in the registry twice if it is added, removed, then
                 * added again. */
                xQueueRegistry[ ux ].xHandle = ( QueueHandle_t ) 0;
    80001798:	00105717          	auipc	a4,0x105
    8000179c:	64870713          	addi	a4,a4,1608 # 80106de0 <xQueueRegistry>
    800017a0:	67e2                	ld	a5,24(sp)
    800017a2:	0792                	slli	a5,a5,0x4
    800017a4:	97ba                	add	a5,a5,a4
    800017a6:	0007b423          	sd	zero,8(a5)
                break;
    800017aa:	a809                	j	800017bc <vQueueUnregisterQueue+0x54>
        for( ux = ( UBaseType_t ) 0U; ux < ( UBaseType_t ) configQUEUE_REGISTRY_SIZE; ux++ )
    800017ac:	67e2                	ld	a5,24(sp)
    800017ae:	0785                	addi	a5,a5,1
    800017b0:	ec3e                	sd	a5,24(sp)
    800017b2:	6762                	ld	a4,24(sp)
    800017b4:	479d                	li	a5,7
    800017b6:	fae7fde3          	bgeu	a5,a4,80001770 <vQueueUnregisterQueue+0x8>
            else
            {
                mtCOVERAGE_TEST_MARKER();
            }
        }
    } /*lint !e818 xQueue could not be pointer to const because it is a typedef. */
    800017ba:	0001                	nop
    800017bc:	0001                	nop
    800017be:	6105                	addi	sp,sp,32
    800017c0:	8082                	ret

00000000800017c2 <vQueueWaitForMessageRestricted>:
#if ( configUSE_TIMERS == 1 )

    void vQueueWaitForMessageRestricted( QueueHandle_t xQueue,
                                         TickType_t xTicksToWait,
                                         const BaseType_t xWaitIndefinitely )
    {
    800017c2:	7139                	addi	sp,sp,-64
    800017c4:	fc06                	sd	ra,56(sp)
    800017c6:	ec2a                	sd	a0,24(sp)
    800017c8:	e82e                	sd	a1,16(sp)
    800017ca:	e432                	sd	a2,8(sp)
        Queue_t * const pxQueue = xQueue;
    800017cc:	67e2                	ld	a5,24(sp)
    800017ce:	f43e                	sd	a5,40(sp)
         *  will not actually cause the task to block, just place it on a blocked
         *  list.  It will not block until the scheduler is unlocked - at which
         *  time a yield will be performed.  If an item is added to the queue while
         *  the queue is locked, and the calling task blocks on the queue, then the
         *  calling task will be immediately unblocked when the queue is unlocked. */
        prvLockQueue( pxQueue );
    800017d0:	3fd010ef          	jal	ra,800033cc <vTaskEnterCritical>
    800017d4:	77a2                	ld	a5,40(sp)
    800017d6:	0887c783          	lbu	a5,136(a5)
    800017da:	0187979b          	slliw	a5,a5,0x18
    800017de:	4187d79b          	sraiw	a5,a5,0x18
    800017e2:	873e                	mv	a4,a5
    800017e4:	57fd                	li	a5,-1
    800017e6:	00f71563          	bne	a4,a5,800017f0 <vQueueWaitForMessageRestricted+0x2e>
    800017ea:	77a2                	ld	a5,40(sp)
    800017ec:	08078423          	sb	zero,136(a5)
    800017f0:	77a2                	ld	a5,40(sp)
    800017f2:	0897c783          	lbu	a5,137(a5)
    800017f6:	0187979b          	slliw	a5,a5,0x18
    800017fa:	4187d79b          	sraiw	a5,a5,0x18
    800017fe:	873e                	mv	a4,a5
    80001800:	57fd                	li	a5,-1
    80001802:	00f71563          	bne	a4,a5,8000180c <vQueueWaitForMessageRestricted+0x4a>
    80001806:	77a2                	ld	a5,40(sp)
    80001808:	080784a3          	sb	zero,137(a5)
    8000180c:	3ef010ef          	jal	ra,800033fa <vTaskExitCritical>

        if( pxQueue->uxMessagesWaiting == ( UBaseType_t ) 0U )
    80001810:	77a2                	ld	a5,40(sp)
    80001812:	7bbc                	ld	a5,112(a5)
    80001814:	eb89                	bnez	a5,80001826 <vQueueWaitForMessageRestricted+0x64>
        {
            /* There is nothing in the queue, block for the specified period. */
            vTaskPlaceOnEventListRestricted( &( pxQueue->xTasksWaitingToReceive ), xTicksToWait, xWaitIndefinitely );
    80001816:	77a2                	ld	a5,40(sp)
    80001818:	04878793          	addi	a5,a5,72
    8000181c:	6622                	ld	a2,8(sp)
    8000181e:	65c2                	ld	a1,16(sp)
    80001820:	853e                	mv	a0,a5
    80001822:	1e4010ef          	jal	ra,80002a06 <vTaskPlaceOnEventListRestricted>
        else
        {
            mtCOVERAGE_TEST_MARKER();
        }

        prvUnlockQueue( pxQueue );
    80001826:	7522                	ld	a0,40(sp)
    80001828:	d39ff0ef          	jal	ra,80001560 <prvUnlockQueue>
    }
    8000182c:	0001                	nop
    8000182e:	70e2                	ld	ra,56(sp)
    80001830:	6121                	addi	sp,sp,64
    80001832:	8082                	ret

0000000080001834 <xTaskCreate>:
                            const char * const pcName, /*lint !e971 Unqualified char types are allowed for strings and single characters only. */
                            const configSTACK_DEPTH_TYPE usStackDepth,
                            void * const pvParameters,
                            UBaseType_t uxPriority,
                            TaskHandle_t * const pxCreatedTask )
    {
    80001834:	711d                	addi	sp,sp,-96
    80001836:	ec86                	sd	ra,88(sp)
    80001838:	f42a                	sd	a0,40(sp)
    8000183a:	f02e                	sd	a1,32(sp)
    8000183c:	e836                	sd	a3,16(sp)
    8000183e:	e43a                	sd	a4,8(sp)
    80001840:	e03e                	sd	a5,0(sp)
    80001842:	87b2                	mv	a5,a2
    80001844:	00f11f23          	sh	a5,30(sp)
        #else /* portSTACK_GROWTH */
            {
                StackType_t * pxStack;

                /* Allocate space for the stack used by the task being created. */
                pxStack = pvPortMalloc( ( ( ( size_t ) usStackDepth ) * sizeof( StackType_t ) ) ); /*lint !e9079 All values returned by pvPortMalloc() have at least the alignment required by the MCU's stack and this allocation is the stack. */
    80001848:	01e15783          	lhu	a5,30(sp)
    8000184c:	078e                	slli	a5,a5,0x3
    8000184e:	853e                	mv	a0,a5
    80001850:	210030ef          	jal	ra,80004a60 <pvPortMalloc>
    80001854:	fc2a                	sd	a0,56(sp)

                if( pxStack != NULL )
    80001856:	77e2                	ld	a5,56(sp)
    80001858:	c385                	beqz	a5,80001878 <xTaskCreate+0x44>
                {
                    /* Allocate space for the TCB. */
                    pxNewTCB = ( TCB_t * ) pvPortMalloc( sizeof( TCB_t ) ); /*lint !e9087 !e9079 All values returned by pvPortMalloc() have at least the alignment required by the MCU's stack, and the first member of TCB_t is always a pointer to the task's stack. */
    8000185a:	0a800513          	li	a0,168
    8000185e:	202030ef          	jal	ra,80004a60 <pvPortMalloc>
    80001862:	e4aa                	sd	a0,72(sp)

                    if( pxNewTCB != NULL )
    80001864:	67a6                	ld	a5,72(sp)
    80001866:	c789                	beqz	a5,80001870 <xTaskCreate+0x3c>
                    {
                        /* Store the stack location in the TCB. */
                        pxNewTCB->pxStack = pxStack;
    80001868:	67a6                	ld	a5,72(sp)
    8000186a:	7762                	ld	a4,56(sp)
    8000186c:	f3b8                	sd	a4,96(a5)
    8000186e:	a031                	j	8000187a <xTaskCreate+0x46>
                    }
                    else
                    {
                        /* The stack cannot be used as the TCB was not created.  Free
                         * it again. */
                        vPortFree( pxStack );
    80001870:	7562                	ld	a0,56(sp)
    80001872:	320030ef          	jal	ra,80004b92 <vPortFree>
    80001876:	a011                	j	8000187a <xTaskCreate+0x46>
                    }
                }
                else
                {
                    pxNewTCB = NULL;
    80001878:	e482                	sd	zero,72(sp)
                }
            }
        #endif /* portSTACK_GROWTH */

        if( pxNewTCB != NULL )
    8000187a:	67a6                	ld	a5,72(sp)
    8000187c:	c785                	beqz	a5,800018a4 <xTaskCreate+0x70>
                     * task was created dynamically in case it is later deleted. */
                    pxNewTCB->ucStaticallyAllocated = tskDYNAMICALLY_ALLOCATED_STACK_AND_TCB;
                }
            #endif /* tskSTATIC_AND_DYNAMIC_ALLOCATION_POSSIBLE */

            prvInitialiseNewTask( pxTaskCode, pcName, ( uint32_t ) usStackDepth, pvParameters, uxPriority, pxCreatedTask, pxNewTCB, NULL );
    8000187e:	01e15783          	lhu	a5,30(sp)
    80001882:	0007861b          	sext.w	a2,a5
    80001886:	4881                	li	a7,0
    80001888:	6826                	ld	a6,72(sp)
    8000188a:	6782                	ld	a5,0(sp)
    8000188c:	6722                	ld	a4,8(sp)
    8000188e:	66c2                	ld	a3,16(sp)
    80001890:	7582                	ld	a1,32(sp)
    80001892:	7522                	ld	a0,40(sp)
    80001894:	01e000ef          	jal	ra,800018b2 <prvInitialiseNewTask>
            prvAddNewTaskToReadyList( pxNewTCB );
    80001898:	6526                	ld	a0,72(sp)
    8000189a:	144000ef          	jal	ra,800019de <prvAddNewTaskToReadyList>
            xReturn = pdPASS;
    8000189e:	4785                	li	a5,1
    800018a0:	e0be                	sd	a5,64(sp)
    800018a2:	a019                	j	800018a8 <xTaskCreate+0x74>
        }
        else
        {
            xReturn = errCOULD_NOT_ALLOCATE_REQUIRED_MEMORY;
    800018a4:	57fd                	li	a5,-1
    800018a6:	e0be                	sd	a5,64(sp)
        }

        return xReturn;
    800018a8:	6786                	ld	a5,64(sp)
    }
    800018aa:	853e                	mv	a0,a5
    800018ac:	60e6                	ld	ra,88(sp)
    800018ae:	6125                	addi	sp,sp,96
    800018b0:	8082                	ret

00000000800018b2 <prvInitialiseNewTask>:
                                  void * const pvParameters,
                                  UBaseType_t uxPriority,
                                  TaskHandle_t * const pxCreatedTask,
                                  TCB_t * pxNewTCB,
                                  const MemoryRegion_t * const xRegions )
{
    800018b2:	711d                	addi	sp,sp,-96
    800018b4:	ec86                	sd	ra,88(sp)
    800018b6:	fc2a                	sd	a0,56(sp)
    800018b8:	f82e                	sd	a1,48(sp)
    800018ba:	f036                	sd	a3,32(sp)
    800018bc:	ec3a                	sd	a4,24(sp)
    800018be:	e83e                	sd	a5,16(sp)
    800018c0:	e442                	sd	a6,8(sp)
    800018c2:	e046                	sd	a7,0(sp)
    800018c4:	87b2                	mv	a5,a2
    800018c6:	d63e                	sw	a5,44(sp)

    /* Avoid dependency on memset() if it is not required. */
    #if ( tskSET_NEW_STACKS_TO_KNOWN_VALUE == 1 )
        {
            /* Fill the stack with a known value to assist debugging. */
            ( void ) memset( pxNewTCB->pxStack, ( int ) tskSTACK_FILL_BYTE, ( size_t ) ulStackDepth * sizeof( StackType_t ) );
    800018c8:	67a2                	ld	a5,8(sp)
    800018ca:	73b8                	ld	a4,96(a5)
    800018cc:	02c16783          	lwu	a5,44(sp)
    800018d0:	078e                	slli	a5,a5,0x3
    800018d2:	863e                	mv	a2,a5
    800018d4:	0a500593          	li	a1,165
    800018d8:	853a                	mv	a0,a4
    800018da:	45d060ef          	jal	ra,80008536 <memset>
     * grows from high memory to low (as per the 80x86) or vice versa.
     * portSTACK_GROWTH is used to make the result positive or negative as required
     * by the port. */
    #if ( portSTACK_GROWTH < 0 )
        {
            pxTopOfStack = &( pxNewTCB->pxStack[ ulStackDepth - ( uint32_t ) 1 ] );
    800018de:	67a2                	ld	a5,8(sp)
    800018e0:	73b8                	ld	a4,96(a5)
    800018e2:	57b2                	lw	a5,44(sp)
    800018e4:	37fd                	addiw	a5,a5,-1
    800018e6:	2781                	sext.w	a5,a5
    800018e8:	1782                	slli	a5,a5,0x20
    800018ea:	9381                	srli	a5,a5,0x20
    800018ec:	078e                	slli	a5,a5,0x3
    800018ee:	97ba                	add	a5,a5,a4
    800018f0:	e0be                	sd	a5,64(sp)
            pxTopOfStack = ( StackType_t * ) ( ( ( portPOINTER_SIZE_TYPE ) pxTopOfStack ) & ( ~( ( portPOINTER_SIZE_TYPE ) portBYTE_ALIGNMENT_MASK ) ) ); /*lint !e923 !e9033 !e9078 MISRA exception.  Avoiding casts between pointers and integers is not practical.  Size differences accounted for using portPOINTER_SIZE_TYPE type.  Checked by assert(). */
    800018f2:	6786                	ld	a5,64(sp)
    800018f4:	9bc1                	andi	a5,a5,-16
    800018f6:	e0be                	sd	a5,64(sp)

            /* Check the alignment of the calculated top of stack is correct. */
            configASSERT( ( ( ( portPOINTER_SIZE_TYPE ) pxTopOfStack & ( portPOINTER_SIZE_TYPE ) portBYTE_ALIGNMENT_MASK ) == 0UL ) );
    800018f8:	6786                	ld	a5,64(sp)
    800018fa:	8bbd                	andi	a5,a5,15
    800018fc:	c781                	beqz	a5,80001904 <prvInitialiseNewTask+0x52>
    800018fe:	30047073          	csrci	mstatus,8
    80001902:	a001                	j	80001902 <prvInitialiseNewTask+0x50>
            pxNewTCB->pxEndOfStack = pxNewTCB->pxStack + ( ulStackDepth - ( uint32_t ) 1 );
        }
    #endif /* portSTACK_GROWTH */

    /* Store the task name in the TCB. */
    if( pcName != NULL )
    80001904:	77c2                	ld	a5,48(sp)
    80001906:	c3a1                	beqz	a5,80001946 <prvInitialiseNewTask+0x94>
    {
        for( x = ( UBaseType_t ) 0; x < ( UBaseType_t ) configMAX_TASK_NAME_LEN; x++ )
    80001908:	e482                	sd	zero,72(sp)
    8000190a:	a025                	j	80001932 <prvInitialiseNewTask+0x80>
        {
            pxNewTCB->pcTaskName[ x ] = pcName[ x ];
    8000190c:	7742                	ld	a4,48(sp)
    8000190e:	67a6                	ld	a5,72(sp)
    80001910:	97ba                	add	a5,a5,a4
    80001912:	0007c703          	lbu	a4,0(a5)
    80001916:	66a2                	ld	a3,8(sp)
    80001918:	67a6                	ld	a5,72(sp)
    8000191a:	97b6                	add	a5,a5,a3
    8000191c:	06e78423          	sb	a4,104(a5)

            /* Don't copy all configMAX_TASK_NAME_LEN if the string is shorter than
             * configMAX_TASK_NAME_LEN characters just in case the memory after the
             * string is not accessible (extremely unlikely). */
            if( pcName[ x ] == ( char ) 0x00 )
    80001920:	7742                	ld	a4,48(sp)
    80001922:	67a6                	ld	a5,72(sp)
    80001924:	97ba                	add	a5,a5,a4
    80001926:	0007c783          	lbu	a5,0(a5)
    8000192a:	cb89                	beqz	a5,8000193c <prvInitialiseNewTask+0x8a>
        for( x = ( UBaseType_t ) 0; x < ( UBaseType_t ) configMAX_TASK_NAME_LEN; x++ )
    8000192c:	67a6                	ld	a5,72(sp)
    8000192e:	0785                	addi	a5,a5,1
    80001930:	e4be                	sd	a5,72(sp)
    80001932:	6726                	ld	a4,72(sp)
    80001934:	47bd                	li	a5,15
    80001936:	fce7fbe3          	bgeu	a5,a4,8000190c <prvInitialiseNewTask+0x5a>
    8000193a:	a011                	j	8000193e <prvInitialiseNewTask+0x8c>
            {
                break;
    8000193c:	0001                	nop
            }
        }

        /* Ensure the name string is terminated in the case that the string length
         * was greater or equal to configMAX_TASK_NAME_LEN. */
        pxNewTCB->pcTaskName[ configMAX_TASK_NAME_LEN - 1 ] = '\0';
    8000193e:	67a2                	ld	a5,8(sp)
    80001940:	06078ba3          	sb	zero,119(a5)
    80001944:	a021                	j	8000194c <prvInitialiseNewTask+0x9a>
    }
    else
    {
        /* The task has not been given a name, so just ensure there is a NULL
         * terminator when it is read out. */
        pxNewTCB->pcTaskName[ 0 ] = 0x00;
    80001946:	67a2                	ld	a5,8(sp)
    80001948:	06078423          	sb	zero,104(a5)
    }

    /* This is used as an array index so must ensure it's not too large.  First
     * remove the privilege bit if one is present. */
    if( uxPriority >= ( UBaseType_t ) configMAX_PRIORITIES )
    8000194c:	6762                	ld	a4,24(sp)
    8000194e:	4791                	li	a5,4
    80001950:	00e7f463          	bgeu	a5,a4,80001958 <prvInitialiseNewTask+0xa6>
    {
        uxPriority = ( UBaseType_t ) configMAX_PRIORITIES - ( UBaseType_t ) 1U;
    80001954:	4791                	li	a5,4
    80001956:	ec3e                	sd	a5,24(sp)
    else
    {
        mtCOVERAGE_TEST_MARKER();
    }

    pxNewTCB->uxPriority = uxPriority;
    80001958:	67a2                	ld	a5,8(sp)
    8000195a:	6762                	ld	a4,24(sp)
    8000195c:	efb8                	sd	a4,88(a5)
    #if ( configUSE_MUTEXES == 1 )
        {
            pxNewTCB->uxBasePriority = uxPriority;
    8000195e:	67a2                	ld	a5,8(sp)
    80001960:	6762                	ld	a4,24(sp)
    80001962:	ebd8                	sd	a4,144(a5)
            pxNewTCB->uxMutexesHeld = 0;
    80001964:	67a2                	ld	a5,8(sp)
    80001966:	0807bc23          	sd	zero,152(a5)
        }
    #endif /* configUSE_MUTEXES */

    vListInitialiseItem( &( pxNewTCB->xStateListItem ) );
    8000196a:	67a2                	ld	a5,8(sp)
    8000196c:	07a1                	addi	a5,a5,8
    8000196e:	853e                	mv	a0,a5
    80001970:	d35fe0ef          	jal	ra,800006a4 <vListInitialiseItem>
    vListInitialiseItem( &( pxNewTCB->xEventListItem ) );
    80001974:	67a2                	ld	a5,8(sp)
    80001976:	03078793          	addi	a5,a5,48
    8000197a:	853e                	mv	a0,a5
    8000197c:	d29fe0ef          	jal	ra,800006a4 <vListInitialiseItem>

    /* Set the pxNewTCB as a link back from the ListItem_t.  This is so we can get
     * back to  the containing TCB from a generic item in a list. */
    listSET_LIST_ITEM_OWNER( &( pxNewTCB->xStateListItem ), pxNewTCB );
    80001980:	67a2                	ld	a5,8(sp)
    80001982:	6722                	ld	a4,8(sp)
    80001984:	f398                	sd	a4,32(a5)

    /* Event lists are always in priority order. */
    listSET_LIST_ITEM_VALUE( &( pxNewTCB->xEventListItem ), ( TickType_t ) configMAX_PRIORITIES - ( TickType_t ) uxPriority ); /*lint !e961 MISRA exception as the casts are only redundant for some ports. */
    80001986:	4715                	li	a4,5
    80001988:	67e2                	ld	a5,24(sp)
    8000198a:	8f1d                	sub	a4,a4,a5
    8000198c:	67a2                	ld	a5,8(sp)
    8000198e:	fb98                	sd	a4,48(a5)
    listSET_LIST_ITEM_OWNER( &( pxNewTCB->xEventListItem ), pxNewTCB );
    80001990:	67a2                	ld	a5,8(sp)
    80001992:	6722                	ld	a4,8(sp)
    80001994:	e7b8                	sd	a4,72(a5)

    #if ( portCRITICAL_NESTING_IN_TCB == 1 )
        {
            pxNewTCB->uxCriticalNesting = ( UBaseType_t ) 0U;
    80001996:	67a2                	ld	a5,8(sp)
    80001998:	0607bc23          	sd	zero,120(a5)
        }
    #endif

    #if ( configUSE_TASK_NOTIFICATIONS == 1 )
        {
            memset( ( void * ) &( pxNewTCB->ulNotifiedValue[ 0 ] ), 0x00, sizeof( pxNewTCB->ulNotifiedValue ) );
    8000199c:	67a2                	ld	a5,8(sp)
    8000199e:	0a078793          	addi	a5,a5,160
    800019a2:	4611                	li	a2,4
    800019a4:	4581                	li	a1,0
    800019a6:	853e                	mv	a0,a5
    800019a8:	38f060ef          	jal	ra,80008536 <memset>
            memset( ( void * ) &( pxNewTCB->ucNotifyState[ 0 ] ), 0x00, sizeof( pxNewTCB->ucNotifyState ) );
    800019ac:	67a2                	ld	a5,8(sp)
    800019ae:	0a478793          	addi	a5,a5,164
    800019b2:	4605                	li	a2,1
    800019b4:	4581                	li	a1,0
    800019b6:	853e                	mv	a0,a5
    800019b8:	37f060ef          	jal	ra,80008536 <memset>
                        }
                    #endif /* portSTACK_GROWTH */
                }
            #else /* portHAS_STACK_OVERFLOW_CHECKING */
                {
                    pxNewTCB->pxTopOfStack = pxPortInitialiseStack( pxTopOfStack, pxTaskCode, pvParameters );
    800019bc:	7602                	ld	a2,32(sp)
    800019be:	75e2                	ld	a1,56(sp)
    800019c0:	6506                	ld	a0,64(sp)
    800019c2:	c3ffe0ef          	jal	ra,80000600 <pxPortInitialiseStack>
    800019c6:	872a                	mv	a4,a0
    800019c8:	67a2                	ld	a5,8(sp)
    800019ca:	e398                	sd	a4,0(a5)
                }
            #endif /* portHAS_STACK_OVERFLOW_CHECKING */
        }
    #endif /* portUSING_MPU_WRAPPERS */

    if( pxCreatedTask != NULL )
    800019cc:	67c2                	ld	a5,16(sp)
    800019ce:	c781                	beqz	a5,800019d6 <prvInitialiseNewTask+0x124>
    {
        /* Pass the handle out in an anonymous way.  The handle can be used to
         * change the created task's priority, delete the created task, etc.*/
        *pxCreatedTask = ( TaskHandle_t ) pxNewTCB;
    800019d0:	67c2                	ld	a5,16(sp)
    800019d2:	6722                	ld	a4,8(sp)
    800019d4:	e398                	sd	a4,0(a5)
    }
    else
    {
        mtCOVERAGE_TEST_MARKER();
    }
}
    800019d6:	0001                	nop
    800019d8:	60e6                	ld	ra,88(sp)
    800019da:	6125                	addi	sp,sp,96
    800019dc:	8082                	ret

00000000800019de <prvAddNewTaskToReadyList>:
/*-----------------------------------------------------------*/

static void prvAddNewTaskToReadyList( TCB_t * pxNewTCB )
{
    800019de:	1101                	addi	sp,sp,-32
    800019e0:	ec06                	sd	ra,24(sp)
    800019e2:	e42a                	sd	a0,8(sp)
    /* Ensure interrupts don't access the task lists while the lists are being
     * updated. */
    taskENTER_CRITICAL();
    800019e4:	1e9010ef          	jal	ra,800033cc <vTaskEnterCritical>
    {
        uxCurrentNumberOfTasks++;
    800019e8:	0000b797          	auipc	a5,0xb
    800019ec:	30078793          	addi	a5,a5,768 # 8000cce8 <uxCurrentNumberOfTasks>
    800019f0:	639c                	ld	a5,0(a5)
    800019f2:	00178713          	addi	a4,a5,1
    800019f6:	0000b797          	auipc	a5,0xb
    800019fa:	2f278793          	addi	a5,a5,754 # 8000cce8 <uxCurrentNumberOfTasks>
    800019fe:	e398                	sd	a4,0(a5)

        if( pxCurrentTCB == NULL )
    80001a00:	00009797          	auipc	a5,0x9
    80001a04:	1d078793          	addi	a5,a5,464 # 8000abd0 <pxCurrentTCB>
    80001a08:	639c                	ld	a5,0(a5)
    80001a0a:	e395                	bnez	a5,80001a2e <prvAddNewTaskToReadyList+0x50>
        {
            /* There are no other tasks, or all the other tasks are in
             * the suspended state - make this the current task. */
            pxCurrentTCB = pxNewTCB;
    80001a0c:	00009797          	auipc	a5,0x9
    80001a10:	1c478793          	addi	a5,a5,452 # 8000abd0 <pxCurrentTCB>
    80001a14:	6722                	ld	a4,8(sp)
    80001a16:	e398                	sd	a4,0(a5)

            if( uxCurrentNumberOfTasks == ( UBaseType_t ) 1 )
    80001a18:	0000b797          	auipc	a5,0xb
    80001a1c:	2d078793          	addi	a5,a5,720 # 8000cce8 <uxCurrentNumberOfTasks>
    80001a20:	6398                	ld	a4,0(a5)
    80001a22:	4785                	li	a5,1
    80001a24:	02f71b63          	bne	a4,a5,80001a5a <prvAddNewTaskToReadyList+0x7c>
            {
                /* This is the first task to be created so do the preliminary
                 * initialisation required.  We will not recover if this call
                 * fails, but we will report the failure. */
                prvInitialiseTaskLists();
    80001a28:	30c010ef          	jal	ra,80002d34 <prvInitialiseTaskLists>
    80001a2c:	a03d                	j	80001a5a <prvAddNewTaskToReadyList+0x7c>
        else
        {
            /* If the scheduler is not already running, make this task the
             * current task if it is the highest priority task to be created
             * so far. */
            if( xSchedulerRunning == pdFALSE )
    80001a2e:	0000b797          	auipc	a5,0xb
    80001a32:	2d278793          	addi	a5,a5,722 # 8000cd00 <xSchedulerRunning>
    80001a36:	639c                	ld	a5,0(a5)
    80001a38:	e38d                	bnez	a5,80001a5a <prvAddNewTaskToReadyList+0x7c>
            {
                if( pxCurrentTCB->uxPriority <= pxNewTCB->uxPriority )
    80001a3a:	00009797          	auipc	a5,0x9
    80001a3e:	19678793          	addi	a5,a5,406 # 8000abd0 <pxCurrentTCB>
    80001a42:	639c                	ld	a5,0(a5)
    80001a44:	6fb8                	ld	a4,88(a5)
    80001a46:	67a2                	ld	a5,8(sp)
    80001a48:	6fbc                	ld	a5,88(a5)
    80001a4a:	00e7e863          	bltu	a5,a4,80001a5a <prvAddNewTaskToReadyList+0x7c>
                {
                    pxCurrentTCB = pxNewTCB;
    80001a4e:	00009797          	auipc	a5,0x9
    80001a52:	18278793          	addi	a5,a5,386 # 8000abd0 <pxCurrentTCB>
    80001a56:	6722                	ld	a4,8(sp)
    80001a58:	e398                	sd	a4,0(a5)
            {
                mtCOVERAGE_TEST_MARKER();
            }
        }

        uxTaskNumber++;
    80001a5a:	0000b797          	auipc	a5,0xb
    80001a5e:	2c678793          	addi	a5,a5,710 # 8000cd20 <uxTaskNumber>
    80001a62:	639c                	ld	a5,0(a5)
    80001a64:	00178713          	addi	a4,a5,1
    80001a68:	0000b797          	auipc	a5,0xb
    80001a6c:	2b878793          	addi	a5,a5,696 # 8000cd20 <uxTaskNumber>
    80001a70:	e398                	sd	a4,0(a5)

        #if ( configUSE_TRACE_FACILITY == 1 )
            {
                /* Add a counter into the TCB for tracing only. */
                pxNewTCB->uxTCBNumber = uxTaskNumber;
    80001a72:	0000b797          	auipc	a5,0xb
    80001a76:	2ae78793          	addi	a5,a5,686 # 8000cd20 <uxTaskNumber>
    80001a7a:	6398                	ld	a4,0(a5)
    80001a7c:	67a2                	ld	a5,8(sp)
    80001a7e:	e3d8                	sd	a4,128(a5)
            }
        #endif /* configUSE_TRACE_FACILITY */
        traceTASK_CREATE( pxNewTCB );

        prvAddTaskToReadyList( pxNewTCB );
    80001a80:	67a2                	ld	a5,8(sp)
    80001a82:	6fbc                	ld	a5,88(a5)
    80001a84:	2781                	sext.w	a5,a5
    80001a86:	873e                	mv	a4,a5
    80001a88:	4785                	li	a5,1
    80001a8a:	00e79733          	sll	a4,a5,a4
    80001a8e:	0000b797          	auipc	a5,0xb
    80001a92:	26a78793          	addi	a5,a5,618 # 8000ccf8 <uxTopReadyPriority>
    80001a96:	639c                	ld	a5,0(a5)
    80001a98:	8f5d                	or	a4,a4,a5
    80001a9a:	0000b797          	auipc	a5,0xb
    80001a9e:	25e78793          	addi	a5,a5,606 # 8000ccf8 <uxTopReadyPriority>
    80001aa2:	e398                	sd	a4,0(a5)
    80001aa4:	67a2                	ld	a5,8(sp)
    80001aa6:	6fb8                	ld	a4,88(a5)
    80001aa8:	87ba                	mv	a5,a4
    80001aaa:	078a                	slli	a5,a5,0x2
    80001aac:	97ba                	add	a5,a5,a4
    80001aae:	078e                	slli	a5,a5,0x3
    80001ab0:	0000b717          	auipc	a4,0xb
    80001ab4:	09070713          	addi	a4,a4,144 # 8000cb40 <pxReadyTasksLists>
    80001ab8:	973e                	add	a4,a4,a5
    80001aba:	67a2                	ld	a5,8(sp)
    80001abc:	07a1                	addi	a5,a5,8
    80001abe:	85be                	mv	a1,a5
    80001ac0:	853a                	mv	a0,a4
    80001ac2:	bf3fe0ef          	jal	ra,800006b4 <vListInsertEnd>

        portSETUP_TCB( pxNewTCB );
    }
    taskEXIT_CRITICAL();
    80001ac6:	135010ef          	jal	ra,800033fa <vTaskExitCritical>

    if( xSchedulerRunning != pdFALSE )
    80001aca:	0000b797          	auipc	a5,0xb
    80001ace:	23678793          	addi	a5,a5,566 # 8000cd00 <xSchedulerRunning>
    80001ad2:	639c                	ld	a5,0(a5)
    80001ad4:	cf89                	beqz	a5,80001aee <prvAddNewTaskToReadyList+0x110>
    {
        /* If the created task is of a higher priority than the current task
         * then it should run now. */
        if( pxCurrentTCB->uxPriority < pxNewTCB->uxPriority )
    80001ad6:	00009797          	auipc	a5,0x9
    80001ada:	0fa78793          	addi	a5,a5,250 # 8000abd0 <pxCurrentTCB>
    80001ade:	639c                	ld	a5,0(a5)
    80001ae0:	6fb8                	ld	a4,88(a5)
    80001ae2:	67a2                	ld	a5,8(sp)
    80001ae4:	6fbc                	ld	a5,88(a5)
    80001ae6:	00f77463          	bgeu	a4,a5,80001aee <prvAddNewTaskToReadyList+0x110>
        {
            taskYIELD_IF_USING_PREEMPTION();
    80001aea:	00000073          	ecall
    }
    else
    {
        mtCOVERAGE_TEST_MARKER();
    }
}
    80001aee:	0001                	nop
    80001af0:	60e2                	ld	ra,24(sp)
    80001af2:	6105                	addi	sp,sp,32
    80001af4:	8082                	ret

0000000080001af6 <vTaskDelete>:
/*-----------------------------------------------------------*/

#if ( INCLUDE_vTaskDelete == 1 )

    void vTaskDelete( TaskHandle_t xTaskToDelete )
    {
    80001af6:	7179                	addi	sp,sp,-48
    80001af8:	f406                	sd	ra,40(sp)
    80001afa:	e42a                	sd	a0,8(sp)
        TCB_t * pxTCB;

        taskENTER_CRITICAL();
    80001afc:	0d1010ef          	jal	ra,800033cc <vTaskEnterCritical>
        {
            /* If null is passed in here then it is the calling task that is
             * being deleted. */
            pxTCB = prvGetTCBFromHandle( xTaskToDelete );
    80001b00:	67a2                	ld	a5,8(sp)
    80001b02:	e799                	bnez	a5,80001b10 <vTaskDelete+0x1a>
    80001b04:	00009797          	auipc	a5,0x9
    80001b08:	0cc78793          	addi	a5,a5,204 # 8000abd0 <pxCurrentTCB>
    80001b0c:	639c                	ld	a5,0(a5)
    80001b0e:	a011                	j	80001b12 <vTaskDelete+0x1c>
    80001b10:	67a2                	ld	a5,8(sp)
    80001b12:	ec3e                	sd	a5,24(sp)

            /* Remove task from the ready/delayed list. */
            if( uxListRemove( &( pxTCB->xStateListItem ) ) == ( UBaseType_t ) 0 )
    80001b14:	67e2                	ld	a5,24(sp)
    80001b16:	07a1                	addi	a5,a5,8
    80001b18:	853e                	mv	a0,a5
    80001b1a:	c45fe0ef          	jal	ra,8000075e <uxListRemove>
    80001b1e:	87aa                	mv	a5,a0
    80001b20:	e3b1                	bnez	a5,80001b64 <vTaskDelete+0x6e>
            {
                taskRESET_READY_PRIORITY( pxTCB->uxPriority );
    80001b22:	67e2                	ld	a5,24(sp)
    80001b24:	6fb8                	ld	a4,88(a5)
    80001b26:	0000b697          	auipc	a3,0xb
    80001b2a:	01a68693          	addi	a3,a3,26 # 8000cb40 <pxReadyTasksLists>
    80001b2e:	87ba                	mv	a5,a4
    80001b30:	078a                	slli	a5,a5,0x2
    80001b32:	97ba                	add	a5,a5,a4
    80001b34:	078e                	slli	a5,a5,0x3
    80001b36:	97b6                	add	a5,a5,a3
    80001b38:	639c                	ld	a5,0(a5)
    80001b3a:	e78d                	bnez	a5,80001b64 <vTaskDelete+0x6e>
    80001b3c:	67e2                	ld	a5,24(sp)
    80001b3e:	6fbc                	ld	a5,88(a5)
    80001b40:	2781                	sext.w	a5,a5
    80001b42:	873e                	mv	a4,a5
    80001b44:	4785                	li	a5,1
    80001b46:	00e797b3          	sll	a5,a5,a4
    80001b4a:	fff7c713          	not	a4,a5
    80001b4e:	0000b797          	auipc	a5,0xb
    80001b52:	1aa78793          	addi	a5,a5,426 # 8000ccf8 <uxTopReadyPriority>
    80001b56:	639c                	ld	a5,0(a5)
    80001b58:	8f7d                	and	a4,a4,a5
    80001b5a:	0000b797          	auipc	a5,0xb
    80001b5e:	19e78793          	addi	a5,a5,414 # 8000ccf8 <uxTopReadyPriority>
    80001b62:	e398                	sd	a4,0(a5)
            {
                mtCOVERAGE_TEST_MARKER();
            }

            /* Is the task waiting on an event also? */
            if( listLIST_ITEM_CONTAINER( &( pxTCB->xEventListItem ) ) != NULL )
    80001b64:	67e2                	ld	a5,24(sp)
    80001b66:	6bbc                	ld	a5,80(a5)
    80001b68:	c799                	beqz	a5,80001b76 <vTaskDelete+0x80>
            {
                ( void ) uxListRemove( &( pxTCB->xEventListItem ) );
    80001b6a:	67e2                	ld	a5,24(sp)
    80001b6c:	03078793          	addi	a5,a5,48
    80001b70:	853e                	mv	a0,a5
    80001b72:	bedfe0ef          	jal	ra,8000075e <uxListRemove>

            /* Increment the uxTaskNumber also so kernel aware debuggers can
             * detect that the task lists need re-generating.  This is done before
             * portPRE_TASK_DELETE_HOOK() as in the Windows port that macro will
             * not return. */
            uxTaskNumber++;
    80001b76:	0000b797          	auipc	a5,0xb
    80001b7a:	1aa78793          	addi	a5,a5,426 # 8000cd20 <uxTaskNumber>
    80001b7e:	639c                	ld	a5,0(a5)
    80001b80:	00178713          	addi	a4,a5,1
    80001b84:	0000b797          	auipc	a5,0xb
    80001b88:	19c78793          	addi	a5,a5,412 # 8000cd20 <uxTaskNumber>
    80001b8c:	e398                	sd	a4,0(a5)

            if( pxTCB == pxCurrentTCB )
    80001b8e:	00009797          	auipc	a5,0x9
    80001b92:	04278793          	addi	a5,a5,66 # 8000abd0 <pxCurrentTCB>
    80001b96:	639c                	ld	a5,0(a5)
    80001b98:	6762                	ld	a4,24(sp)
    80001b9a:	02f71863          	bne	a4,a5,80001bca <vTaskDelete+0xd4>
                /* A task is deleting itself.  This cannot complete within the
                 * task itself, as a context switch to another task is required.
                 * Place the task in the termination list.  The idle task will
                 * check the termination list and free up any memory allocated by
                 * the scheduler for the TCB and stack of the deleted task. */
                vListInsertEnd( &xTasksWaitingTermination, &( pxTCB->xStateListItem ) );
    80001b9e:	67e2                	ld	a5,24(sp)
    80001ba0:	07a1                	addi	a5,a5,8
    80001ba2:	85be                	mv	a1,a5
    80001ba4:	0000b517          	auipc	a0,0xb
    80001ba8:	0ec50513          	addi	a0,a0,236 # 8000cc90 <xTasksWaitingTermination>
    80001bac:	b09fe0ef          	jal	ra,800006b4 <vListInsertEnd>

                /* Increment the ucTasksDeleted variable so the idle task knows
                 * there is a task that has been deleted and that it should therefore
                 * check the xTasksWaitingTermination list. */
                ++uxDeletedTasksWaitingCleanUp;
    80001bb0:	0000b797          	auipc	a5,0xb
    80001bb4:	10878793          	addi	a5,a5,264 # 8000ccb8 <uxDeletedTasksWaitingCleanUp>
    80001bb8:	639c                	ld	a5,0(a5)
    80001bba:	00178713          	addi	a4,a5,1
    80001bbe:	0000b797          	auipc	a5,0xb
    80001bc2:	0fa78793          	addi	a5,a5,250 # 8000ccb8 <uxDeletedTasksWaitingCleanUp>
    80001bc6:	e398                	sd	a4,0(a5)
    80001bc8:	a015                	j	80001bec <vTaskDelete+0xf6>
                 * required. */
                portPRE_TASK_DELETE_HOOK( pxTCB, &xYieldPending );
            }
            else
            {
                --uxCurrentNumberOfTasks;
    80001bca:	0000b797          	auipc	a5,0xb
    80001bce:	11e78793          	addi	a5,a5,286 # 8000cce8 <uxCurrentNumberOfTasks>
    80001bd2:	639c                	ld	a5,0(a5)
    80001bd4:	fff78713          	addi	a4,a5,-1
    80001bd8:	0000b797          	auipc	a5,0xb
    80001bdc:	11078793          	addi	a5,a5,272 # 8000cce8 <uxCurrentNumberOfTasks>
    80001be0:	e398                	sd	a4,0(a5)
                traceTASK_DELETE( pxTCB );
                prvDeleteTCB( pxTCB );
    80001be2:	6562                	ld	a0,24(sp)
    80001be4:	410010ef          	jal	ra,80002ff4 <prvDeleteTCB>

                /* Reset the next expected unblock time in case it referred to
                 * the task that has just been deleted. */
                prvResetNextTaskUnblockTime();
    80001be8:	42a010ef          	jal	ra,80003012 <prvResetNextTaskUnblockTime>
            }
        }
        taskEXIT_CRITICAL();
    80001bec:	00f010ef          	jal	ra,800033fa <vTaskExitCritical>

        /* Force a reschedule if it is the currently running task that has just
         * been deleted. */
        if( xSchedulerRunning != pdFALSE )
    80001bf0:	0000b797          	auipc	a5,0xb
    80001bf4:	11078793          	addi	a5,a5,272 # 8000cd00 <xSchedulerRunning>
    80001bf8:	639c                	ld	a5,0(a5)
    80001bfa:	c785                	beqz	a5,80001c22 <vTaskDelete+0x12c>
        {
            if( pxTCB == pxCurrentTCB )
    80001bfc:	00009797          	auipc	a5,0x9
    80001c00:	fd478793          	addi	a5,a5,-44 # 8000abd0 <pxCurrentTCB>
    80001c04:	639c                	ld	a5,0(a5)
    80001c06:	6762                	ld	a4,24(sp)
    80001c08:	00f71d63          	bne	a4,a5,80001c22 <vTaskDelete+0x12c>
            {
                configASSERT( uxSchedulerSuspended == 0 );
    80001c0c:	0000b797          	auipc	a5,0xb
    80001c10:	12c78793          	addi	a5,a5,300 # 8000cd38 <uxSchedulerSuspended>
    80001c14:	639c                	ld	a5,0(a5)
    80001c16:	c781                	beqz	a5,80001c1e <vTaskDelete+0x128>
    80001c18:	30047073          	csrci	mstatus,8
    80001c1c:	a001                	j	80001c1c <vTaskDelete+0x126>
                portYIELD_WITHIN_API();
    80001c1e:	00000073          	ecall
            else
            {
                mtCOVERAGE_TEST_MARKER();
            }
        }
    }
    80001c22:	0001                	nop
    80001c24:	70a2                	ld	ra,40(sp)
    80001c26:	6145                	addi	sp,sp,48
    80001c28:	8082                	ret

0000000080001c2a <vTaskDelayUntil>:

#if ( INCLUDE_vTaskDelayUntil == 1 )

    void vTaskDelayUntil( TickType_t * const pxPreviousWakeTime,
                          const TickType_t xTimeIncrement )
    {
    80001c2a:	7139                	addi	sp,sp,-64
    80001c2c:	fc06                	sd	ra,56(sp)
    80001c2e:	e42a                	sd	a0,8(sp)
    80001c30:	e02e                	sd	a1,0(sp)
        TickType_t xTimeToWake;
        BaseType_t xAlreadyYielded, xShouldDelay = pdFALSE;
    80001c32:	f402                	sd	zero,40(sp)

        configASSERT( pxPreviousWakeTime );
    80001c34:	67a2                	ld	a5,8(sp)
    80001c36:	e781                	bnez	a5,80001c3e <vTaskDelayUntil+0x14>
    80001c38:	30047073          	csrci	mstatus,8
    80001c3c:	a001                	j	80001c3c <vTaskDelayUntil+0x12>
        configASSERT( ( xTimeIncrement > 0U ) );
    80001c3e:	6782                	ld	a5,0(sp)
    80001c40:	e781                	bnez	a5,80001c48 <vTaskDelayUntil+0x1e>
    80001c42:	30047073          	csrci	mstatus,8
    80001c46:	a001                	j	80001c46 <vTaskDelayUntil+0x1c>
        configASSERT( uxSchedulerSuspended == 0 );
    80001c48:	0000b797          	auipc	a5,0xb
    80001c4c:	0f078793          	addi	a5,a5,240 # 8000cd38 <uxSchedulerSuspended>
    80001c50:	639c                	ld	a5,0(a5)
    80001c52:	c781                	beqz	a5,80001c5a <vTaskDelayUntil+0x30>
    80001c54:	30047073          	csrci	mstatus,8
    80001c58:	a001                	j	80001c58 <vTaskDelayUntil+0x2e>

        vTaskSuspendAll();
    80001c5a:	6ea000ef          	jal	ra,80002344 <vTaskSuspendAll>
        {
            /* Minor optimisation.  The tick count cannot change in this
             * block. */
            const TickType_t xConstTickCount = xTickCount;
    80001c5e:	0000b797          	auipc	a5,0xb
    80001c62:	09278793          	addi	a5,a5,146 # 8000ccf0 <xTickCount>
    80001c66:	639c                	ld	a5,0(a5)
    80001c68:	f03e                	sd	a5,32(sp)

            /* Generate the tick time at which the task wants to wake. */
            xTimeToWake = *pxPreviousWakeTime + xTimeIncrement;
    80001c6a:	67a2                	ld	a5,8(sp)
    80001c6c:	639c                	ld	a5,0(a5)
    80001c6e:	6702                	ld	a4,0(sp)
    80001c70:	97ba                	add	a5,a5,a4
    80001c72:	ec3e                	sd	a5,24(sp)

            if( xConstTickCount < *pxPreviousWakeTime )
    80001c74:	67a2                	ld	a5,8(sp)
    80001c76:	639c                	ld	a5,0(a5)
    80001c78:	7702                	ld	a4,32(sp)
    80001c7a:	00f77e63          	bgeu	a4,a5,80001c96 <vTaskDelayUntil+0x6c>
                /* The tick count has overflowed since this function was
                 * lasted called.  In this case the only time we should ever
                 * actually delay is if the wake time has also  overflowed,
                 * and the wake time is greater than the tick time.  When this
                 * is the case it is as if neither time had overflowed. */
                if( ( xTimeToWake < *pxPreviousWakeTime ) && ( xTimeToWake > xConstTickCount ) )
    80001c7e:	67a2                	ld	a5,8(sp)
    80001c80:	639c                	ld	a5,0(a5)
    80001c82:	6762                	ld	a4,24(sp)
    80001c84:	02f77463          	bgeu	a4,a5,80001cac <vTaskDelayUntil+0x82>
    80001c88:	6762                	ld	a4,24(sp)
    80001c8a:	7782                	ld	a5,32(sp)
    80001c8c:	02e7f063          	bgeu	a5,a4,80001cac <vTaskDelayUntil+0x82>
                {
                    xShouldDelay = pdTRUE;
    80001c90:	4785                	li	a5,1
    80001c92:	f43e                	sd	a5,40(sp)
    80001c94:	a821                	j	80001cac <vTaskDelayUntil+0x82>
            else
            {
                /* The tick time has not overflowed.  In this case we will
                 * delay if either the wake time has overflowed, and/or the
                 * tick time is less than the wake time. */
                if( ( xTimeToWake < *pxPreviousWakeTime ) || ( xTimeToWake > xConstTickCount ) )
    80001c96:	67a2                	ld	a5,8(sp)
    80001c98:	639c                	ld	a5,0(a5)
    80001c9a:	6762                	ld	a4,24(sp)
    80001c9c:	00f76663          	bltu	a4,a5,80001ca8 <vTaskDelayUntil+0x7e>
    80001ca0:	6762                	ld	a4,24(sp)
    80001ca2:	7782                	ld	a5,32(sp)
    80001ca4:	00e7f463          	bgeu	a5,a4,80001cac <vTaskDelayUntil+0x82>
                {
                    xShouldDelay = pdTRUE;
    80001ca8:	4785                	li	a5,1
    80001caa:	f43e                	sd	a5,40(sp)
                    mtCOVERAGE_TEST_MARKER();
                }
            }

            /* Update the wake time ready for the next call. */
            *pxPreviousWakeTime = xTimeToWake;
    80001cac:	67a2                	ld	a5,8(sp)
    80001cae:	6762                	ld	a4,24(sp)
    80001cb0:	e398                	sd	a4,0(a5)

            if( xShouldDelay != pdFALSE )
    80001cb2:	77a2                	ld	a5,40(sp)
    80001cb4:	cb89                	beqz	a5,80001cc6 <vTaskDelayUntil+0x9c>
            {
                traceTASK_DELAY_UNTIL( xTimeToWake );

                /* prvAddCurrentTaskToDelayedList() needs the block time, not
                 * the time to wake, so subtract the current tick count. */
                prvAddCurrentTaskToDelayedList( xTimeToWake - xConstTickCount, pdFALSE );
    80001cb6:	6762                	ld	a4,24(sp)
    80001cb8:	7782                	ld	a5,32(sp)
    80001cba:	40f707b3          	sub	a5,a4,a5
    80001cbe:	4581                	li	a1,0
    80001cc0:	853e                	mv	a0,a5
    80001cc2:	78f010ef          	jal	ra,80003c50 <prvAddCurrentTaskToDelayedList>
            else
            {
                mtCOVERAGE_TEST_MARKER();
            }
        }
        xAlreadyYielded = xTaskResumeAll();
    80001cc6:	69a000ef          	jal	ra,80002360 <xTaskResumeAll>
    80001cca:	e82a                	sd	a0,16(sp)

        /* Force a reschedule if xTaskResumeAll has not already done so, we may
         * have put ourselves to sleep. */
        if( xAlreadyYielded == pdFALSE )
    80001ccc:	67c2                	ld	a5,16(sp)
    80001cce:	e399                	bnez	a5,80001cd4 <vTaskDelayUntil+0xaa>
        {
            portYIELD_WITHIN_API();
    80001cd0:	00000073          	ecall
        }
        else
        {
            mtCOVERAGE_TEST_MARKER();
        }
    }
    80001cd4:	0001                	nop
    80001cd6:	70e2                	ld	ra,56(sp)
    80001cd8:	6121                	addi	sp,sp,64
    80001cda:	8082                	ret

0000000080001cdc <vTaskDelay>:
/*-----------------------------------------------------------*/

#if ( INCLUDE_vTaskDelay == 1 )

    void vTaskDelay( const TickType_t xTicksToDelay )
    {
    80001cdc:	7179                	addi	sp,sp,-48
    80001cde:	f406                	sd	ra,40(sp)
    80001ce0:	e42a                	sd	a0,8(sp)
        BaseType_t xAlreadyYielded = pdFALSE;
    80001ce2:	ec02                	sd	zero,24(sp)

        /* A delay time of zero just forces a reschedule. */
        if( xTicksToDelay > ( TickType_t ) 0U )
    80001ce4:	67a2                	ld	a5,8(sp)
    80001ce6:	c39d                	beqz	a5,80001d0c <vTaskDelay+0x30>
        {
            configASSERT( uxSchedulerSuspended == 0 );
    80001ce8:	0000b797          	auipc	a5,0xb
    80001cec:	05078793          	addi	a5,a5,80 # 8000cd38 <uxSchedulerSuspended>
    80001cf0:	639c                	ld	a5,0(a5)
    80001cf2:	c781                	beqz	a5,80001cfa <vTaskDelay+0x1e>
    80001cf4:	30047073          	csrci	mstatus,8
    80001cf8:	a001                	j	80001cf8 <vTaskDelay+0x1c>
            vTaskSuspendAll();
    80001cfa:	64a000ef          	jal	ra,80002344 <vTaskSuspendAll>
                 * list or removed from the blocked list until the scheduler
                 * is resumed.
                 *
                 * This task cannot be in an event list as it is the currently
                 * executing task. */
                prvAddCurrentTaskToDelayedList( xTicksToDelay, pdFALSE );
    80001cfe:	4581                	li	a1,0
    80001d00:	6522                	ld	a0,8(sp)
    80001d02:	74f010ef          	jal	ra,80003c50 <prvAddCurrentTaskToDelayedList>
            }
            xAlreadyYielded = xTaskResumeAll();
    80001d06:	65a000ef          	jal	ra,80002360 <xTaskResumeAll>
    80001d0a:	ec2a                	sd	a0,24(sp)
            mtCOVERAGE_TEST_MARKER();
        }

        /* Force a reschedule if xTaskResumeAll has not already done so, we may
         * have put ourselves to sleep. */
        if( xAlreadyYielded == pdFALSE )
    80001d0c:	67e2                	ld	a5,24(sp)
    80001d0e:	e399                	bnez	a5,80001d14 <vTaskDelay+0x38>
        {
            portYIELD_WITHIN_API();
    80001d10:	00000073          	ecall
        }
        else
        {
            mtCOVERAGE_TEST_MARKER();
        }
    }
    80001d14:	0001                	nop
    80001d16:	70a2                	ld	ra,40(sp)
    80001d18:	6145                	addi	sp,sp,48
    80001d1a:	8082                	ret

0000000080001d1c <eTaskGetState>:
/*-----------------------------------------------------------*/

