Certificate Revocation List (CRL):
        Version 2 (0x1)
    Signature Algorithm: sha256WithRSAEncryption
        Issuer: /C=US/ST=Montana/L=Bozeman/O=wolfSSL_2048/OU=Programming-2048/CN=www.wolfssl.com/emailAddress=info@wolfssl.com
        Last Update: May  7 18:21:01 2015 GMT
        Next Update: Jan 31 18:21:01 2018 GMT
        CRL extensions:
            X509v3 CRL Number: 
                3
No Revoked Certificates.
    Signature Algorithm: sha256WithRSAEncryption
         a2:15:f0:cf:70:85:49:b9:5b:c1:af:2b:22:14:9d:ee:11:8d:
         93:2d:58:17:d8:f6:b6:1a:1a:25:a2:27:c9:6b:4f:b3:31:c7:
         2c:52:c4:53:59:19:ef:cf:91:ee:b5:19:28:37:49:9e:b6:e0:
         41:62:4c:9f:f1:34:bf:88:aa:ae:24:38:8d:29:0a:64:08:a8:
         68:f4:b5:28:73:d6:94:b9:0a:3f:7c:c1:22:72:be:14:ba:c9:
         1b:9d:26:af:78:c2:cf:5f:ff:1e:cc:25:c0:63:f1:9b:97:85:
         5c:c0:4d:14:ed:f9:ad:cb:02:7d:05:c7:5c:c1:7c:89:72:35:
         49:70:a8:b1:ae:91:96:77:9a:c6:cb:38:27:88:3f:f4:c8:ba:
         c9:08:7f:dd:a6:41:82:62:65:a0:f2:0c:36:5a:d9:15:57:5e:
         66:c3:a2:ff:5e:4d:7c:bc:4b:7c:30:84:44:e3:06:34:a8:42:
         3b:d9:6a:04:4a:0b:e5:59:66:63:b9:7a:80:48:68:31:1c:aa:
         98:bc:09:0e:a7:83:5f:a7:00:f1:fb:78:bc:08:86:73:ef:53:
         25:b8:1b:5e:7c:77:a8:12:7b:52:7f:1e:63:bc:db:60:99:46:
         ab:e1:2e:48:d1:28:40:68:1e:9e:a0:2f:14:04:66:b3:b1:b1:
         3b:d0:46:64
-----BEGIN X509 CRL-----
MIIB+DCB4QIBATANBgkqhkiG9w0BAQsFADCBnjELMAkGA1UEBhMCVVMxEDAOBgNV
BAgMB01vbnRhbmExEDAOBgNVBAcMB0JvemVtYW4xFTATBgNVBAoMDHdvbGZTU0xf
MjA0ODEZMBcGA1UECwwQUHJvZ3JhbW1pbmctMjA0ODEYMBYGA1UEAwwPd3d3Lndv
bGZzc2wuY29tMR8wHQYJKoZIhvcNAQkBFhBpbmZvQHdvbGZzc2wuY29tFw0xNTA1
MDcxODIxMDFaFw0xODAxMzExODIxMDFaoA4wDDAKBgNVHRQEAwIBAzANBgkqhkiG
9w0BAQsFAAOCAQEAohXwz3CFSblbwa8rIhSd7hGNky1YF9j2thoaJaInyWtPszHH
LFLEU1kZ78+R7rUZKDdJnrbgQWJMn/E0v4iqriQ4jSkKZAioaPS1KHPWlLkKP3zB
InK+FLrJG50mr3jCz1//HswlwGPxm5eFXMBNFO35rcsCfQXHXMF8iXI1SXCosa6R
lneaxss4J4g/9Mi6yQh/3aZBgmJloPIMNlrZFVdeZsOi/15NfLxLfDCEROMGNKhC
O9lqBEoL5VlmY7l6gEhoMRyqmLwJDqeDX6cA8ft4vAiGc+9TJbgbXnx3qBJ7Un8e
Y7zbYJlGq+EuSNEoQGgenqAvFARms7GxO9BGZA==
-----END X509 CRL-----
