Certificate:
    Data:
        Version: 1 (0x0)
        Serial Number: 13085343280838917500 (0xb5987a628272bd7c)
    Signature Algorithm: sha256WithRSAEncryption
        Issuer: O=Example Ltd/businessCategory=Private/serialNumber=5157550/jurisdictionC=US/jurisdictionST=California, C=US/street=123 My Street, ST=California, CN=example.com/subjectAltName=DNS.1=example.com, DNS.2=www.example.com, DNS.3=billing.example.com
        Validity
            Not Before: Aug 10 15:20:25 2018 GMT
            Not After : May  6 15:20:25 2021 GMT
        Subject: O=Example Ltd/businessCategory=Private/serialNumber=5157550/jurisdictionC=US/jurisdictionST=California, C=US/street=123 My Street, ST=California, CN=example.com/subjectAltName=DNS.1=example.com, DNS.2=www.example.com, DNS.3=billing.example.com
        Subject Public Key Info:
            Public Key Algorithm: rsaEncryption
                Public-Key: (2048 bit)
                Modulus:
                    00:c0:95:08:e1:57:41:f2:71:6d:b7:d2:45:41:27:
                    01:65:c6:45:ae:f2:bc:24:30:b8:95:ce:2f:4e:d6:
                    f6:1c:88:bc:7c:9f:fb:a8:67:7f:fe:5c:9c:51:75:
                    f7:8a:ca:07:e7:35:2f:8f:e1:bd:7b:c0:2f:7c:ab:
                    64:a8:17:fc:ca:5d:7b:ba:e0:21:e5:72:2e:6f:2e:
                    86:d8:95:73:da:ac:1b:53:b9:5f:3f:d7:19:0d:25:
                    4f:e1:63:63:51:8b:0b:64:3f:ad:43:b8:a5:1c:5c:
                    34:b3:ae:00:a0:63:c5:f6:7f:0b:59:68:78:73:a6:
                    8c:18:a9:02:6d:af:c3:19:01:2e:b8:10:e3:c6:cc:
                    40:b4:69:a3:46:33:69:87:6e:c4:bb:17:a6:f3:e8:
                    dd:ad:73:bc:7b:2f:21:b5:fd:66:51:0c:bd:54:b3:
                    e1:6d:5f:1c:bc:23:73:d1:09:03:89:14:d2:10:b9:
                    64:c3:2a:d0:a1:96:4a:bc:e1:d4:1a:5b:c7:a0:c0:
                    c1:63:78:0f:44:37:30:32:96:80:32:23:95:a1:77:
                    ba:13:d2:97:73:e2:5d:25:c9:6a:0d:c3:39:60:a4:
                    b4:b0:69:42:42:09:e9:d8:08:bc:33:20:b3:58:22:
                    a7:aa:eb:c4:e1:e6:61:83:c5:d2:96:df:d9:d0:4f:
                    ad:d7
                Exponent: 65537 (0x10001)
    Signature Algorithm: sha256WithRSAEncryption
         ac:5a:d1:a9:e8:ed:75:8e:87:13:38:39:c5:d7:43:fd:72:31:
         34:4d:c3:41:f4:6a:d8:64:a2:ce:cf:d8:ab:81:9f:2c:26:4d:
         69:35:42:63:f8:53:c4:c5:f6:00:15:29:4d:3b:5e:bf:2c:8b:
         a8:ad:54:22:c0:93:78:34:9c:e7:79:c1:d0:fe:7c:bf:87:b9:
         21:dd:d6:f9:35:ae:17:94:90:55:99:48:c8:d3:47:b1:be:1b:
         1f:62:31:0c:3a:e5:8e:b3:93:e6:93:02:36:e9:97:1e:7f:6c:
         55:6a:b8:9a:d1:d1:36:52:cb:3f:9f:5e:95:c4:0f:03:d5:a1:
         4c:d1:7e:8a:dd:58:ec:a1:17:c7:68:fe:91:b6:e7:66:8b:f7:
         b3:a8:25:ad:2d:e9:c9:55:02:a2:39:16:cc:b0:aa:65:bf:21:
         b5:dc:0a:d3:92:36:ae:84:d8:a3:d3:35:ba:b9:bc:b8:7d:2e:
         64:58:db:d7:ec:86:51:a2:44:7d:ba:98:30:c2:c5:4f:3c:ea:
         9f:1d:b0:1e:87:dc:49:4f:bf:42:70:c8:a3:3e:ad:6c:47:e3:
         d3:ff:17:1c:37:c1:fa:34:b5:7b:e7:07:b6:c2:66:3a:89:57:
         44:1a:f5:6e:e0:cd:93:c0:c2:13:2e:e2:67:e7:8b:27:57:c1:
         16:f3:ad:eb
-----BEGIN CERTIFICATE-----
MIIElDCCA3wCCQC1mHpignK9fDANBgkqhkiG9w0BAQsFADCCAQoxFDASBgNVBAoM
C0V4YW1wbGUgTHRkMRAwDgYDVQQPDAdQcml2YXRlMRAwDgYDVQQFEwc1MTU3NTUw
MRMwEQYLKwYBBAGCNzwCAQMMAlVTMRswGQYLKwYBBAGCNzwCAQIMCkNhbGlmb3Ju
aWExCzAJBgNVBAYTAlVTMRYwFAYDVQQJDA0xMjMgTXkgU3RyZWV0MRMwEQYDVQQI
DApDYWxpZm9ybmlhMRQwEgYDVQQDDAtleGFtcGxlLmNvbTFMMEoGA1UdEQxDRE5T
LjE9ZXhhbXBsZS5jb20sIEROUy4yPXd3dy5leGFtcGxlLmNvbSwgRE5TLjM9Ymls
bGluZy5leGFtcGxlLmNvbTAeFw0xODA4MTAxNTIwMjVaFw0yMTA1MDYxNTIwMjVa
MIIBCjEUMBIGA1UECgwLRXhhbXBsZSBMdGQxEDAOBgNVBA8MB1ByaXZhdGUxEDAO
BgNVBAUTBzUxNTc1NTAxEzARBgsrBgEEAYI3PAIBAwwCVVMxGzAZBgsrBgEEAYI3
PAIBAgwKQ2FsaWZvcm5pYTELMAkGA1UEBhMCVVMxFjAUBgNVBAkMDTEyMyBNeSBT
dHJlZXQxEzARBgNVBAgMCkNhbGlmb3JuaWExFDASBgNVBAMMC2V4YW1wbGUuY29t
MUwwSgYDVR0RDENETlMuMT1leGFtcGxlLmNvbSwgRE5TLjI9d3d3LmV4YW1wbGUu
Y29tLCBETlMuMz1iaWxsaW5nLmV4YW1wbGUuY29tMIIBIjANBgkqhkiG9w0BAQEF
AAOCAQ8AMIIBCgKCAQEAwJUI4VdB8nFtt9JFQScBZcZFrvK8JDC4lc4vTtb2HIi8
fJ/7qGd//lycUXX3isoH5zUvj+G9e8AvfKtkqBf8yl17uuAh5XIuby6G2JVz2qwb
U7lfP9cZDSVP4WNjUYsLZD+tQ7ilHFw0s64AoGPF9n8LWWh4c6aMGKkCba/DGQEu
uBDjxsxAtGmjRjNph27Euxem8+jdrXO8ey8htf1mUQy9VLPhbV8cvCNz0QkDiRTS
ELlkwyrQoZZKvOHUGlvHoMDBY3gPRDcwMpaAMiOVoXe6E9KXc+JdJclqDcM5YKS0
sGlCQgnp2Ai8MyCzWCKnquvE4eZhg8XSlt/Z0E+t1wIDAQABMA0GCSqGSIb3DQEB
CwUAA4IBAQCsWtGp6O11jocTODnF10P9cjE0TcNB9GrYZKLOz9irgZ8sJk1pNUJj
+FPExfYAFSlNO16/LIuorVQiwJN4NJznecHQ/ny/h7kh3db5Na4XlJBVmUjI00ex
vhsfYjEMOuWOs5PmkwI26Zcef2xVaria0dE2Uss/n16VxA8D1aFM0X6K3VjsoRfH
aP6Rtudmi/ezqCWtLenJVQKiORbMsKplvyG13ArTkjauhNij0zW6uby4fS5kWNvX
7IZRokR9upgwwsVPPOqfHbAeh9xJT79CcMijPq1sR+PT/xccN8H6NLV75we2wmY6
iVdEGvVu4M2TwMITLuJn54snV8EW863r
-----END CERTIFICATE-----
