Certificate:
    Data:
        Version: 3 (0x2)
        Serial Number:
            90:02:1e:3e:94:03:86:27
    Signature Algorithm: sha256WithRSAEncryption
        Issuer: C = US, ST = Montana, L = Bozeman, OU = Engineering, CN = www.nomatch.com, emailAddress = info@wolfssl.com
        Validity
            Not Before: Sep 19 21:21:24 2018 GMT
            Not After : Jun 15 21:21:24 2021 GMT
        Subject: C = US, ST = Montana, L = Bozeman, OU = Engineering, CN = www.nomatch.com, emailAddress = info@wolfssl.com
        Subject Public Key Info:
            Public Key Algorithm: rsaEncryption
                Public-Key: (2048 bit)
                Modulus:
                    00:c0:95:08:e1:57:41:f2:71:6d:b7:d2:45:41:27:
                    01:65:c6:45:ae:f2:bc:24:30:b8:95:ce:2f:4e:d6:
                    f6:1c:88:bc:7c:9f:fb:a8:67:7f:fe:5c:9c:51:75:
                    f7:8a:ca:07:e7:35:2f:8f:e1:bd:7b:c0:2f:7c:ab:
                    64:a8:17:fc:ca:5d:7b:ba:e0:21:e5:72:2e:6f:2e:
                    86:d8:95:73:da:ac:1b:53:b9:5f:3f:d7:19:0d:25:
                    4f:e1:63:63:51:8b:0b:64:3f:ad:43:b8:a5:1c:5c:
                    34:b3:ae:00:a0:63:c5:f6:7f:0b:59:68:78:73:a6:
                    8c:18:a9:02:6d:af:c3:19:01:2e:b8:10:e3:c6:cc:
                    40:b4:69:a3:46:33:69:87:6e:c4:bb:17:a6:f3:e8:
                    dd:ad:73:bc:7b:2f:21:b5:fd:66:51:0c:bd:54:b3:
                    e1:6d:5f:1c:bc:23:73:d1:09:03:89:14:d2:10:b9:
                    64:c3:2a:d0:a1:96:4a:bc:e1:d4:1a:5b:c7:a0:c0:
                    c1:63:78:0f:44:37:30:32:96:80:32:23:95:a1:77:
                    ba:13:d2:97:73:e2:5d:25:c9:6a:0d:c3:39:60:a4:
                    b4:b0:69:42:42:09:e9:d8:08:bc:33:20:b3:58:22:
                    a7:aa:eb:c4:e1:e6:61:83:c5:d2:96:df:d9:d0:4f:
                    ad:d7
                Exponent: 65537 (0x10001)
        X509v3 extensions:
            X509v3 Subject Alternative Name: 
                DNS:DER:30:0d:82:0b:6c:6f:63:61:6c:68:6f:73:74:00:68
    Signature Algorithm: sha256WithRSAEncryption
         7f:43:90:8a:bb:e2:2e:d9:f1:df:83:6d:89:53:65:b0:69:6c:
         00:30:35:b3:24:3c:3e:40:60:7c:b2:a1:86:5c:99:bc:30:e3:
         f6:f0:2f:71:e0:1f:17:a2:71:a8:ad:33:62:98:13:61:04:0d:
         f2:fc:aa:df:af:62:6d:ac:ba:55:95:da:5e:5b:14:c1:a5:8e:
         73:62:a7:e1:3f:fb:66:6a:c9:f7:41:3b:17:9c:f8:20:0a:11:
         54:e9:8e:bd:42:3e:61:6f:b7:21:c2:aa:8f:1b:73:9e:af:eb:
         4d:7b:94:4a:17:d5:4a:15:a5:62:bb:4b:5f:06:3f:a2:e2:28:
         b7:c9:67:4b:d9:0d:b7:8f:bf:46:02:ad:a6:aa:31:cb:ff:76:
         9d:e5:d7:b8:fd:7b:df:e1:42:75:78:76:7d:35:90:6c:94:16:
         47:0f:65:e6:86:ee:65:16:19:65:a3:96:20:44:28:f5:de:8d:
         f3:f7:8e:2b:95:f8:4f:4d:76:74:43:5d:e1:84:7c:94:f0:8c:
         c7:19:6c:a3:77:06:37:7e:c2:f4:f7:6a:c6:19:8a:54:75:cc:
         b6:a7:7c:db:f3:91:79:76:d1:e4:b8:fa:cd:07:94:ef:33:11:
         fa:43:ca:1f:6e:08:70:9c:3c:19:dd:89:65:78:aa:6a:da:ec:
         d5:d9:f8:3f
-----BEGIN CERTIFICATE-----
MIIDyDCCArCgAwIBAgIJAJACHj6UA4YnMA0GCSqGSIb3DQEBCwUAMIGCMQswCQYD
VQQGEwJVUzEQMA4GA1UECAwHTW9udGFuYTEQMA4GA1UEBwwHQm96ZW1hbjEUMBIG
A1UECwwLRW5naW5lZXJpbmcxGDAWBgNVBAMMD3d3dy5ub21hdGNoLmNvbTEfMB0G
CSqGSIb3DQEJARYQaW5mb0B3b2xmc3NsLmNvbTAeFw0xODA5MTkyMTIxMjRaFw0y
MTA2MTUyMTIxMjRaMIGCMQswCQYDVQQGEwJVUzEQMA4GA1UECAwHTW9udGFuYTEQ
MA4GA1UEBwwHQm96ZW1hbjEUMBIGA1UECwwLRW5naW5lZXJpbmcxGDAWBgNVBAMM
D3d3dy5ub21hdGNoLmNvbTEfMB0GCSqGSIb3DQEJARYQaW5mb0B3b2xmc3NsLmNv
bTCCASIwDQYJKoZIhvcNAQEBBQADggEPADCCAQoCggEBAMCVCOFXQfJxbbfSRUEn
AWXGRa7yvCQwuJXOL07W9hyIvHyf+6hnf/5cnFF194rKB+c1L4/hvXvAL3yrZKgX
/Mpde7rgIeVyLm8uhtiVc9qsG1O5Xz/XGQ0lT+FjY1GLC2Q/rUO4pRxcNLOuAKBj
xfZ/C1loeHOmjBipAm2vwxkBLrgQ48bMQLRpo0YzaYduxLsXpvPo3a1zvHsvIbX9
ZlEMvVSz4W1fHLwjc9EJA4kU0hC5ZMMq0KGWSrzh1Bpbx6DAwWN4D0Q3MDKWgDIj
laF3uhPSl3PiXSXJag3DOWCktLBpQkIJ6dgIvDMgs1gip6rrxOHmYYPF0pbf2dBP
rdcCAwEAAaM/MD0wOwYDVR0RBDQwMoIwREVSOjMwOjBkOjgyOjBiOjZjOjZmOjYz
OjYxOjZjOjY4OjZmOjczOjc0OjAwOjY4MA0GCSqGSIb3DQEBCwUAA4IBAQB/Q5CK
u+Iu2fHfg22JU2WwaWwAMDWzJDw+QGB8sqGGXJm8MOP28C9x4B8XonGorTNimBNh
BA3y/Krfr2JtrLpVldpeWxTBpY5zYqfhP/tmasn3QTsXnPggChFU6Y69Qj5hb7ch
wqqPG3Oer+tNe5RKF9VKFaViu0tfBj+i4ii3yWdL2Q23j79GAq2mqjHL/3ad5de4
/Xvf4UJ1eHZ9NZBslBZHD2Xmhu5lFhllo5YgRCj13o3z944rlfhPTXZ0Q13hhHyU
8IzHGWyjdwY3fsL092rGGYpUdcy2p3zb85F5dtHkuPrNB5TvMxH6Q8ofbghwnDwZ
3YlleKpq2uzV2fg/
-----END CERTIFICATE-----
