Certificate:
    Data:
        Version: 3 (0x2)
        Serial Number:
            d9:6c:d7:cc:f4:9f:c5:18
    Signature Algorithm: sha256WithRSAEncryption
        Issuer: C = US, ST = Montana, L = Bozeman, OU = Engineering, CN = localhost, emailAddress = info@wolfssl.com
        Validity
            Not Before: Sep 19 21:21:24 2018 GMT
            Not After : Jun 15 21:21:24 2021 GMT
        Subject: C = US, ST = Montana, L = Bozeman, OU = Engineering, CN = localhost, emailAddress = info@wolfssl.com
        Subject Public Key Info:
            Public Key Algorithm: rsaEncryption
                Public-Key: (2048 bit)
                Modulus:
                    00:c0:95:08:e1:57:41:f2:71:6d:b7:d2:45:41:27:
                    01:65:c6:45:ae:f2:bc:24:30:b8:95:ce:2f:4e:d6:
                    f6:1c:88:bc:7c:9f:fb:a8:67:7f:fe:5c:9c:51:75:
                    f7:8a:ca:07:e7:35:2f:8f:e1:bd:7b:c0:2f:7c:ab:
                    64:a8:17:fc:ca:5d:7b:ba:e0:21:e5:72:2e:6f:2e:
                    86:d8:95:73:da:ac:1b:53:b9:5f:3f:d7:19:0d:25:
                    4f:e1:63:63:51:8b:0b:64:3f:ad:43:b8:a5:1c:5c:
                    34:b3:ae:00:a0:63:c5:f6:7f:0b:59:68:78:73:a6:
                    8c:18:a9:02:6d:af:c3:19:01:2e:b8:10:e3:c6:cc:
                    40:b4:69:a3:46:33:69:87:6e:c4:bb:17:a6:f3:e8:
                    dd:ad:73:bc:7b:2f:21:b5:fd:66:51:0c:bd:54:b3:
                    e1:6d:5f:1c:bc:23:73:d1:09:03:89:14:d2:10:b9:
                    64:c3:2a:d0:a1:96:4a:bc:e1:d4:1a:5b:c7:a0:c0:
                    c1:63:78:0f:44:37:30:32:96:80:32:23:95:a1:77:
                    ba:13:d2:97:73:e2:5d:25:c9:6a:0d:c3:39:60:a4:
                    b4:b0:69:42:42:09:e9:d8:08:bc:33:20:b3:58:22:
                    a7:aa:eb:c4:e1:e6:61:83:c5:d2:96:df:d9:d0:4f:
                    ad:d7
                Exponent: 65537 (0x10001)
        X509v3 extensions:
            X509v3 Subject Alternative Name: 
                DNS:localhost
    Signature Algorithm: sha256WithRSAEncryption
         3a:16:c1:b1:05:65:32:fc:65:4b:09:5a:05:4a:c0:9c:ec:07:
         f5:f0:01:41:7c:cf:20:c7:55:80:81:6a:df:65:f2:44:37:02:
         b0:8f:7b:7b:0a:3d:a3:44:0f:e4:73:55:ee:cc:3a:d5:b0:8f:
         62:a5:65:73:dd:6c:b2:11:2a:76:3c:94:3a:8b:ea:32:a0:ea:
         41:05:a5:78:af:27:d2:9e:e9:b9:c3:9d:11:2a:3e:d3:d5:bf:
         72:46:b6:7b:8d:5f:6a:b9:25:78:c7:60:1a:60:5d:26:d6:45:
         06:b7:4d:b0:a1:20:bb:62:94:64:92:98:f6:a7:62:3d:06:70:
         d5:7e:51:72:92:3e:97:81:20:d3:8a:fe:43:7b:a2:c6:4f:89:
         a0:c5:e6:c5:a8:a4:e3:4c:a2:dc:52:de:61:fe:99:7e:c4:f3:
         2e:f0:81:c3:34:07:d6:2b:b5:cf:21:a3:8a:71:82:de:28:57:
         20:a0:1c:08:d8:c0:1f:d5:ec:48:d6:04:dd:72:df:9d:90:73:
         c7:90:56:ec:71:cb:fa:ff:57:5c:74:6f:97:2e:f8:86:6c:28:
         9a:0e:69:b9:ec:f4:6f:8f:d5:c2:4b:94:57:ec:74:ed:f0:bf:
         9b:c2:ae:0e:0f:10:10:5f:9e:a3:c1:39:03:d2:a6:90:50:a3:
         df:3e:56:dd
-----BEGIN CERTIFICATE-----
MIIDkzCCAnugAwIBAgIJANls18z0n8UYMA0GCSqGSIb3DQEBCwUAMHwxCzAJBgNV
BAYTAlVTMRAwDgYDVQQIDAdNb250YW5hMRAwDgYDVQQHDAdCb3plbWFuMRQwEgYD
VQQLDAtFbmdpbmVlcmluZzESMBAGA1UEAwwJbG9jYWxob3N0MR8wHQYJKoZIhvcN
AQkBFhBpbmZvQHdvbGZzc2wuY29tMB4XDTE4MDkxOTIxMjEyNFoXDTIxMDYxNTIx
MjEyNFowfDELMAkGA1UEBhMCVVMxEDAOBgNVBAgMB01vbnRhbmExEDAOBgNVBAcM
B0JvemVtYW4xFDASBgNVBAsMC0VuZ2luZWVyaW5nMRIwEAYDVQQDDAlsb2NhbGhv
c3QxHzAdBgkqhkiG9w0BCQEWEGluZm9Ad29sZnNzbC5jb20wggEiMA0GCSqGSIb3
DQEBAQUAA4IBDwAwggEKAoIBAQDAlQjhV0HycW230kVBJwFlxkWu8rwkMLiVzi9O
1vYciLx8n/uoZ3/+XJxRdfeKygfnNS+P4b17wC98q2SoF/zKXXu64CHlci5vLobY
lXParBtTuV8/1xkNJU/hY2NRiwtkP61DuKUcXDSzrgCgY8X2fwtZaHhzpowYqQJt
r8MZAS64EOPGzEC0aaNGM2mHbsS7F6bz6N2tc7x7LyG1/WZRDL1Us+FtXxy8I3PR
CQOJFNIQuWTDKtChlkq84dQaW8egwMFjeA9ENzAyloAyI5Whd7oT0pdz4l0lyWoN
wzlgpLSwaUJCCenYCLwzILNYIqeq68Th5mGDxdKW39nQT63XAgMBAAGjGDAWMBQG
A1UdEQQNMAuCCWxvY2FsaG9zdDANBgkqhkiG9w0BAQsFAAOCAQEAOhbBsQVlMvxl
SwlaBUrAnOwH9fABQXzPIMdVgIFq32XyRDcCsI97ewo9o0QP5HNV7sw61bCPYqVl
c91sshEqdjyUOovqMqDqQQWleK8n0p7pucOdESo+09W/cka2e41farkleMdgGmBd
JtZFBrdNsKEgu2KUZJKY9qdiPQZw1X5RcpI+l4Eg04r+Q3uixk+JoMXmxaik40yi
3FLeYf6ZfsTzLvCBwzQH1iu1zyGjinGC3ihXIKAcCNjAH9XsSNYE3XLfnZBzx5BW
7HHL+v9XXHRvly74hmwomg5puez0b4/VwkuUV+x07fC/m8KuDg8QEF+eo8E5A9Km
kFCj3z5W3Q==
-----END CERTIFICATE-----
