Certificate:
    Data:
        Version: 3 (0x2)
        Serial Number:
            c8:aa:6e:e3:4e:bf:ed:34
    Signature Algorithm: sha256WithRSAEncryption
        Issuer: C = US, ST = Montana, L = Bozeman, OU = Engineering, CN = DER:30:0d:82:0b:6c:6f:63:61:6c:68:6f:73:74:00:68, emailAddress = info@wolfssl.com
        Validity
            Not Before: Sep 19 21:21:24 2018 GMT
            Not After : Jun 15 21:21:24 2021 GMT
        Subject: C = US, ST = Montana, L = Bozeman, OU = Engineering, CN = DER:30:0d:82:0b:6c:6f:63:61:6c:68:6f:73:74:00:68, emailAddress = info@wolfssl.com
        Subject Public Key Info:
            Public Key Algorithm: rsaEncryption
                Public-Key: (2048 bit)
                Modulus:
                    00:c0:95:08:e1:57:41:f2:71:6d:b7:d2:45:41:27:
                    01:65:c6:45:ae:f2:bc:24:30:b8:95:ce:2f:4e:d6:
                    f6:1c:88:bc:7c:9f:fb:a8:67:7f:fe:5c:9c:51:75:
                    f7:8a:ca:07:e7:35:2f:8f:e1:bd:7b:c0:2f:7c:ab:
                    64:a8:17:fc:ca:5d:7b:ba:e0:21:e5:72:2e:6f:2e:
                    86:d8:95:73:da:ac:1b:53:b9:5f:3f:d7:19:0d:25:
                    4f:e1:63:63:51:8b:0b:64:3f:ad:43:b8:a5:1c:5c:
                    34:b3:ae:00:a0:63:c5:f6:7f:0b:59:68:78:73:a6:
                    8c:18:a9:02:6d:af:c3:19:01:2e:b8:10:e3:c6:cc:
                    40:b4:69:a3:46:33:69:87:6e:c4:bb:17:a6:f3:e8:
                    dd:ad:73:bc:7b:2f:21:b5:fd:66:51:0c:bd:54:b3:
                    e1:6d:5f:1c:bc:23:73:d1:09:03:89:14:d2:10:b9:
                    64:c3:2a:d0:a1:96:4a:bc:e1:d4:1a:5b:c7:a0:c0:
                    c1:63:78:0f:44:37:30:32:96:80:32:23:95:a1:77:
                    ba:13:d2:97:73:e2:5d:25:c9:6a:0d:c3:39:60:a4:
                    b4:b0:69:42:42:09:e9:d8:08:bc:33:20:b3:58:22:
                    a7:aa:eb:c4:e1:e6:61:83:c5:d2:96:df:d9:d0:4f:
                    ad:d7
                Exponent: 65537 (0x10001)
    Signature Algorithm: sha256WithRSAEncryption
         59:58:d4:6f:58:56:b5:a8:93:1c:32:3c:be:f1:e2:e8:93:c9:
         64:69:b3:8e:87:66:20:62:27:23:ff:3a:99:73:4b:56:27:27:
         9f:2a:17:56:d9:6d:01:a1:f5:e7:50:aa:ff:23:fb:4e:3d:35:
         fe:60:d4:ba:fd:01:1a:5b:99:c8:72:e8:19:bc:82:92:26:c8:
         02:09:6a:5b:50:b1:69:ab:49:9b:f5:07:f5:bd:f1:70:13:0e:
         c7:69:7d:ca:78:9b:84:6f:b0:c7:c9:48:da:2e:c7:2e:44:18:
         15:17:ce:23:63:fa:ae:bb:da:0d:72:fa:e6:99:d5:00:bb:55:
         1f:7b:73:da:ad:36:e7:43:db:20:82:e5:83:a9:7f:49:f2:e3:
         26:8d:23:ea:da:a0:9a:1d:fa:6a:12:a8:c9:e8:01:87:8b:39:
         90:3e:f9:b5:f2:36:ed:87:5c:55:6d:b7:40:34:59:cb:04:6e:
         06:c6:f0:4b:31:51:25:50:c7:a2:5f:a0:ba:0a:6f:fb:13:01:
         ef:21:18:af:64:9d:39:b8:b1:9b:0f:8d:34:12:26:43:a0:51:
         4d:82:27:f8:19:dc:fc:29:d6:29:5e:22:b9:f4:da:e7:c0:2a:
         1c:0c:7a:d9:0f:cb:08:a0:41:40:03:4f:cb:04:20:2a:f4:e0:
         bd:9b:fa:53
-----BEGIN CERTIFICATE-----
MIIDyTCCArGgAwIBAgIJAMiqbuNOv+00MA0GCSqGSIb3DQEBCwUAMIGjMQswCQYD
VQQGEwJVUzEQMA4GA1UECAwHTW9udGFuYTEQMA4GA1UEBwwHQm96ZW1hbjEUMBIG
A1UECwwLRW5naW5lZXJpbmcxOTA3BgNVBAMMMERFUjozMDowZDo4MjowYjo2Yzo2
Zjo2Mzo2MTo2Yzo2ODo2Zjo3Mzo3NDowMDo2ODEfMB0GCSqGSIb3DQEJARYQaW5m
b0B3b2xmc3NsLmNvbTAeFw0xODA5MTkyMTIxMjRaFw0yMTA2MTUyMTIxMjRaMIGj
MQswCQYDVQQGEwJVUzEQMA4GA1UECAwHTW9udGFuYTEQMA4GA1UEBwwHQm96ZW1h
bjEUMBIGA1UECwwLRW5naW5lZXJpbmcxOTA3BgNVBAMMMERFUjozMDowZDo4Mjow
Yjo2Yzo2Zjo2Mzo2MTo2Yzo2ODo2Zjo3Mzo3NDowMDo2ODEfMB0GCSqGSIb3DQEJ
ARYQaW5mb0B3b2xmc3NsLmNvbTCCASIwDQYJKoZIhvcNAQEBBQADggEPADCCAQoC
ggEBAMCVCOFXQfJxbbfSRUEnAWXGRa7yvCQwuJXOL07W9hyIvHyf+6hnf/5cnFF1
94rKB+c1L4/hvXvAL3yrZKgX/Mpde7rgIeVyLm8uhtiVc9qsG1O5Xz/XGQ0lT+Fj
Y1GLC2Q/rUO4pRxcNLOuAKBjxfZ/C1loeHOmjBipAm2vwxkBLrgQ48bMQLRpo0Yz
aYduxLsXpvPo3a1zvHsvIbX9ZlEMvVSz4W1fHLwjc9EJA4kU0hC5ZMMq0KGWSrzh
1Bpbx6DAwWN4D0Q3MDKWgDIjlaF3uhPSl3PiXSXJag3DOWCktLBpQkIJ6dgIvDMg
s1gip6rrxOHmYYPF0pbf2dBPrdcCAwEAATANBgkqhkiG9w0BAQsFAAOCAQEAWVjU
b1hWtaiTHDI8vvHi6JPJZGmzjodmIGInI/86mXNLVicnnyoXVtltAaH151Cq/yP7
Tj01/mDUuv0BGluZyHLoGbyCkibIAglqW1CxaatJm/UH9b3xcBMOx2l9ynibhG+w
x8lI2i7HLkQYFRfOI2P6rrvaDXL65pnVALtVH3tz2q0250PbIILlg6l/SfLjJo0j
6tqgmh36ahKoyegBh4s5kD75tfI27YdcVW23QDRZywRuBsbwSzFRJVDHol+gugpv
+xMB7yEYr2SdObixmw+NNBImQ6BRTYIn+Bnc/CnWKV4iufTa58AqHAx62Q/LCKBB
QANPywQgKvTgvZv6Uw==
-----END CERTIFICATE-----
