Certificate:
    Data:
        Version: 3 (0x2)
        Serial Number:
            81:aa:d6:88:40:5c:21:41
    Signature Algorithm: sha256WithRSAEncryption
        Issuer: C = US, ST = Montana, L = Bozeman, OU = Engineering, CN = www.nomatch.com, emailAddress = info@wolfssl.com
        Validity
            Not Before: Sep 19 21:21:24 2018 GMT
            Not After : Jun 15 21:21:24 2021 GMT
        Subject: C = US, ST = Montana, L = Bozeman, OU = Engineering, CN = www.nomatch.com, emailAddress = info@wolfssl.com
        Subject Public Key Info:
            Public Key Algorithm: rsaEncryption
                Public-Key: (2048 bit)
                Modulus:
                    00:c0:95:08:e1:57:41:f2:71:6d:b7:d2:45:41:27:
                    01:65:c6:45:ae:f2:bc:24:30:b8:95:ce:2f:4e:d6:
                    f6:1c:88:bc:7c:9f:fb:a8:67:7f:fe:5c:9c:51:75:
                    f7:8a:ca:07:e7:35:2f:8f:e1:bd:7b:c0:2f:7c:ab:
                    64:a8:17:fc:ca:5d:7b:ba:e0:21:e5:72:2e:6f:2e:
                    86:d8:95:73:da:ac:1b:53:b9:5f:3f:d7:19:0d:25:
                    4f:e1:63:63:51:8b:0b:64:3f:ad:43:b8:a5:1c:5c:
                    34:b3:ae:00:a0:63:c5:f6:7f:0b:59:68:78:73:a6:
                    8c:18:a9:02:6d:af:c3:19:01:2e:b8:10:e3:c6:cc:
                    40:b4:69:a3:46:33:69:87:6e:c4:bb:17:a6:f3:e8:
                    dd:ad:73:bc:7b:2f:21:b5:fd:66:51:0c:bd:54:b3:
                    e1:6d:5f:1c:bc:23:73:d1:09:03:89:14:d2:10:b9:
                    64:c3:2a:d0:a1:96:4a:bc:e1:d4:1a:5b:c7:a0:c0:
                    c1:63:78:0f:44:37:30:32:96:80:32:23:95:a1:77:
                    ba:13:d2:97:73:e2:5d:25:c9:6a:0d:c3:39:60:a4:
                    b4:b0:69:42:42:09:e9:d8:08:bc:33:20:b3:58:22:
                    a7:aa:eb:c4:e1:e6:61:83:c5:d2:96:df:d9:d0:4f:
                    ad:d7
                Exponent: 65537 (0x10001)
        X509v3 extensions:
            X509v3 Subject Alternative Name: 
                DNS:*localhost
    Signature Algorithm: sha256WithRSAEncryption
         79:9c:b3:8c:52:fe:d2:38:36:4c:70:80:ee:36:db:cc:68:5f:
         a3:fb:c5:3e:a3:77:18:80:e9:88:69:da:39:69:bc:40:8b:2c:
         5c:c3:d0:4c:8b:17:05:12:a9:f1:d5:b7:9a:6a:6d:f7:19:09:
         20:22:dc:7f:11:b2:4e:df:7d:a2:1a:4d:fd:86:b9:bc:ee:e0:
         a0:94:47:fd:4d:5c:45:4c:47:a7:d8:95:22:1b:2c:be:88:b0:
         a1:94:15:31:34:bd:3a:01:3f:eb:67:ce:80:c0:1f:d5:9d:0e:
         be:9f:90:a1:15:45:ed:0f:27:50:6e:52:6c:2b:81:22:00:99:
         2c:71:2d:86:e2:58:87:73:4c:3d:6b:50:14:7b:96:54:6f:e5:
         19:69:01:3d:d8:dd:2e:30:e3:e1:15:35:a6:8d:5b:50:32:98:
         32:76:fe:19:28:ff:50:e2:c4:5e:e7:b7:60:ad:7a:f2:9f:62:
         4b:c8:22:d3:0f:e0:4a:48:5e:d5:c9:75:41:d5:ce:c2:4a:a2:
         5f:d2:75:a3:d3:d6:95:f2:be:e0:5e:da:87:2c:02:70:99:49:
         87:bc:0e:8b:92:73:fc:05:7d:18:b8:ed:96:b2:11:5c:83:8f:
         da:92:45:10:60:e3:db:c1:5f:94:b1:4c:82:d6:db:7a:05:b1:
         8f:78:74:35
-----BEGIN CERTIFICATE-----
MIIDojCCAoqgAwIBAgIJAIGq1ohAXCFBMA0GCSqGSIb3DQEBCwUAMIGCMQswCQYD
VQQGEwJVUzEQMA4GA1UECAwHTW9udGFuYTEQMA4GA1UEBwwHQm96ZW1hbjEUMBIG
A1UECwwLRW5naW5lZXJpbmcxGDAWBgNVBAMMD3d3dy5ub21hdGNoLmNvbTEfMB0G
CSqGSIb3DQEJARYQaW5mb0B3b2xmc3NsLmNvbTAeFw0xODA5MTkyMTIxMjRaFw0y
MTA2MTUyMTIxMjRaMIGCMQswCQYDVQQGEwJVUzEQMA4GA1UECAwHTW9udGFuYTEQ
MA4GA1UEBwwHQm96ZW1hbjEUMBIGA1UECwwLRW5naW5lZXJpbmcxGDAWBgNVBAMM
D3d3dy5ub21hdGNoLmNvbTEfMB0GCSqGSIb3DQEJARYQaW5mb0B3b2xmc3NsLmNv
bTCCASIwDQYJKoZIhvcNAQEBBQADggEPADCCAQoCggEBAMCVCOFXQfJxbbfSRUEn
AWXGRa7yvCQwuJXOL07W9hyIvHyf+6hnf/5cnFF194rKB+c1L4/hvXvAL3yrZKgX
/Mpde7rgIeVyLm8uhtiVc9qsG1O5Xz/XGQ0lT+FjY1GLC2Q/rUO4pRxcNLOuAKBj
xfZ/C1loeHOmjBipAm2vwxkBLrgQ48bMQLRpo0YzaYduxLsXpvPo3a1zvHsvIbX9
ZlEMvVSz4W1fHLwjc9EJA4kU0hC5ZMMq0KGWSrzh1Bpbx6DAwWN4D0Q3MDKWgDIj
laF3uhPSl3PiXSXJag3DOWCktLBpQkIJ6dgIvDMgs1gip6rrxOHmYYPF0pbf2dBP
rdcCAwEAAaMZMBcwFQYDVR0RBA4wDIIKKmxvY2FsaG9zdDANBgkqhkiG9w0BAQsF
AAOCAQEAeZyzjFL+0jg2THCA7jbbzGhfo/vFPqN3GIDpiGnaOWm8QIssXMPQTIsX
BRKp8dW3mmpt9xkJICLcfxGyTt99ohpN/Ya5vO7goJRH/U1cRUxHp9iVIhssvoiw
oZQVMTS9OgE/62fOgMAf1Z0Ovp+QoRVF7Q8nUG5SbCuBIgCZLHEthuJYh3NMPWtQ
FHuWVG/lGWkBPdjdLjDj4RU1po1bUDKYMnb+GSj/UOLEXue3YK168p9iS8gi0w/g
Skhe1cl1QdXOwkqiX9J1o9PWlfK+4F7ahywCcJlJh7wOi5Jz/AV9GLjtlrIRXIOP
2pJFEGDj28FflLFMgtbbegWxj3h0NQ==
-----END CERTIFICATE-----
