Certificate:
    Data:
        Version: 3 (0x2)
        Serial Number:
            cd:00:d2:2e:bb:c5:a6:5d
    Signature Algorithm: sha256WithRSAEncryption
        Issuer: C = US, ST = Montana, L = Bozeman, OU = Engineering, CN = www.nomatch.com, emailAddress = info@wolfssl.com
        Validity
            Not Before: Sep 19 21:21:24 2018 GMT
            Not After : Jun 15 21:21:24 2021 GMT
        Subject: C = US, ST = Montana, L = Bozeman, OU = Engineering, CN = www.nomatch.com, emailAddress = info@wolfssl.com
        Subject Public Key Info:
            Public Key Algorithm: rsaEncryption
                Public-Key: (2048 bit)
                Modulus:
                    00:c0:95:08:e1:57:41:f2:71:6d:b7:d2:45:41:27:
                    01:65:c6:45:ae:f2:bc:24:30:b8:95:ce:2f:4e:d6:
                    f6:1c:88:bc:7c:9f:fb:a8:67:7f:fe:5c:9c:51:75:
                    f7:8a:ca:07:e7:35:2f:8f:e1:bd:7b:c0:2f:7c:ab:
                    64:a8:17:fc:ca:5d:7b:ba:e0:21:e5:72:2e:6f:2e:
                    86:d8:95:73:da:ac:1b:53:b9:5f:3f:d7:19:0d:25:
                    4f:e1:63:63:51:8b:0b:64:3f:ad:43:b8:a5:1c:5c:
                    34:b3:ae:00:a0:63:c5:f6:7f:0b:59:68:78:73:a6:
                    8c:18:a9:02:6d:af:c3:19:01:2e:b8:10:e3:c6:cc:
                    40:b4:69:a3:46:33:69:87:6e:c4:bb:17:a6:f3:e8:
                    dd:ad:73:bc:7b:2f:21:b5:fd:66:51:0c:bd:54:b3:
                    e1:6d:5f:1c:bc:23:73:d1:09:03:89:14:d2:10:b9:
                    64:c3:2a:d0:a1:96:4a:bc:e1:d4:1a:5b:c7:a0:c0:
                    c1:63:78:0f:44:37:30:32:96:80:32:23:95:a1:77:
                    ba:13:d2:97:73:e2:5d:25:c9:6a:0d:c3:39:60:a4:
                    b4:b0:69:42:42:09:e9:d8:08:bc:33:20:b3:58:22:
                    a7:aa:eb:c4:e1:e6:61:83:c5:d2:96:df:d9:d0:4f:
                    ad:d7
                Exponent: 65537 (0x10001)
        X509v3 extensions:
            X509v3 Subject Alternative Name: 
                DNS:localhost
    Signature Algorithm: sha256WithRSAEncryption
         5e:9a:6d:ea:58:6d:a9:6e:fa:c7:bb:16:7d:5d:cb:97:54:cb:
         4f:e8:38:95:e2:1b:6c:ea:ad:4b:cb:ea:58:57:f7:2e:05:c9:
         57:9b:f1:cc:03:c1:29:7c:13:16:8f:78:d2:c0:ea:18:af:f8:
         1d:cf:f4:25:6c:33:cd:d8:9b:28:21:c4:dd:f0:df:10:73:10:
         ed:2e:30:c1:53:15:50:1f:f9:f8:d6:db:14:66:ad:a6:a7:78:
         7e:a1:46:50:f5:cf:07:21:e7:33:e4:25:d8:18:d2:1f:ca:7c:
         d6:45:d1:db:2f:34:ae:61:b1:1a:05:4e:ce:ba:b7:48:5f:b7:
         0d:9e:01:f0:5e:fd:f1:30:60:0d:59:6e:1b:d9:b7:29:15:31:
         d8:be:dc:2f:23:f5:13:4e:44:eb:2d:0e:52:9e:7e:3d:7d:a9:
         a0:af:88:0a:15:8c:cb:11:dc:24:b4:6b:af:3b:a5:e4:82:57:
         13:d1:ca:24:75:b0:53:bf:b8:ec:71:81:a3:84:a9:b7:fe:bb:
         31:1b:89:94:be:91:16:dd:67:1b:66:1b:79:81:19:3c:1d:29:
         1e:e0:dc:3f:0b:6e:0d:e5:0b:0a:43:28:f9:69:d7:7a:55:2c:
         e3:7b:2f:b7:66:34:ed:29:f5:c5:6d:09:51:d8:00:69:57:34:
         34:26:f3:b7
-----BEGIN CERTIFICATE-----
MIIDoTCCAomgAwIBAgIJAM0A0i67xaZdMA0GCSqGSIb3DQEBCwUAMIGCMQswCQYD
VQQGEwJVUzEQMA4GA1UECAwHTW9udGFuYTEQMA4GA1UEBwwHQm96ZW1hbjEUMBIG
A1UECwwLRW5naW5lZXJpbmcxGDAWBgNVBAMMD3d3dy5ub21hdGNoLmNvbTEfMB0G
CSqGSIb3DQEJARYQaW5mb0B3b2xmc3NsLmNvbTAeFw0xODA5MTkyMTIxMjRaFw0y
MTA2MTUyMTIxMjRaMIGCMQswCQYDVQQGEwJVUzEQMA4GA1UECAwHTW9udGFuYTEQ
MA4GA1UEBwwHQm96ZW1hbjEUMBIGA1UECwwLRW5naW5lZXJpbmcxGDAWBgNVBAMM
D3d3dy5ub21hdGNoLmNvbTEfMB0GCSqGSIb3DQEJARYQaW5mb0B3b2xmc3NsLmNv
bTCCASIwDQYJKoZIhvcNAQEBBQADggEPADCCAQoCggEBAMCVCOFXQfJxbbfSRUEn
AWXGRa7yvCQwuJXOL07W9hyIvHyf+6hnf/5cnFF194rKB+c1L4/hvXvAL3yrZKgX
/Mpde7rgIeVyLm8uhtiVc9qsG1O5Xz/XGQ0lT+FjY1GLC2Q/rUO4pRxcNLOuAKBj
xfZ/C1loeHOmjBipAm2vwxkBLrgQ48bMQLRpo0YzaYduxLsXpvPo3a1zvHsvIbX9
ZlEMvVSz4W1fHLwjc9EJA4kU0hC5ZMMq0KGWSrzh1Bpbx6DAwWN4D0Q3MDKWgDIj
laF3uhPSl3PiXSXJag3DOWCktLBpQkIJ6dgIvDMgs1gip6rrxOHmYYPF0pbf2dBP
rdcCAwEAAaMYMBYwFAYDVR0RBA0wC4IJbG9jYWxob3N0MA0GCSqGSIb3DQEBCwUA
A4IBAQBemm3qWG2pbvrHuxZ9XcuXVMtP6DiV4hts6q1Ly+pYV/cuBclXm/HMA8Ep
fBMWj3jSwOoYr/gdz/QlbDPN2JsoIcTd8N8QcxDtLjDBUxVQH/n41tsUZq2mp3h+
oUZQ9c8HIecz5CXYGNIfynzWRdHbLzSuYbEaBU7OurdIX7cNngHwXv3xMGANWW4b
2bcpFTHYvtwvI/UTTkTrLQ5Snn49famgr4gKFYzLEdwktGuvO6XkglcT0cokdbBT
v7jscYGjhKm3/rsxG4mUvpEW3WcbZht5gRk8HSke4Nw/C24N5QsKQyj5add6VSzj
ey+3ZjTtKfXFbQlR2ABpVzQ0JvO3
-----END CERTIFICATE-----
