Certificate:
    Data:
        Version: 3 (0x2)
        Serial Number:
            e7:ad:a9:3a:44:c1:7e:48
    Signature Algorithm: sha256WithRSAEncryption
        Issuer: C = US, ST = Montana, L = Bozeman, OU = Engineering, CN = *localhost, emailAddress = info@wolfssl.com
        Validity
            Not Before: Sep 19 21:21:24 2018 GMT
            Not After : Jun 15 21:21:24 2021 GMT
        Subject: C = US, ST = Montana, L = Bozeman, OU = Engineering, CN = *localhost, emailAddress = info@wolfssl.com
        Subject Public Key Info:
            Public Key Algorithm: rsaEncryption
                Public-Key: (2048 bit)
                Modulus:
                    00:c0:95:08:e1:57:41:f2:71:6d:b7:d2:45:41:27:
                    01:65:c6:45:ae:f2:bc:24:30:b8:95:ce:2f:4e:d6:
                    f6:1c:88:bc:7c:9f:fb:a8:67:7f:fe:5c:9c:51:75:
                    f7:8a:ca:07:e7:35:2f:8f:e1:bd:7b:c0:2f:7c:ab:
                    64:a8:17:fc:ca:5d:7b:ba:e0:21:e5:72:2e:6f:2e:
                    86:d8:95:73:da:ac:1b:53:b9:5f:3f:d7:19:0d:25:
                    4f:e1:63:63:51:8b:0b:64:3f:ad:43:b8:a5:1c:5c:
                    34:b3:ae:00:a0:63:c5:f6:7f:0b:59:68:78:73:a6:
                    8c:18:a9:02:6d:af:c3:19:01:2e:b8:10:e3:c6:cc:
                    40:b4:69:a3:46:33:69:87:6e:c4:bb:17:a6:f3:e8:
                    dd:ad:73:bc:7b:2f:21:b5:fd:66:51:0c:bd:54:b3:
                    e1:6d:5f:1c:bc:23:73:d1:09:03:89:14:d2:10:b9:
                    64:c3:2a:d0:a1:96:4a:bc:e1:d4:1a:5b:c7:a0:c0:
                    c1:63:78:0f:44:37:30:32:96:80:32:23:95:a1:77:
                    ba:13:d2:97:73:e2:5d:25:c9:6a:0d:c3:39:60:a4:
                    b4:b0:69:42:42:09:e9:d8:08:bc:33:20:b3:58:22:
                    a7:aa:eb:c4:e1:e6:61:83:c5:d2:96:df:d9:d0:4f:
                    ad:d7
                Exponent: 65537 (0x10001)
    Signature Algorithm: sha256WithRSAEncryption
         a5:03:1d:6f:49:00:29:c5:92:14:8f:3b:8f:aa:e9:1f:b6:fd:
         f1:32:5a:1a:dd:4b:36:f5:83:1f:45:e0:aa:95:6c:6f:b9:fd:
         f9:04:10:df:73:fc:e2:e5:15:4c:04:51:95:74:77:d0:d5:d3:
         13:b9:16:1a:db:02:9f:61:c5:71:d0:41:80:f3:1d:bd:f6:0f:
         30:5a:cc:bf:e0:b7:22:7a:2f:51:46:20:d9:f3:c6:ea:0a:0b:
         23:69:a1:b9:96:3b:7d:af:bd:f0:1a:b2:b3:05:4a:fd:b2:71:
         3e:e7:24:8a:57:69:17:0c:18:3a:3a:84:a1:28:37:45:7b:8f:
         c7:c6:28:5f:3f:c2:8d:51:2c:0b:77:61:c3:78:a2:c0:1f:0b:
         0f:23:5a:a9:1d:e6:2b:67:9a:0e:fa:f9:d7:de:73:53:e9:96:
         b0:e6:5a:ef:3f:21:58:86:a4:df:9a:17:db:39:04:9f:04:42:
         ec:b4:de:24:59:99:fc:cd:df:f0:be:44:f4:76:fe:c4:5a:05:
         ae:a5:f5:51:7f:50:2c:57:c7:95:b8:e1:ad:8a:27:39:ce:fa:
         68:17:d0:bf:73:66:5b:06:2d:fb:c0:7e:35:bc:a5:70:ec:8d:
         aa:45:f5:fe:30:2f:e3:a1:9f:75:f6:d1:46:14:c5:36:52:59:
         49:68:2f:3e
-----BEGIN CERTIFICATE-----
MIIDezCCAmOgAwIBAgIJAOetqTpEwX5IMA0GCSqGSIb3DQEBCwUAMH0xCzAJBgNV
BAYTAlVTMRAwDgYDVQQIDAdNb250YW5hMRAwDgYDVQQHDAdCb3plbWFuMRQwEgYD
VQQLDAtFbmdpbmVlcmluZzETMBEGA1UEAwwKKmxvY2FsaG9zdDEfMB0GCSqGSIb3
DQEJARYQaW5mb0B3b2xmc3NsLmNvbTAeFw0xODA5MTkyMTIxMjRaFw0yMTA2MTUy
MTIxMjRaMH0xCzAJBgNVBAYTAlVTMRAwDgYDVQQIDAdNb250YW5hMRAwDgYDVQQH
DAdCb3plbWFuMRQwEgYDVQQLDAtFbmdpbmVlcmluZzETMBEGA1UEAwwKKmxvY2Fs
aG9zdDEfMB0GCSqGSIb3DQEJARYQaW5mb0B3b2xmc3NsLmNvbTCCASIwDQYJKoZI
hvcNAQEBBQADggEPADCCAQoCggEBAMCVCOFXQfJxbbfSRUEnAWXGRa7yvCQwuJXO
L07W9hyIvHyf+6hnf/5cnFF194rKB+c1L4/hvXvAL3yrZKgX/Mpde7rgIeVyLm8u
htiVc9qsG1O5Xz/XGQ0lT+FjY1GLC2Q/rUO4pRxcNLOuAKBjxfZ/C1loeHOmjBip
Am2vwxkBLrgQ48bMQLRpo0YzaYduxLsXpvPo3a1zvHsvIbX9ZlEMvVSz4W1fHLwj
c9EJA4kU0hC5ZMMq0KGWSrzh1Bpbx6DAwWN4D0Q3MDKWgDIjlaF3uhPSl3PiXSXJ
ag3DOWCktLBpQkIJ6dgIvDMgs1gip6rrxOHmYYPF0pbf2dBPrdcCAwEAATANBgkq
hkiG9w0BAQsFAAOCAQEApQMdb0kAKcWSFI87j6rpH7b98TJaGt1LNvWDH0XgqpVs
b7n9+QQQ33P84uUVTARRlXR30NXTE7kWGtsCn2HFcdBBgPMdvfYPMFrMv+C3Inov
UUYg2fPG6goLI2mhuZY7fa+98BqyswVK/bJxPuckildpFwwYOjqEoSg3RXuPx8Yo
Xz/CjVEsC3dhw3iiwB8LDyNaqR3mK2eaDvr5195zU+mWsOZa7z8hWIak35oX2zkE
nwRC7LTeJFmZ/M3f8L5E9Hb+xFoFrqX1UX9QLFfHlbjhrYonOc76aBfQv3NmWwYt
+8B+NbylcOyNqkX1/jAv46GfdfbRRhTFNlJZSWgvPg==
-----END CERTIFICATE-----
