Certificate:
    Data:
        Version: 3 (0x2)
        Serial Number:
            b2:b1:5d:67:1e:bd:3f:cb
    Signature Algorithm: sha256WithRSAEncryption
        Issuer: C = US, ST = Montana, L = Bozeman, OU = Engineering, CN = www.nomatch.com, emailAddress = info@wolfssl.com
        Validity
            Not Before: Sep 19 21:21:24 2018 GMT
            Not After : Jun 15 21:21:24 2021 GMT
        Subject: C = US, ST = Montana, L = Bozeman, OU = Engineering, CN = www.nomatch.com, emailAddress = info@wolfssl.com
        Subject Public Key Info:
            Public Key Algorithm: rsaEncryption
                Public-Key: (2048 bit)
                Modulus:
                    00:c0:95:08:e1:57:41:f2:71:6d:b7:d2:45:41:27:
                    01:65:c6:45:ae:f2:bc:24:30:b8:95:ce:2f:4e:d6:
                    f6:1c:88:bc:7c:9f:fb:a8:67:7f:fe:5c:9c:51:75:
                    f7:8a:ca:07:e7:35:2f:8f:e1:bd:7b:c0:2f:7c:ab:
                    64:a8:17:fc:ca:5d:7b:ba:e0:21:e5:72:2e:6f:2e:
                    86:d8:95:73:da:ac:1b:53:b9:5f:3f:d7:19:0d:25:
                    4f:e1:63:63:51:8b:0b:64:3f:ad:43:b8:a5:1c:5c:
                    34:b3:ae:00:a0:63:c5:f6:7f:0b:59:68:78:73:a6:
                    8c:18:a9:02:6d:af:c3:19:01:2e:b8:10:e3:c6:cc:
                    40:b4:69:a3:46:33:69:87:6e:c4:bb:17:a6:f3:e8:
                    dd:ad:73:bc:7b:2f:21:b5:fd:66:51:0c:bd:54:b3:
                    e1:6d:5f:1c:bc:23:73:d1:09:03:89:14:d2:10:b9:
                    64:c3:2a:d0:a1:96:4a:bc:e1:d4:1a:5b:c7:a0:c0:
                    c1:63:78:0f:44:37:30:32:96:80:32:23:95:a1:77:
                    ba:13:d2:97:73:e2:5d:25:c9:6a:0d:c3:39:60:a4:
                    b4:b0:69:42:42:09:e9:d8:08:bc:33:20:b3:58:22:
                    a7:aa:eb:c4:e1:e6:61:83:c5:d2:96:df:d9:d0:4f:
                    ad:d7
                Exponent: 65537 (0x10001)
        X509v3 extensions:
            X509v3 Subject Alternative Name: 
                DNS:www.nomatch.com
    Signature Algorithm: sha256WithRSAEncryption
         b3:a6:46:25:12:aa:40:b8:db:4e:7f:c5:06:ae:76:51:67:cc:
         a1:58:bf:47:37:1f:59:99:e8:3e:2d:c8:38:84:19:18:f5:c1:
         d3:2d:c5:82:11:e7:94:c4:0f:f1:d1:e6:30:d2:9a:20:07:33:
         3c:e9:8d:a3:7c:e3:40:d5:e1:ec:8c:94:60:f1:93:8a:10:bb:
         a8:dd:0c:6c:89:68:8c:f2:e3:53:a3:58:21:5b:7d:ab:b2:f2:
         7c:1a:06:8f:2d:fd:89:75:1f:9f:92:24:9b:f9:1e:a0:dd:01:
         08:a4:2c:58:40:29:c6:b9:46:42:66:4f:d6:21:db:42:24:47:
         1b:74:94:99:d2:14:84:5b:75:49:03:92:f3:51:7b:c5:53:68:
         04:98:a6:0c:08:86:91:28:c8:d4:86:5f:3d:0e:05:54:bd:05:
         a6:99:2e:94:c9:db:e0:5e:19:94:6d:4a:a2:81:73:e7:d3:8f:
         e4:ec:f3:fe:22:26:ae:8a:86:01:e2:c6:7c:38:dc:88:54:25:
         69:aa:d4:1c:33:d8:9a:ae:83:95:59:1a:6f:d6:27:e4:03:7a:
         25:66:16:02:7d:2b:fb:ff:8e:82:1b:4f:2c:d6:ca:61:16:08:
         aa:44:0f:aa:76:3b:72:87:21:dd:a8:5d:38:fc:c7:03:3c:4a:
         0a:80:7a:4e
-----BEGIN CERTIFICATE-----
MIIDpzCCAo+gAwIBAgIJALKxXWcevT/LMA0GCSqGSIb3DQEBCwUAMIGCMQswCQYD
VQQGEwJVUzEQMA4GA1UECAwHTW9udGFuYTEQMA4GA1UEBwwHQm96ZW1hbjEUMBIG
A1UECwwLRW5naW5lZXJpbmcxGDAWBgNVBAMMD3d3dy5ub21hdGNoLmNvbTEfMB0G
CSqGSIb3DQEJARYQaW5mb0B3b2xmc3NsLmNvbTAeFw0xODA5MTkyMTIxMjRaFw0y
MTA2MTUyMTIxMjRaMIGCMQswCQYDVQQGEwJVUzEQMA4GA1UECAwHTW9udGFuYTEQ
MA4GA1UEBwwHQm96ZW1hbjEUMBIGA1UECwwLRW5naW5lZXJpbmcxGDAWBgNVBAMM
D3d3dy5ub21hdGNoLmNvbTEfMB0GCSqGSIb3DQEJARYQaW5mb0B3b2xmc3NsLmNv
bTCCASIwDQYJKoZIhvcNAQEBBQADggEPADCCAQoCggEBAMCVCOFXQfJxbbfSRUEn
AWXGRa7yvCQwuJXOL07W9hyIvHyf+6hnf/5cnFF194rKB+c1L4/hvXvAL3yrZKgX
/Mpde7rgIeVyLm8uhtiVc9qsG1O5Xz/XGQ0lT+FjY1GLC2Q/rUO4pRxcNLOuAKBj
xfZ/C1loeHOmjBipAm2vwxkBLrgQ48bMQLRpo0YzaYduxLsXpvPo3a1zvHsvIbX9
ZlEMvVSz4W1fHLwjc9EJA4kU0hC5ZMMq0KGWSrzh1Bpbx6DAwWN4D0Q3MDKWgDIj
laF3uhPSl3PiXSXJag3DOWCktLBpQkIJ6dgIvDMgs1gip6rrxOHmYYPF0pbf2dBP
rdcCAwEAAaMeMBwwGgYDVR0RBBMwEYIPd3d3Lm5vbWF0Y2guY29tMA0GCSqGSIb3
DQEBCwUAA4IBAQCzpkYlEqpAuNtOf8UGrnZRZ8yhWL9HNx9Zmeg+Lcg4hBkY9cHT
LcWCEeeUxA/x0eYw0pogBzM86Y2jfONA1eHsjJRg8ZOKELuo3QxsiWiM8uNTo1gh
W32rsvJ8GgaPLf2JdR+fkiSb+R6g3QEIpCxYQCnGuUZCZk/WIdtCJEcbdJSZ0hSE
W3VJA5LzUXvFU2gEmKYMCIaRKMjUhl89DgVUvQWmmS6UydvgXhmUbUqigXPn04/k
7PP+IiauioYB4sZ8ONyIVCVpqtQcM9iaroOVWRpv1ifkA3olZhYCfSv7/46CG08s
1sphFgiqRA+qdjtyhyHdqF04/McDPEoKgHpO
-----END CERTIFICATE-----
