Certificate:
    Data:
        Version: 3 (0x2)
        Serial Number: 2 (0x2)
    Signature Algorithm: sha256WithRSAEncryption
        Issuer: C=US, ST=Montana, L=Bozeman, O=Sawtooth, OU=Consulting, CN=www.wolfssl.com/emailAddress=info@wolfssl.com
        Validity
            Not Before: Apr 13 15:23:10 2018 GMT
            Not After : Jan  7 15:23:10 2021 GMT
        Subject: C=US, ST=Montana, L=Bozeman, O=wolfSSL, OU=testing duplicate policy, CN=www.wolfssl.com/emailAddress=info@wolfssl.com
        Subject Public Key Info:
            Public Key Algorithm: rsaEncryption
                Public-Key: (2048 bit)
                Modulus:
                    00:c0:95:08:e1:57:41:f2:71:6d:b7:d2:45:41:27:
                    01:65:c6:45:ae:f2:bc:24:30:b8:95:ce:2f:4e:d6:
                    f6:1c:88:bc:7c:9f:fb:a8:67:7f:fe:5c:9c:51:75:
                    f7:8a:ca:07:e7:35:2f:8f:e1:bd:7b:c0:2f:7c:ab:
                    64:a8:17:fc:ca:5d:7b:ba:e0:21:e5:72:2e:6f:2e:
                    86:d8:95:73:da:ac:1b:53:b9:5f:3f:d7:19:0d:25:
                    4f:e1:63:63:51:8b:0b:64:3f:ad:43:b8:a5:1c:5c:
                    34:b3:ae:00:a0:63:c5:f6:7f:0b:59:68:78:73:a6:
                    8c:18:a9:02:6d:af:c3:19:01:2e:b8:10:e3:c6:cc:
                    40:b4:69:a3:46:33:69:87:6e:c4:bb:17:a6:f3:e8:
                    dd:ad:73:bc:7b:2f:21:b5:fd:66:51:0c:bd:54:b3:
                    e1:6d:5f:1c:bc:23:73:d1:09:03:89:14:d2:10:b9:
                    64:c3:2a:d0:a1:96:4a:bc:e1:d4:1a:5b:c7:a0:c0:
                    c1:63:78:0f:44:37:30:32:96:80:32:23:95:a1:77:
                    ba:13:d2:97:73:e2:5d:25:c9:6a:0d:c3:39:60:a4:
                    b4:b0:69:42:42:09:e9:d8:08:bc:33:20:b3:58:22:
                    a7:aa:eb:c4:e1:e6:61:83:c5:d2:96:df:d9:d0:4f:
                    ad:d7
                Exponent: 65537 (0x10001)
        X509v3 extensions:
            X509v3 Subject Key Identifier: 
                B3:11:32:C9:92:98:84:E2:C9:F8:D0:3B:6E:03:42:CA:1F:0E:8E:3C
            X509v3 Authority Key Identifier: 
                keyid:27:8E:67:11:74:C3:26:1D:3F:ED:33:63:B3:A4:D8:1D:30:E5:E8:D5
                DirName:/C=US/ST=Montana/L=Bozeman/O=Sawtooth/OU=Consulting/CN=www.wolfssl.com/emailAddress=info@wolfssl.com
                serial:86:FF:F5:8E:10:DE:B8:FB

            X509v3 Basic Constraints: 
                CA:FALSE
            X509v3 Certificate Policies: 
                Policy: 1.2.3.4
                Policy: 1.2.3.4
                  CPS: www.wolfssl.com
                  User Notice:
                    Explicit Text: Test of duplicate OIDs with different qualifiers

    Signature Algorithm: sha256WithRSAEncryption
         a0:b0:d4:b9:0b:bb:1e:3a:50:21:43:6a:e0:99:61:7e:46:cb:
         d6:d3:5a:84:47:4c:9b:e9:13:c8:d4:44:b5:17:1f:52:29:a8:
         3d:e1:33:50:4a:4a:9c:a4:8d:86:99:83:72:7e:87:ba:04:b0:
         bc:9b:39:ce:73:15:49:99:03:f1:e1:b5:ef:cb:85:bc:45:5e:
         a8:fd:f6:82:f2:45:80:31:e9:cd:56:9b:cc:84:ff:6c:36:ee:
         a6:e0:7f:a7:f1:49:0d:b6:ed:12:5b:34:05:b8:c5:4d:e2:ec:
         5b:25:dd:9c:3a:1a:4b:dc:cf:8e:41:a4:dd:ca:83:6a:cc:bc:
         cd:4d:75:92:1f:45:8a:b0:6d:e4:72:8d:2c:18:12:26:b2:dc:
         3f:47:bd:76:c1:cb:da:9e:bd:58:10:6c:3e:57:22:9b:34:3e:
         6f:88:d7:e3:fd:4f:f5:97:a2:d2:9f:1d:58:fc:36:fa:94:dd:
         4e:13:e6:57:35:1c:5c:a5:69:6a:ce:3d:d3:21:51:1a:1a:3e:
         cf:89:a4:c1:a0:9e:c4:0f:a1:d1:39:ac:31:1e:5e:e7:2f:d0:
         22:c3:9f:4d:57:90:ab:d6:f8:3d:dc:7f:9d:71:94:5d:95:48:
         9d:01:66:13:3a:26:0f:76:cc:c2:63:7d:0c:c8:0c:88:6b:84:
         01:c7:0a:a4
-----BEGIN CERTIFICATE-----
MIIFJjCCBA6gAwIBAgIBAjANBgkqhkiG9w0BAQsFADCBlDELMAkGA1UEBhMCVVMx
EDAOBgNVBAgMB01vbnRhbmExEDAOBgNVBAcMB0JvemVtYW4xETAPBgNVBAoMCFNh
d3Rvb3RoMRMwEQYDVQQLDApDb25zdWx0aW5nMRgwFgYDVQQDDA93d3cud29sZnNz
bC5jb20xHzAdBgkqhkiG9w0BCQEWEGluZm9Ad29sZnNzbC5jb20wHhcNMTgwNDEz
MTUyMzEwWhcNMjEwMTA3MTUyMzEwWjCBoTELMAkGA1UEBhMCVVMxEDAOBgNVBAgM
B01vbnRhbmExEDAOBgNVBAcMB0JvemVtYW4xEDAOBgNVBAoMB3dvbGZTU0wxITAf
BgNVBAsMGHRlc3RpbmcgZHVwbGljYXRlIHBvbGljeTEYMBYGA1UEAwwPd3d3Lndv
bGZzc2wuY29tMR8wHQYJKoZIhvcNAQkBFhBpbmZvQHdvbGZzc2wuY29tMIIBIjAN
BgkqhkiG9w0BAQEFAAOCAQ8AMIIBCgKCAQEAwJUI4VdB8nFtt9JFQScBZcZFrvK8
JDC4lc4vTtb2HIi8fJ/7qGd//lycUXX3isoH5zUvj+G9e8AvfKtkqBf8yl17uuAh
5XIuby6G2JVz2qwbU7lfP9cZDSVP4WNjUYsLZD+tQ7ilHFw0s64AoGPF9n8LWWh4
c6aMGKkCba/DGQEuuBDjxsxAtGmjRjNph27Euxem8+jdrXO8ey8htf1mUQy9VLPh
bV8cvCNz0QkDiRTSELlkwyrQoZZKvOHUGlvHoMDBY3gPRDcwMpaAMiOVoXe6E9KX
c+JdJclqDcM5YKS0sGlCQgnp2Ai8MyCzWCKnquvE4eZhg8XSlt/Z0E+t1wIDAQAB
o4IBcjCCAW4wHQYDVR0OBBYEFLMRMsmSmITiyfjQO24DQsofDo48MIHJBgNVHSME
gcEwgb6AFCeOZxF0wyYdP+0zY7Ok2B0w5ejVoYGapIGXMIGUMQswCQYDVQQGEwJV
UzEQMA4GA1UECAwHTW9udGFuYTEQMA4GA1UEBwwHQm96ZW1hbjERMA8GA1UECgwI
U2F3dG9vdGgxEzARBgNVBAsMCkNvbnN1bHRpbmcxGDAWBgNVBAMMD3d3dy53b2xm
c3NsLmNvbTEfMB0GCSqGSIb3DQEJARYQaW5mb0B3b2xmc3NsLmNvbYIJAIb/9Y4Q
3rj7MAkGA1UdEwQCMAAwdgYDVR0gBG8wbTAFBgMqAwQwZAYDKgMEMF0wGwYIKwYB
BQUHAgEWD3d3dy53b2xmc3NsLmNvbTA+BggrBgEFBQcCAjAyGjBUZXN0IG9mIGR1
cGxpY2F0ZSBPSURzIHdpdGggZGlmZmVyZW50IHF1YWxpZmllcnMwDQYJKoZIhvcN
AQELBQADggEBAKCw1LkLux46UCFDauCZYX5Gy9bTWoRHTJvpE8jURLUXH1IpqD3h
M1BKSpykjYaZg3J+h7oEsLybOc5zFUmZA/Hhte/LhbxFXqj99oLyRYAx6c1Wm8yE
/2w27qbgf6fxSQ227RJbNAW4xU3i7Fsl3Zw6Gkvcz45BpN3Kg2rMvM1NdZIfRYqw
beRyjSwYEiay3D9HvXbBy9qevVgQbD5XIps0Pm+I1+P9T/WXotKfHVj8NvqU3U4T
5lc1HFylaWrOPdMhURoaPs+JpMGgnsQPodE5rDEeXucv0CLDn01XkKvW+D3cf51x
lF2VSJ0BZhM6Jg92zMJjfQzIDIhrhAHHCqQ=
-----END CERTIFICATE-----
Certificate:
    Data:
        Version: 3 (0x2)
        Serial Number: 9727763710660753659 (0x86fff58e10deb8fb)
    Signature Algorithm: sha256WithRSAEncryption
        Issuer: C=US, ST=Montana, L=Bozeman, O=Sawtooth, OU=Consulting, CN=www.wolfssl.com/emailAddress=info@wolfssl.com
        Validity
            Not Before: Apr 13 15:23:09 2018 GMT
            Not After : Jan  7 15:23:09 2021 GMT
        Subject: C=US, ST=Montana, L=Bozeman, O=Sawtooth, OU=Consulting, CN=www.wolfssl.com/emailAddress=info@wolfssl.com
        Subject Public Key Info:
            Public Key Algorithm: rsaEncryption
                Public-Key: (2048 bit)
                Modulus:
                    00:bf:0c:ca:2d:14:b2:1e:84:42:5b:cd:38:1f:4a:
                    f2:4d:75:10:f1:b6:35:9f:df:ca:7d:03:98:d3:ac:
                    de:03:66:ee:2a:f1:d8:b0:7d:6e:07:54:0b:10:98:
                    21:4d:80:cb:12:20:e7:cc:4f:de:45:7d:c9:72:77:
                    32:ea:ca:90:bb:69:52:10:03:2f:a8:f3:95:c5:f1:
                    8b:62:56:1b:ef:67:6f:a4:10:41:95:ad:0a:9b:e3:
                    a5:c0:b0:d2:70:76:50:30:5b:a8:e8:08:2c:7c:ed:
                    a7:a2:7a:8d:38:29:1c:ac:c7:ed:f2:7c:95:b0:95:
                    82:7d:49:5c:38:cd:77:25:ef:bd:80:75:53:94:3c:
                    3d:ca:63:5b:9f:15:b5:d3:1d:13:2f:19:d1:3c:db:
                    76:3a:cc:b8:7d:c9:e5:c2:d7:da:40:6f:d8:21:dc:
                    73:1b:42:2d:53:9c:fe:1a:fc:7d:ab:7a:36:3f:98:
                    de:84:7c:05:67:ce:6a:14:38:87:a9:f1:8c:b5:68:
                    cb:68:7f:71:20:2b:f5:a0:63:f5:56:2f:a3:26:d2:
                    b7:6f:b1:5a:17:d7:38:99:08:fe:93:58:6f:fe:c3:
                    13:49:08:16:0b:a7:4d:67:00:52:31:67:23:4e:98:
                    ed:51:45:1d:b9:04:d9:0b:ec:d8:28:b3:4b:bd:ed:
                    36:79
                Exponent: 65537 (0x10001)
        X509v3 extensions:
            X509v3 Subject Key Identifier: 
                27:8E:67:11:74:C3:26:1D:3F:ED:33:63:B3:A4:D8:1D:30:E5:E8:D5
            X509v3 Authority Key Identifier: 
                keyid:27:8E:67:11:74:C3:26:1D:3F:ED:33:63:B3:A4:D8:1D:30:E5:E8:D5
                DirName:/C=US/ST=Montana/L=Bozeman/O=Sawtooth/OU=Consulting/CN=www.wolfssl.com/emailAddress=info@wolfssl.com
                serial:86:FF:F5:8E:10:DE:B8:FB

            X509v3 Basic Constraints: 
                CA:TRUE
    Signature Algorithm: sha256WithRSAEncryption
         9e:28:88:72:00:ca:e6:e7:97:ca:c1:f1:1f:9e:12:b2:b8:c7:
         51:ea:28:e1:36:b5:2d:e6:2f:08:23:cb:a9:4a:87:25:c6:5d:
         89:45:ea:f5:00:98:ac:76:fb:1b:af:f0:ce:64:9e:da:08:bf:
         b6:eb:b4:b5:0c:a0:e7:f6:47:59:1c:61:cf:2e:0e:58:a4:82:
         ac:0f:3f:ec:c4:ae:80:f7:b0:8a:1e:85:41:e8:ff:fe:fe:4f:
         1a:24:d5:49:fa:fb:fe:5e:e5:d3:91:0e:4f:4e:0c:21:51:71:
         83:04:6b:62:7b:4f:59:76:48:81:1e:b4:f7:04:47:8a:91:57:
         a3:11:a9:f2:20:b4:78:33:62:3d:b0:5e:0d:f9:86:38:82:da:
         a1:98:8d:19:06:87:21:39:b7:02:f7:da:7d:58:ba:52:15:d8:
         3b:c9:7b:58:34:a0:c7:e2:7c:a9:83:13:e1:b6:ec:01:bf:52:
         33:0b:c4:fe:43:d3:c6:a4:8e:2f:87:7f:7a:44:ea:ca:53:6c:
         85:ed:65:76:73:31:03:4e:ea:bd:35:54:13:f3:64:87:6b:df:
         34:dd:34:a1:88:3b:db:4d:af:1b:64:90:92:71:30:8e:c8:cc:
         e5:60:24:af:31:16:39:33:91:50:f9:ab:68:42:74:7a:35:d9:
         dd:c8:c4:52
-----BEGIN CERTIFICATE-----
MIIEqjCCA5KgAwIBAgIJAIb/9Y4Q3rj7MA0GCSqGSIb3DQEBCwUAMIGUMQswCQYD
VQQGEwJVUzEQMA4GA1UECAwHTW9udGFuYTEQMA4GA1UEBwwHQm96ZW1hbjERMA8G
A1UECgwIU2F3dG9vdGgxEzARBgNVBAsMCkNvbnN1bHRpbmcxGDAWBgNVBAMMD3d3
dy53b2xmc3NsLmNvbTEfMB0GCSqGSIb3DQEJARYQaW5mb0B3b2xmc3NsLmNvbTAe
Fw0xODA0MTMxNTIzMDlaFw0yMTAxMDcxNTIzMDlaMIGUMQswCQYDVQQGEwJVUzEQ
MA4GA1UECAwHTW9udGFuYTEQMA4GA1UEBwwHQm96ZW1hbjERMA8GA1UECgwIU2F3
dG9vdGgxEzARBgNVBAsMCkNvbnN1bHRpbmcxGDAWBgNVBAMMD3d3dy53b2xmc3Ns
LmNvbTEfMB0GCSqGSIb3DQEJARYQaW5mb0B3b2xmc3NsLmNvbTCCASIwDQYJKoZI
hvcNAQEBBQADggEPADCCAQoCggEBAL8Myi0Ush6EQlvNOB9K8k11EPG2NZ/fyn0D
mNOs3gNm7irx2LB9bgdUCxCYIU2AyxIg58xP3kV9yXJ3MurKkLtpUhADL6jzlcXx
i2JWG+9nb6QQQZWtCpvjpcCw0nB2UDBbqOgILHztp6J6jTgpHKzH7fJ8lbCVgn1J
XDjNdyXvvYB1U5Q8PcpjW58VtdMdEy8Z0TzbdjrMuH3J5cLX2kBv2CHccxtCLVOc
/hr8fat6Nj+Y3oR8BWfOahQ4h6nxjLVoy2h/cSAr9aBj9VYvoybSt2+xWhfXOJkI
/pNYb/7DE0kIFgunTWcAUjFnI06Y7VFFHbkE2Qvs2CizS73tNnkCAwEAAaOB/DCB
+TAdBgNVHQ4EFgQUJ45nEXTDJh0/7TNjs6TYHTDl6NUwgckGA1UdIwSBwTCBvoAU
J45nEXTDJh0/7TNjs6TYHTDl6NWhgZqkgZcwgZQxCzAJBgNVBAYTAlVTMRAwDgYD
VQQIDAdNb250YW5hMRAwDgYDVQQHDAdCb3plbWFuMREwDwYDVQQKDAhTYXd0b290
aDETMBEGA1UECwwKQ29uc3VsdGluZzEYMBYGA1UEAwwPd3d3LndvbGZzc2wuY29t
MR8wHQYJKoZIhvcNAQkBFhBpbmZvQHdvbGZzc2wuY29tggkAhv/1jhDeuPswDAYD
VR0TBAUwAwEB/zANBgkqhkiG9w0BAQsFAAOCAQEAniiIcgDK5ueXysHxH54SsrjH
Ueoo4Ta1LeYvCCPLqUqHJcZdiUXq9QCYrHb7G6/wzmSe2gi/tuu0tQyg5/ZHWRxh
zy4OWKSCrA8/7MSugPewih6FQej//v5PGiTVSfr7/l7l05EOT04MIVFxgwRrYntP
WXZIgR609wRHipFXoxGp8iC0eDNiPbBeDfmGOILaoZiNGQaHITm3AvfafVi6UhXY
O8l7WDSgx+J8qYMT4bbsAb9SMwvE/kPTxqSOL4d/ekTqylNshe1ldnMxA07qvTVU
E/Nkh2vfNN00oYg7202vG2SQknEwjsjM5WAkrzEWOTORUPmraEJ0ejXZ3cjEUg==
-----END CERTIFICATE-----
