Certificate:
    Data:
        Version: 3 (0x2)
        Serial Number:
            d8:e7:91:d6:1a:3a:ce:8a
    Signature Algorithm: sha256WithRSAEncryption
        Issuer: C = US, ST = Montana, L = Bozeman, OU = Engineering, CN = www.nomatch.com, emailAddress = info@wolfssl.com
        Validity
            Not Before: Sep 19 21:21:24 2018 GMT
            Not After : Jun 15 21:21:24 2021 GMT
        Subject: C = US, ST = Montana, L = Bozeman, OU = Engineering, CN = www.nomatch.com, emailAddress = info@wolfssl.com
        Subject Public Key Info:
            Public Key Algorithm: rsaEncryption
                Public-Key: (2048 bit)
                Modulus:
                    00:c0:95:08:e1:57:41:f2:71:6d:b7:d2:45:41:27:
                    01:65:c6:45:ae:f2:bc:24:30:b8:95:ce:2f:4e:d6:
                    f6:1c:88:bc:7c:9f:fb:a8:67:7f:fe:5c:9c:51:75:
                    f7:8a:ca:07:e7:35:2f:8f:e1:bd:7b:c0:2f:7c:ab:
                    64:a8:17:fc:ca:5d:7b:ba:e0:21:e5:72:2e:6f:2e:
                    86:d8:95:73:da:ac:1b:53:b9:5f:3f:d7:19:0d:25:
                    4f:e1:63:63:51:8b:0b:64:3f:ad:43:b8:a5:1c:5c:
                    34:b3:ae:00:a0:63:c5:f6:7f:0b:59:68:78:73:a6:
                    8c:18:a9:02:6d:af:c3:19:01:2e:b8:10:e3:c6:cc:
                    40:b4:69:a3:46:33:69:87:6e:c4:bb:17:a6:f3:e8:
                    dd:ad:73:bc:7b:2f:21:b5:fd:66:51:0c:bd:54:b3:
                    e1:6d:5f:1c:bc:23:73:d1:09:03:89:14:d2:10:b9:
                    64:c3:2a:d0:a1:96:4a:bc:e1:d4:1a:5b:c7:a0:c0:
                    c1:63:78:0f:44:37:30:32:96:80:32:23:95:a1:77:
                    ba:13:d2:97:73:e2:5d:25:c9:6a:0d:c3:39:60:a4:
                    b4:b0:69:42:42:09:e9:d8:08:bc:33:20:b3:58:22:
                    a7:aa:eb:c4:e1:e6:61:83:c5:d2:96:df:d9:d0:4f:
                    ad:d7
                Exponent: 65537 (0x10001)
    Signature Algorithm: sha256WithRSAEncryption
         4b:d3:ae:c0:12:36:af:f3:53:ca:55:b0:8e:d4:e3:9d:ec:fd:
         df:92:9a:cc:3f:b3:d9:4f:4f:8e:1d:20:b2:94:85:88:07:d4:
         7c:b3:8f:30:84:9b:9a:bf:46:3f:50:3f:3f:5f:59:f7:68:1e:
         b9:f6:9b:89:d7:e6:d5:b3:fd:01:22:df:e0:a2:50:9c:b4:e1:
         20:e7:27:e8:5a:ee:d1:1c:01:24:05:e5:8d:f9:ad:62:4c:1b:
         c7:28:b4:ce:11:69:c4:65:f1:c8:9c:cb:a4:84:a0:db:74:2d:
         fc:f6:da:a8:f6:e2:c8:9e:58:6e:3e:da:f9:7f:06:8c:3f:da:
         56:f3:c5:9e:11:b8:7d:4d:7d:f5:77:a8:0e:c7:9c:92:e7:a9:
         72:b7:18:06:6c:a1:5c:0d:bf:b4:0e:32:05:de:b7:94:cc:aa:
         a8:f5:b5:22:66:79:6a:58:23:87:18:67:60:a9:3d:56:89:16:
         73:41:6b:56:d2:46:b0:3c:36:26:ec:6c:bd:53:02:24:a7:c1:
         76:f8:2d:3b:7f:22:e0:46:2c:f0:bf:5d:09:cd:bc:d3:40:3a:
         42:e0:c8:d4:c0:18:f1:21:b4:22:62:3d:57:f9:2e:64:00:62:
         8d:78:4d:03:af:8b:c6:4e:0e:c1:d5:31:59:56:64:8a:75:c6:
         46:0e:42:80
-----BEGIN CERTIFICATE-----
MIIDhzCCAm+gAwIBAgIJANjnkdYaOs6KMA0GCSqGSIb3DQEBCwUAMIGCMQswCQYD
VQQGEwJVUzEQMA4GA1UECAwHTW9udGFuYTEQMA4GA1UEBwwHQm96ZW1hbjEUMBIG
A1UECwwLRW5naW5lZXJpbmcxGDAWBgNVBAMMD3d3dy5ub21hdGNoLmNvbTEfMB0G
CSqGSIb3DQEJARYQaW5mb0B3b2xmc3NsLmNvbTAeFw0xODA5MTkyMTIxMjRaFw0y
MTA2MTUyMTIxMjRaMIGCMQswCQYDVQQGEwJVUzEQMA4GA1UECAwHTW9udGFuYTEQ
MA4GA1UEBwwHQm96ZW1hbjEUMBIGA1UECwwLRW5naW5lZXJpbmcxGDAWBgNVBAMM
D3d3dy5ub21hdGNoLmNvbTEfMB0GCSqGSIb3DQEJARYQaW5mb0B3b2xmc3NsLmNv
bTCCASIwDQYJKoZIhvcNAQEBBQADggEPADCCAQoCggEBAMCVCOFXQfJxbbfSRUEn
AWXGRa7yvCQwuJXOL07W9hyIvHyf+6hnf/5cnFF194rKB+c1L4/hvXvAL3yrZKgX
/Mpde7rgIeVyLm8uhtiVc9qsG1O5Xz/XGQ0lT+FjY1GLC2Q/rUO4pRxcNLOuAKBj
xfZ/C1loeHOmjBipAm2vwxkBLrgQ48bMQLRpo0YzaYduxLsXpvPo3a1zvHsvIbX9
ZlEMvVSz4W1fHLwjc9EJA4kU0hC5ZMMq0KGWSrzh1Bpbx6DAwWN4D0Q3MDKWgDIj
laF3uhPSl3PiXSXJag3DOWCktLBpQkIJ6dgIvDMgs1gip6rrxOHmYYPF0pbf2dBP
rdcCAwEAATANBgkqhkiG9w0BAQsFAAOCAQEAS9OuwBI2r/NTylWwjtTjnez935Ka
zD+z2U9Pjh0gspSFiAfUfLOPMISbmr9GP1A/P19Z92geufabidfm1bP9ASLf4KJQ
nLThIOcn6Fru0RwBJAXljfmtYkwbxyi0zhFpxGXxyJzLpISg23Qt/PbaqPbiyJ5Y
bj7a+X8GjD/aVvPFnhG4fU199XeoDseckuepcrcYBmyhXA2/tA4yBd63lMyqqPW1
ImZ5algjhxhnYKk9VokWc0FrVtJGsDw2JuxsvVMCJKfBdvgtO38i4EYs8L9dCc28
00A6QuDI1MAY8SG0ImI9V/kuZABijXhNA6+Lxk4OwdUxWVZkinXGRg5CgA==
-----END CERTIFICATE-----
