Certificate:
    Data:
        Version: 3 (0x2)
        Serial Number:
            c2:e8:97:dd:c7:fe:a9:d4
    Signature Algorithm: sha256WithRSAEncryption
        Issuer: C = US, ST = Montana, L = Bozeman, OU = Engineering, CN = localhost, emailAddress = info@wolfssl.com
        Validity
            Not Before: Sep 19 21:21:24 2018 GMT
            Not After : Jun 15 21:21:24 2021 GMT
        Subject: C = US, ST = Montana, L = Bozeman, OU = Engineering, CN = localhost, emailAddress = info@wolfssl.com
        Subject Public Key Info:
            Public Key Algorithm: rsaEncryption
                Public-Key: (2048 bit)
                Modulus:
                    00:c0:95:08:e1:57:41:f2:71:6d:b7:d2:45:41:27:
                    01:65:c6:45:ae:f2:bc:24:30:b8:95:ce:2f:4e:d6:
                    f6:1c:88:bc:7c:9f:fb:a8:67:7f:fe:5c:9c:51:75:
                    f7:8a:ca:07:e7:35:2f:8f:e1:bd:7b:c0:2f:7c:ab:
                    64:a8:17:fc:ca:5d:7b:ba:e0:21:e5:72:2e:6f:2e:
                    86:d8:95:73:da:ac:1b:53:b9:5f:3f:d7:19:0d:25:
                    4f:e1:63:63:51:8b:0b:64:3f:ad:43:b8:a5:1c:5c:
                    34:b3:ae:00:a0:63:c5:f6:7f:0b:59:68:78:73:a6:
                    8c:18:a9:02:6d:af:c3:19:01:2e:b8:10:e3:c6:cc:
                    40:b4:69:a3:46:33:69:87:6e:c4:bb:17:a6:f3:e8:
                    dd:ad:73:bc:7b:2f:21:b5:fd:66:51:0c:bd:54:b3:
                    e1:6d:5f:1c:bc:23:73:d1:09:03:89:14:d2:10:b9:
                    64:c3:2a:d0:a1:96:4a:bc:e1:d4:1a:5b:c7:a0:c0:
                    c1:63:78:0f:44:37:30:32:96:80:32:23:95:a1:77:
                    ba:13:d2:97:73:e2:5d:25:c9:6a:0d:c3:39:60:a4:
                    b4:b0:69:42:42:09:e9:d8:08:bc:33:20:b3:58:22:
                    a7:aa:eb:c4:e1:e6:61:83:c5:d2:96:df:d9:d0:4f:
                    ad:d7
                Exponent: 65537 (0x10001)
    Signature Algorithm: sha256WithRSAEncryption
         26:28:b4:09:65:22:8f:32:5d:58:8c:40:ff:6f:7e:66:bf:6f:
         b5:69:4e:ee:ad:4e:f2:63:69:b1:79:21:4e:b4:76:84:06:90:
         e6:6e:a7:56:45:96:03:90:8c:88:32:92:ff:90:d9:b3:d0:28:
         d2:7c:34:f6:76:3a:cc:71:fa:fb:28:d1:29:8d:8b:73:ae:d7:
         7c:eb:63:34:01:80:58:3e:f0:d7:5b:17:4b:da:ae:5f:75:d1:
         92:41:05:d3:c0:1a:a2:c7:b8:ac:d8:70:08:fa:d5:d5:4e:17:
         18:ef:06:04:aa:9e:15:b8:e8:05:db:51:63:2d:95:c3:af:6a:
         54:65:84:cf:a0:7e:34:44:37:fc:5b:34:5e:2a:c9:a7:9c:a0:
         f1:c5:89:32:f1:71:df:91:b1:28:e8:e8:15:42:3b:0b:44:8e:
         dd:2d:83:6b:77:46:18:80:6e:a2:2b:2f:c7:e4:e7:fe:b1:3c:
         b4:3d:71:ba:9b:dc:85:4a:ba:87:c3:ad:15:10:e2:0a:ad:c3:
         db:e8:49:21:87:b8:05:f0:a2:29:5d:91:45:dd:73:53:10:94:
         8a:4f:1a:e2:c3:87:7b:26:4b:bc:b0:e2:5d:7c:af:06:8f:54:
         94:3a:5d:ef:8d:34:d4:09:50:ab:5e:9b:3b:12:51:b3:18:1f:
         35:b7:8d:49
-----BEGIN CERTIFICATE-----
MIIDeTCCAmGgAwIBAgIJAMLol93H/qnUMA0GCSqGSIb3DQEBCwUAMHwxCzAJBgNV
BAYTAlVTMRAwDgYDVQQIDAdNb250YW5hMRAwDgYDVQQHDAdCb3plbWFuMRQwEgYD
VQQLDAtFbmdpbmVlcmluZzESMBAGA1UEAwwJbG9jYWxob3N0MR8wHQYJKoZIhvcN
AQkBFhBpbmZvQHdvbGZzc2wuY29tMB4XDTE4MDkxOTIxMjEyNFoXDTIxMDYxNTIx
MjEyNFowfDELMAkGA1UEBhMCVVMxEDAOBgNVBAgMB01vbnRhbmExEDAOBgNVBAcM
B0JvemVtYW4xFDASBgNVBAsMC0VuZ2luZWVyaW5nMRIwEAYDVQQDDAlsb2NhbGhv
c3QxHzAdBgkqhkiG9w0BCQEWEGluZm9Ad29sZnNzbC5jb20wggEiMA0GCSqGSIb3
DQEBAQUAA4IBDwAwggEKAoIBAQDAlQjhV0HycW230kVBJwFlxkWu8rwkMLiVzi9O
1vYciLx8n/uoZ3/+XJxRdfeKygfnNS+P4b17wC98q2SoF/zKXXu64CHlci5vLobY
lXParBtTuV8/1xkNJU/hY2NRiwtkP61DuKUcXDSzrgCgY8X2fwtZaHhzpowYqQJt
r8MZAS64EOPGzEC0aaNGM2mHbsS7F6bz6N2tc7x7LyG1/WZRDL1Us+FtXxy8I3PR
CQOJFNIQuWTDKtChlkq84dQaW8egwMFjeA9ENzAyloAyI5Whd7oT0pdz4l0lyWoN
wzlgpLSwaUJCCenYCLwzILNYIqeq68Th5mGDxdKW39nQT63XAgMBAAEwDQYJKoZI
hvcNAQELBQADggEBACYotAllIo8yXViMQP9vfma/b7VpTu6tTvJjabF5IU60doQG
kOZup1ZFlgOQjIgykv+Q2bPQKNJ8NPZ2Osxx+vso0SmNi3Ou13zrYzQBgFg+8Ndb
F0varl910ZJBBdPAGqLHuKzYcAj61dVOFxjvBgSqnhW46AXbUWMtlcOvalRlhM+g
fjREN/xbNF4qyaecoPHFiTLxcd+RsSjo6BVCOwtEjt0tg2t3RhiAbqIrL8fk5/6x
PLQ9cbqb3IVKuofDrRUQ4gqtw9voSSGHuAXwoildkUXdc1MQlIpPGuLDh3smS7yw
4l18rwaPVJQ6Xe+NNNQJUKtemzsSUbMYHzW3jUk=
-----END CERTIFICATE-----
