Certificate:
    Data:
        Version: 3 (0x2)
        Serial Number:
            c7:45:d4:e8:37:93:0d:ad
    Signature Algorithm: sha256WithRSAEncryption
        Issuer: C = US, ST = Montana, L = Bozeman, OU = Engineering, CN = localhost, emailAddress = info@wolfssl.com
        Validity
            Not Before: Sep 19 21:21:24 2018 GMT
            Not After : Jun 15 21:21:24 2021 GMT
        Subject: C = US, ST = Montana, L = Bozeman, OU = Engineering, CN = localhost, emailAddress = info@wolfssl.com
        Subject Public Key Info:
            Public Key Algorithm: rsaEncryption
                Public-Key: (2048 bit)
                Modulus:
                    00:c0:95:08:e1:57:41:f2:71:6d:b7:d2:45:41:27:
                    01:65:c6:45:ae:f2:bc:24:30:b8:95:ce:2f:4e:d6:
                    f6:1c:88:bc:7c:9f:fb:a8:67:7f:fe:5c:9c:51:75:
                    f7:8a:ca:07:e7:35:2f:8f:e1:bd:7b:c0:2f:7c:ab:
                    64:a8:17:fc:ca:5d:7b:ba:e0:21:e5:72:2e:6f:2e:
                    86:d8:95:73:da:ac:1b:53:b9:5f:3f:d7:19:0d:25:
                    4f:e1:63:63:51:8b:0b:64:3f:ad:43:b8:a5:1c:5c:
                    34:b3:ae:00:a0:63:c5:f6:7f:0b:59:68:78:73:a6:
                    8c:18:a9:02:6d:af:c3:19:01:2e:b8:10:e3:c6:cc:
                    40:b4:69:a3:46:33:69:87:6e:c4:bb:17:a6:f3:e8:
                    dd:ad:73:bc:7b:2f:21:b5:fd:66:51:0c:bd:54:b3:
                    e1:6d:5f:1c:bc:23:73:d1:09:03:89:14:d2:10:b9:
                    64:c3:2a:d0:a1:96:4a:bc:e1:d4:1a:5b:c7:a0:c0:
                    c1:63:78:0f:44:37:30:32:96:80:32:23:95:a1:77:
                    ba:13:d2:97:73:e2:5d:25:c9:6a:0d:c3:39:60:a4:
                    b4:b0:69:42:42:09:e9:d8:08:bc:33:20:b3:58:22:
                    a7:aa:eb:c4:e1:e6:61:83:c5:d2:96:df:d9:d0:4f:
                    ad:d7
                Exponent: 65537 (0x10001)
        X509v3 extensions:
            X509v3 Subject Alternative Name: 
                DNS:garbage
    Signature Algorithm: sha256WithRSAEncryption
         3f:9b:00:89:dc:8e:20:7a:8e:a3:1c:e5:4a:4f:7a:76:eb:d0:
         cb:33:6d:30:f8:b0:7f:40:2c:da:90:46:00:4c:28:8d:6e:6f:
         fc:25:43:80:d3:59:40:a6:e8:1b:0f:a8:25:13:ec:b9:c0:93:
         bd:ef:09:49:b5:fc:95:1d:76:0e:b6:7e:94:4d:d6:04:c9:36:
         72:e9:1d:ea:92:48:51:b0:61:d4:90:d3:99:44:f0:95:be:c8:
         46:a3:22:24:34:d8:52:55:37:95:af:10:ec:ed:f3:a3:26:a6:
         1b:10:20:3c:a2:5c:63:18:41:91:f7:cb:c0:a0:ec:8b:5b:25:
         55:cd:a2:d1:2c:c8:0b:c8:bf:4c:fc:0b:85:b4:c1:2e:be:d1:
         39:01:eb:fa:5c:ce:63:6f:20:ba:87:83:c7:45:14:9f:b2:81:
         5d:d8:48:4e:bc:cc:f5:72:be:95:07:6d:2c:78:e1:87:47:a1:
         02:a5:3c:65:33:2b:5e:8f:cf:53:06:f9:73:8c:0f:91:5d:f7:
         60:df:0c:21:c7:39:08:bd:d3:cd:99:80:29:fd:38:02:8a:65:
         83:e9:11:b0:a9:d5:2e:fa:7e:20:74:bb:3e:55:6d:05:90:55:
         b8:ec:c9:84:de:41:cc:83:56:07:5c:3f:25:29:31:f2:3a:47:
         ed:0b:be:fc
-----BEGIN CERTIFICATE-----
MIIDkTCCAnmgAwIBAgIJAMdF1Og3kw2tMA0GCSqGSIb3DQEBCwUAMHwxCzAJBgNV
BAYTAlVTMRAwDgYDVQQIDAdNb250YW5hMRAwDgYDVQQHDAdCb3plbWFuMRQwEgYD
VQQLDAtFbmdpbmVlcmluZzESMBAGA1UEAwwJbG9jYWxob3N0MR8wHQYJKoZIhvcN
AQkBFhBpbmZvQHdvbGZzc2wuY29tMB4XDTE4MDkxOTIxMjEyNFoXDTIxMDYxNTIx
MjEyNFowfDELMAkGA1UEBhMCVVMxEDAOBgNVBAgMB01vbnRhbmExEDAOBgNVBAcM
B0JvemVtYW4xFDASBgNVBAsMC0VuZ2luZWVyaW5nMRIwEAYDVQQDDAlsb2NhbGhv
c3QxHzAdBgkqhkiG9w0BCQEWEGluZm9Ad29sZnNzbC5jb20wggEiMA0GCSqGSIb3
DQEBAQUAA4IBDwAwggEKAoIBAQDAlQjhV0HycW230kVBJwFlxkWu8rwkMLiVzi9O
1vYciLx8n/uoZ3/+XJxRdfeKygfnNS+P4b17wC98q2SoF/zKXXu64CHlci5vLobY
lXParBtTuV8/1xkNJU/hY2NRiwtkP61DuKUcXDSzrgCgY8X2fwtZaHhzpowYqQJt
r8MZAS64EOPGzEC0aaNGM2mHbsS7F6bz6N2tc7x7LyG1/WZRDL1Us+FtXxy8I3PR
CQOJFNIQuWTDKtChlkq84dQaW8egwMFjeA9ENzAyloAyI5Whd7oT0pdz4l0lyWoN
wzlgpLSwaUJCCenYCLwzILNYIqeq68Th5mGDxdKW39nQT63XAgMBAAGjFjAUMBIG
A1UdEQQLMAmCB2dhcmJhZ2UwDQYJKoZIhvcNAQELBQADggEBAD+bAIncjiB6jqMc
5UpPenbr0MszbTD4sH9ALNqQRgBMKI1ub/wlQ4DTWUCm6BsPqCUT7LnAk73vCUm1
/JUddg62fpRN1gTJNnLpHeqSSFGwYdSQ05lE8JW+yEajIiQ02FJVN5WvEOzt86Mm
phsQIDyiXGMYQZH3y8Cg7ItbJVXNotEsyAvIv0z8C4W0wS6+0TkB6/pczmNvILqH
g8dFFJ+ygV3YSE68zPVyvpUHbSx44YdHoQKlPGUzK16Pz1MG+XOMD5Fd92DfDCHH
OQi9082ZgCn9OAKKZYPpEbCp1S76fiB0uz5VbQWQVbjsyYTeQcyDVgdcPyUpMfI6
R+0Lvvw=
-----END CERTIFICATE-----
