Certificate:
    Data:
        Version: 3 (0x2)
        Serial Number: 1 (0x1)
        Signature Algorithm: ED448
        Issuer: C = US, ST = Montana, L = Bozeman, O = wolfSSL_Ed448, OU = Root-Ed448, CN = www.wolfssl.com, emailAddress = info@wolfssl.com
        Validity
            Not Before: Feb 13 01:35:44 2020 GMT
            Not After : Nov  9 01:35:44 2022 GMT
        Subject: C = US, ST = Montana, L = Bozeman, O = wolfSSL_ed448, OU = CA-ed448, CN = www.wolfssl.com, emailAddress = info@wolfssl.com
        Subject Public Key Info:
            Public Key Algorithm: ED448
                ED448 Public-Key:
                pub:
                    0e:e2:b4:76:e5:d2:cc:c2:4b:7b:b0:29:be:92:fb:
                    c3:af:69:a5:94:ba:70:24:e8:a3:ef:c8:63:9a:dd:
                    a6:af:58:43:38:04:24:f0:10:91:be:a7:01:91:54:
                    f3:cf:69:85:4c:b9:97:8c:a4:37:aa:00
        X509v3 extensions:
            X509v3 Subject Key Identifier: 
                38:59:45:E8:DD:44:2C:B5:7D:A5:25:D6:0B:CC:39:F0:72:C0:94:63
            X509v3 Authority Key Identifier: 
                keyid:DA:69:98:C9:26:4A:75:FB:59:5E:53:9A:63:4B:0C:B8:88:0B:0F:1E

            X509v3 Basic Constraints: critical
                CA:TRUE
            X509v3 Key Usage: critical
                Digital Signature, Certificate Sign, CRL Sign
    Signature Algorithm: ED448
         a0:94:c1:de:f0:7f:40:b2:88:77:f7:f7:7b:da:42:b3:3f:f6:
         32:57:a9:e9:41:7f:51:53:1c:f3:5e:d5:77:d7:fa:55:f9:0e:
         54:eb:d8:6b:4e:bc:e9:0d:38:ea:da:c4:81:23:2c:84:bd:8b:
         65:e3:80:ad:26:ce:a9:e5:21:65:59:5c:e7:44:75:a3:d5:c5:
         2d:70:30:48:55:76:64:58:dd:a5:6a:77:3c:e5:46:aa:54:49:
         a9:cd:48:f7:7b:ac:36:01:4a:61:aa:f3:3b:0b:fe:9f:56:5a:
         ba:51:e4:33:2e:00
-----BEGIN CERTIFICATE-----
MIICjzCCAg+gAwIBAgIBATAFBgMrZXEwgZkxCzAJBgNVBAYTAlVTMRAwDgYDVQQI
DAdNb250YW5hMRAwDgYDVQQHDAdCb3plbWFuMRYwFAYDVQQKDA13b2xmU1NMX0Vk
NDQ4MRMwEQYDVQQLDApSb290LUVkNDQ4MRgwFgYDVQQDDA93d3cud29sZnNzbC5j
b20xHzAdBgkqhkiG9w0BCQEWEGluZm9Ad29sZnNzbC5jb20wHhcNMjAwMjEzMDEz
NTQ0WhcNMjIxMTA5MDEzNTQ0WjCBlzELMAkGA1UEBhMCVVMxEDAOBgNVBAgMB01v
bnRhbmExEDAOBgNVBAcMB0JvemVtYW4xFjAUBgNVBAoMDXdvbGZTU0xfZWQ0NDgx
ETAPBgNVBAsMCENBLWVkNDQ4MRgwFgYDVQQDDA93d3cud29sZnNzbC5jb20xHzAd
BgkqhkiG9w0BCQEWEGluZm9Ad29sZnNzbC5jb20wQzAFBgMrZXEDOgAO4rR25dLM
wkt7sCm+kvvDr2mllLpwJOij78hjmt2mr1hDOAQk8BCRvqcBkVTzz2mFTLmXjKQ3
qgCjYzBhMB0GA1UdDgQWBBQ4WUXo3UQstX2lJdYLzDnwcsCUYzAfBgNVHSMEGDAW
gBTaaZjJJkp1+1leU5pjSwy4iAsPHjAPBgNVHRMBAf8EBTADAQH/MA4GA1UdDwEB
/wQEAwIBhjAFBgMrZXEDcwCglMHe8H9Asoh39/d72kKzP/YyV6npQX9RUxzzXtV3
1/pV+Q5U69hrTrzpDTjq2sSBIyyEvYtl44CtJs6p5SFlWVznRHWj1cUtcDBIVXZk
WN2lanc85UaqVEmpzUj3e6w2AUphqvM7C/6fVlq6UeQzLgA=
-----END CERTIFICATE-----
