Certificate:
    Data:
        Version: 3 (0x2)
        Serial Number:
            1a:76:b6:ab:cd:57:de:dd:57:71:9e:7a:af:d0:6e:20:18:de:ef:f9
        Signature Algorithm: ED448
        Issuer: C = US, ST = Montana, L = Bozeman, O = wolfSSL_ed448, OU = Client-ed448, CN = www.wolfssl.com, emailAddress = info@wolfssl.com
        Validity
            Not Before: Feb 13 01:35:44 2020 GMT
            Not After : Nov  9 01:35:44 2022 GMT
        Subject: C = US, ST = Montana, L = Bozeman, O = wolfSSL_ed448, OU = Client-ed448, CN = www.wolfssl.com, emailAddress = info@wolfssl.com
        Subject Public Key Info:
            Public Key Algorithm: ED448
                ED448 Public-Key:
                pub:
                    10:c0:82:2f:8d:0a:ec:65:12:52:40:39:aa:7a:60:
                    68:8e:31:22:49:ad:9b:c1:fc:71:e5:3e:78:57:35:
                    c8:76:b3:b3:30:8f:87:78:e6:26:5a:27:d8:0c:38:
                    9e:7b:3c:13:2f:cc:a4:29:6c:80:ef:80
        X509v3 extensions:
            X509v3 Subject Key Identifier: 
                F3:C7:66:93:0D:CB:0E:1B:80:08:00:CF:E3:4E:11:4D:58:2B:4B:D4
            X509v3 Authority Key Identifier: 
                keyid:F3:C7:66:93:0D:CB:0E:1B:80:08:00:CF:E3:4E:11:4D:58:2B:4B:D4
                DirName:/C=US/ST=Montana/L=Bozeman/O=wolfSSL_ed448/OU=Client-ed448/CN=www.wolfssl.com/emailAddress=info@wolfssl.com
                serial:1A:76:B6:AB:CD:57:DE:DD:57:71:9E:7A:AF:D0:6E:20:18:DE:EF:F9

            X509v3 Basic Constraints: 
                CA:TRUE
            X509v3 Subject Alternative Name: 
                DNS:example.com
    Signature Algorithm: ED448
         8b:89:9a:40:37:a5:3a:8a:e0:aa:d2:a7:de:2a:9d:84:be:8e:
         42:af:d7:fb:16:7b:7b:e4:02:49:07:b2:31:6d:9b:a5:37:cb:
         5d:8b:5f:b5:a1:6d:ed:95:5d:a7:06:5b:c5:31:f6:f3:a8:65:
         19:2a:00:2c:46:7d:bd:7c:56:82:01:8f:3b:25:38:d0:97:be:
         65:f0:68:c5:fc:45:b3:2a:56:05:bc:2f:30:a6:48:37:bf:0a:
         b3:d7:38:ca:f0:84:d8:2b:f4:8b:56:32:27:a9:f8:e2:6a:da:
         9a:26:cb:47:2d:00
-----BEGIN CERTIFICATE-----
MIIDbjCCAu6gAwIBAgIUGna2q81X3t1XcZ56r9BuIBje7/kwBQYDK2VxMIGbMQsw
CQYDVQQGEwJVUzEQMA4GA1UECAwHTW9udGFuYTEQMA4GA1UEBwwHQm96ZW1hbjEW
MBQGA1UECgwNd29sZlNTTF9lZDQ0ODEVMBMGA1UECwwMQ2xpZW50LWVkNDQ4MRgw
FgYDVQQDDA93d3cud29sZnNzbC5jb20xHzAdBgkqhkiG9w0BCQEWEGluZm9Ad29s
ZnNzbC5jb20wHhcNMjAwMjEzMDEzNTQ0WhcNMjIxMTA5MDEzNTQ0WjCBmzELMAkG
A1UEBhMCVVMxEDAOBgNVBAgMB01vbnRhbmExEDAOBgNVBAcMB0JvemVtYW4xFjAU
BgNVBAoMDXdvbGZTU0xfZWQ0NDgxFTATBgNVBAsMDENsaWVudC1lZDQ0ODEYMBYG
A1UEAwwPd3d3LndvbGZzc2wuY29tMR8wHQYJKoZIhvcNAQkBFhBpbmZvQHdvbGZz
c2wuY29tMEMwBQYDK2VxAzoAEMCCL40K7GUSUkA5qnpgaI4xIkmtm8H8ceU+eFc1
yHazszCPh3jmJlon2Aw4nns8Ey/MpClsgO+Ao4IBJzCCASMwHQYDVR0OBBYEFPPH
ZpMNyw4bgAgAz+NOEU1YK0vUMIHbBgNVHSMEgdMwgdCAFPPHZpMNyw4bgAgAz+NO
EU1YK0vUoYGhpIGeMIGbMQswCQYDVQQGEwJVUzEQMA4GA1UECAwHTW9udGFuYTEQ
MA4GA1UEBwwHQm96ZW1hbjEWMBQGA1UECgwNd29sZlNTTF9lZDQ0ODEVMBMGA1UE
CwwMQ2xpZW50LWVkNDQ4MRgwFgYDVQQDDA93d3cud29sZnNzbC5jb20xHzAdBgkq
hkiG9w0BCQEWEGluZm9Ad29sZnNzbC5jb22CFBp2tqvNV97dV3Geeq/QbiAY3u/5
MAwGA1UdEwQFMAMBAf8wFgYDVR0RBA8wDYILZXhhbXBsZS5jb20wBQYDK2VxA3MA
i4maQDelOorgqtKn3iqdhL6OQq/X+xZ7e+QCSQeyMW2bpTfLXYtftaFt7ZVdpwZb
xTH286hlGSoALEZ9vXxWggGPOyU40Je+ZfBoxfxFsypWBbwvMKZIN78Ks9c4yvCE
2Cv0i1YyJ6n44mramibLRy0A
-----END CERTIFICATE-----
