Certificate:
    Data:
        Version: 3 (0x2)
        Serial Number:
            4c:ed:9f:66:e8:c6:f4:c2:6d:5d:bc:da:14:f7:e9:61:92:fb:8d:d8
        Signature Algorithm: ED448
        Issuer: C = US, ST = Montana, L = Bozeman, O = wolfSSL_Ed448, OU = Root-Ed448, CN = www.wolfssl.com, emailAddress = info@wolfssl.com
        Validity
            Not Before: Feb 13 01:35:44 2020 GMT
            Not After : Nov  9 01:35:44 2022 GMT
        Subject: C = US, ST = Montana, L = Bozeman, O = wolfSSL_Ed448, OU = Root-Ed448, CN = www.wolfssl.com, emailAddress = info@wolfssl.com
        Subject Public Key Info:
            Public Key Algorithm: ED448
                ED448 Public-Key:
                pub:
                    0b:64:26:28:cf:b5:46:9b:ee:3f:ea:3b:f5:66:7a:
                    32:d4:fe:7d:f8:80:5f:58:57:6c:d7:79:ee:66:a2:
                    3d:54:8f:8d:08:af:cb:b8:43:94:50:5d:e5:53:62:
                    69:c8:75:82:a6:5e:44:ca:4b:5b:0b:00
        X509v3 extensions:
            X509v3 Subject Key Identifier: 
                DA:69:98:C9:26:4A:75:FB:59:5E:53:9A:63:4B:0C:B8:88:0B:0F:1E
            X509v3 Authority Key Identifier: 
                keyid:DA:69:98:C9:26:4A:75:FB:59:5E:53:9A:63:4B:0C:B8:88:0B:0F:1E

            X509v3 Basic Constraints: critical
                CA:TRUE
            X509v3 Key Usage: critical
                Digital Signature, Certificate Sign, CRL Sign
    Signature Algorithm: ED448
         32:f2:95:d6:56:9f:c4:5c:2a:36:da:51:b7:96:cb:97:f7:c5:
         02:f2:20:f4:20:fa:a8:25:6f:dc:f9:c4:b7:ac:be:39:68:3b:
         9e:58:4a:42:c3:74:e2:55:bd:44:54:40:18:7c:d4:30:47:6f:
         53:03:80:c9:21:50:a5:e9:1f:27:44:42:5f:ce:d4:a7:a4:bf:
         5e:3b:00:86:1c:8e:a7:4a:4f:4b:24:63:1c:fc:4e:06:39:af:
         04:7d:84:7f:66:a9:e4:e9:e7:ba:b7:87:e8:27:7c:1a:d5:55:
         3d:7e:bd:90:30:00
-----BEGIN CERTIFICATE-----
MIICpDCCAiSgAwIBAgIUTO2fZujG9MJtXbzaFPfpYZL7jdgwBQYDK2VxMIGZMQsw
CQYDVQQGEwJVUzEQMA4GA1UECAwHTW9udGFuYTEQMA4GA1UEBwwHQm96ZW1hbjEW
MBQGA1UECgwNd29sZlNTTF9FZDQ0ODETMBEGA1UECwwKUm9vdC1FZDQ0ODEYMBYG
A1UEAwwPd3d3LndvbGZzc2wuY29tMR8wHQYJKoZIhvcNAQkBFhBpbmZvQHdvbGZz
c2wuY29tMB4XDTIwMDIxMzAxMzU0NFoXDTIyMTEwOTAxMzU0NFowgZkxCzAJBgNV
BAYTAlVTMRAwDgYDVQQIDAdNb250YW5hMRAwDgYDVQQHDAdCb3plbWFuMRYwFAYD
VQQKDA13b2xmU1NMX0VkNDQ4MRMwEQYDVQQLDApSb290LUVkNDQ4MRgwFgYDVQQD
DA93d3cud29sZnNzbC5jb20xHzAdBgkqhkiG9w0BCQEWEGluZm9Ad29sZnNzbC5j
b20wQzAFBgMrZXEDOgALZCYoz7VGm+4/6jv1Znoy1P59+IBfWFds13nuZqI9VI+N
CK/LuEOUUF3lU2JpyHWCpl5EyktbCwCjYzBhMB0GA1UdDgQWBBTaaZjJJkp1+1le
U5pjSwy4iAsPHjAfBgNVHSMEGDAWgBTaaZjJJkp1+1leU5pjSwy4iAsPHjAPBgNV
HRMBAf8EBTADAQH/MA4GA1UdDwEB/wQEAwIBhjAFBgMrZXEDcwAy8pXWVp/EXCo2
2lG3lsuX98UC8iD0IPqoJW/c+cS3rL45aDueWEpCw3TiVb1EVEAYfNQwR29TA4DJ
IVCl6R8nREJfztSnpL9eOwCGHI6nSk9LJGMc/E4GOa8EfYR/Zqnk6ee6t4foJ3wa
1VU9fr2QMAA=
-----END CERTIFICATE-----
