Certificate:
    Data:
        Version: 3 (0x2)
        Serial Number:
            2f:06:07:a8:b6:f4:ee:10:91:43:de:e1:46:99:c4:90:79:e6:f1:d1
        Signature Algorithm: sha256WithRSAEncryption
        Issuer: C = US, ST = Montana, L = Bozeman, O = wolfSSL_3072, OU = Programming-3072, CN = www.wolfssl.com, emailAddress = info@wolfssl.com
        Validity
            Not Before: Jan 22 05:51:48 2020 GMT
            Not After : Oct 18 05:51:48 2022 GMT
        Subject: C = US, ST = Montana, L = Bozeman, O = wolfSSL_3072, OU = Programming-3072, CN = www.wolfssl.com, emailAddress = info@wolfssl.com
        Subject Public Key Info:
            Public Key Algorithm: rsaEncryption
                RSA Public-Key: (3072 bit)
                Modulus:
                    00:ac:39:50:68:8f:78:f8:10:9b:68:96:d3:e1:9c:
                    56:68:5a:41:62:e3:b3:41:b0:55:80:17:b0:88:16:
                    9b:e0:97:74:5f:42:79:73:42:df:93:f3:aa:9d:ee:
                    2d:6f:aa:bc:27:90:84:c0:5d:c7:ec:49:ea:5c:66:
                    1d:70:9c:53:5c:ba:a1:b3:58:c9:3e:8e:9b:72:3d:
                    6e:02:02:00:9c:65:56:82:a3:22:b4:08:5f:2a:ef:
                    df:9a:d0:e7:31:59:26:5b:0b:1c:63:61:ff:d5:69:
                    32:19:06:7e:0f:40:3c:7a:1e:c8:fc:58:6c:64:ae:
                    10:3d:a8:23:ff:8e:1a:ca:6a:82:e2:f9:01:64:2c:
                    97:a0:1a:89:a0:74:d3:b6:05:11:f2:62:06:48:2a:
                    f7:66:ce:c1:85:e1:d2:27:ea:ca:12:a5:91:97:3e:
                    fc:94:06:59:51:c0:e7:13:b6:87:7b:5f:d2:c0:56:
                    2f:5e:1d:02:c3:11:2c:df:f7:01:da:bd:85:54:35:
                    32:5f:c5:c8:f9:7a:9f:89:f7:03:0e:7e:79:5d:04:
                    82:35:10:fe:6d:9b:bf:b8:ee:e2:62:87:26:5e:2f:
                    50:2f:78:0c:e8:73:4f:88:6a:d6:26:a4:c9:fc:fa:
                    1e:8a:b0:f4:32:cf:57:cd:a1:58:8a:49:0f:bb:a9:
                    1d:86:ab:b9:8f:8d:57:19:b2:5a:7e:a4:ea:cc:b7:
                    96:7a:3b:38:cd:de:e0:61:fc:c9:06:8f:93:5a:ce:
                    ad:2a:e3:2d:3e:39:5d:41:83:01:1f:0f:e1:7f:76:
                    c7:28:da:56:ef:bf:dc:26:35:40:be:ad:c7:38:ad:
                    a4:06:ac:ca:e8:51:eb:c0:f8:68:02:2c:9b:a1:14:
                    bc:f8:61:86:d7:56:d7:73:f4:ab:bb:6a:21:d3:88:
                    22:b4:e7:6f:7f:91:e5:0e:c6:08:49:de:ea:13:58:
                    72:a0:aa:3a:f9:36:03:45:57:5e:87:d2:73:65:c4:
                    8c:a3:ee:c9:d6:73:7c:96:41:93
                Exponent: 65537 (0x10001)
        X509v3 extensions:
            X509v3 Subject Key Identifier: 
                3D:D1:84:C2:AF:B0:20:49:BC:74:87:41:38:AB:BA:D2:D4:0C:A3:A8
            X509v3 Authority Key Identifier: 
                keyid:3D:D1:84:C2:AF:B0:20:49:BC:74:87:41:38:AB:BA:D2:D4:0C:A3:A8
                DirName:/C=US/ST=Montana/L=Bozeman/O=wolfSSL_3072/OU=Programming-3072/CN=www.wolfssl.com/emailAddress=info@wolfssl.com
                serial:2F:06:07:A8:B6:F4:EE:10:91:43:DE:E1:46:99:C4:90:79:E6:F1:D1

            X509v3 Basic Constraints: 
                CA:TRUE
            X509v3 Subject Alternative Name: 
                DNS:example.com
    Signature Algorithm: sha256WithRSAEncryption
         04:f5:e0:e5:75:6b:cf:ee:19:ef:3c:b5:b6:78:ce:b2:c3:f2:
         3e:0d:3f:b7:6d:59:7d:b6:7e:6a:91:0f:85:ac:ca:56:30:3c:
         3f:5d:30:10:7c:5e:7f:98:b2:9d:95:04:e1:ee:c0:9e:1b:01:
         39:cb:02:05:b9:9b:02:88:eb:d0:ad:06:d5:39:2d:24:e6:dc:
         4e:ce:8c:36:7d:b6:8e:1d:e8:b7:ef:ff:b4:17:c1:a5:d8:fa:
         34:dd:99:3d:30:4b:45:a2:14:6a:88:93:ca:25:e2:5c:d5:ba:
         e8:9d:ef:d7:68:76:05:92:48:19:92:11:79:c2:fe:11:49:4d:
         d6:d1:8f:32:1c:5f:3b:41:2c:08:b2:72:65:1c:e5:86:02:94:
         b3:9d:30:da:59:42:a1:b0:1e:00:92:93:6e:0d:27:cf:df:d8:
         cf:2b:cd:cb:8c:ff:b5:6f:83:92:27:00:58:59:a2:0b:91:b0:
         39:ca:a8:78:fd:83:56:4f:a1:6e:c3:e0:2b:ae:ef:3c:09:04:
         f0:9b:5b:00:d3:ed:b6:06:f6:9c:da:af:61:68:8f:e3:2a:c3:
         85:20:66:2c:ac:dd:65:37:36:c2:2f:ba:b8:90:66:6e:9e:58:
         a2:4b:d6:a7:30:c8:c9:6c:bd:13:40:a0:ca:59:7c:c5:86:9c:
         55:c5:68:c7:0c:7f:94:73:a5:4b:eb:f1:27:96:b5:f9:69:6b:
         2b:b6:62:d7:3a:0d:40:65:f0:0d:de:91:77:d4:f6:bb:13:7b:
         4a:55:8f:7e:49:65:89:37:46:05:2f:90:14:73:0d:2d:1e:a4:
         d4:bb:4e:6d:29:da:79:6e:73:08:de:5f:27:dc:23:14:db:7b:
         e7:02:13:2e:c7:94:19:f3:7d:2e:c4:8a:69:ba:f5:ba:62:c2:
         88:b5:cb:c7:92:a2:8a:e3:69:10:6e:c5:b8:b2:10:7e:b6:0c:
         71:2a:c3:e9:71:0c:a2:8b:9a:1d:2c:4e:21:68:53:51:6d:0c:
         d2:b4:4b:50:4b:0a
-----BEGIN CERTIFICATE-----
MIIF+DCCBGCgAwIBAgIULwYHqLb07hCRQ97hRpnEkHnm8dEwDQYJKoZIhvcNAQEL
BQAwgZ4xCzAJBgNVBAYTAlVTMRAwDgYDVQQIDAdNb250YW5hMRAwDgYDVQQHDAdC
b3plbWFuMRUwEwYDVQQKDAx3b2xmU1NMXzMwNzIxGTAXBgNVBAsMEFByb2dyYW1t
aW5nLTMwNzIxGDAWBgNVBAMMD3d3dy53b2xmc3NsLmNvbTEfMB0GCSqGSIb3DQEJ
ARYQaW5mb0B3b2xmc3NsLmNvbTAeFw0yMDAxMjIwNTUxNDhaFw0yMjEwMTgwNTUx
NDhaMIGeMQswCQYDVQQGEwJVUzEQMA4GA1UECAwHTW9udGFuYTEQMA4GA1UEBwwH
Qm96ZW1hbjEVMBMGA1UECgwMd29sZlNTTF8zMDcyMRkwFwYDVQQLDBBQcm9ncmFt
bWluZy0zMDcyMRgwFgYDVQQDDA93d3cud29sZnNzbC5jb20xHzAdBgkqhkiG9w0B
CQEWEGluZm9Ad29sZnNzbC5jb20wggGiMA0GCSqGSIb3DQEBAQUAA4IBjwAwggGK
AoIBgQCsOVBoj3j4EJtoltPhnFZoWkFi47NBsFWAF7CIFpvgl3RfQnlzQt+T86qd
7i1vqrwnkITAXcfsSepcZh1wnFNcuqGzWMk+jptyPW4CAgCcZVaCoyK0CF8q79+a
0OcxWSZbCxxjYf/VaTIZBn4PQDx6Hsj8WGxkrhA9qCP/jhrKaoLi+QFkLJegGomg
dNO2BRHyYgZIKvdmzsGF4dIn6soSpZGXPvyUBllRwOcTtod7X9LAVi9eHQLDESzf
9wHavYVUNTJfxcj5ep+J9wMOfnldBII1EP5tm7+47uJihyZeL1AveAzoc0+IatYm
pMn8+h6KsPQyz1fNoViKSQ+7qR2Gq7mPjVcZslp+pOrMt5Z6OzjN3uBh/MkGj5Na
zq0q4y0+OV1BgwEfD+F/dsco2lbvv9wmNUC+rcc4raQGrMroUevA+GgCLJuhFLz4
YYbXVtdz9Ku7aiHTiCK0529/keUOxghJ3uoTWHKgqjr5NgNFV16H0nNlxIyj7snW
c3yWQZMCAwEAAaOCASowggEmMB0GA1UdDgQWBBQ90YTCr7AgSbx0h0E4q7rS1Ayj
qDCB3gYDVR0jBIHWMIHTgBQ90YTCr7AgSbx0h0E4q7rS1AyjqKGBpKSBoTCBnjEL
MAkGA1UEBhMCVVMxEDAOBgNVBAgMB01vbnRhbmExEDAOBgNVBAcMB0JvemVtYW4x
FTATBgNVBAoMDHdvbGZTU0xfMzA3MjEZMBcGA1UECwwQUHJvZ3JhbW1pbmctMzA3
MjEYMBYGA1UEAwwPd3d3LndvbGZzc2wuY29tMR8wHQYJKoZIhvcNAQkBFhBpbmZv
QHdvbGZzc2wuY29tghQvBgeotvTuEJFD3uFGmcSQeebx0TAMBgNVHRMEBTADAQH/
MBYGA1UdEQQPMA2CC2V4YW1wbGUuY29tMA0GCSqGSIb3DQEBCwUAA4IBgQAE9eDl
dWvP7hnvPLW2eM6yw/I+DT+3bVl9tn5qkQ+FrMpWMDw/XTAQfF5/mLKdlQTh7sCe
GwE5ywIFuZsCiOvQrQbVOS0k5txOzow2fbaOHei37/+0F8Gl2Po03Zk9MEtFohRq
iJPKJeJc1brone/XaHYFkkgZkhF5wv4RSU3W0Y8yHF87QSwIsnJlHOWGApSznTDa
WUKhsB4AkpNuDSfP39jPK83LjP+1b4OSJwBYWaILkbA5yqh4/YNWT6Fuw+Arru88
CQTwm1sA0+22Bvac2q9haI/jKsOFIGYsrN1lNzbCL7q4kGZunliiS9anMMjJbL0T
QKDKWXzFhpxVxWjHDH+Uc6VL6/EnlrX5aWsrtmLXOg1AZfAN3pF31Pa7E3tKVY9+
SWWJN0YFL5AUcw0tHqTUu05tKdp5bnMI3l8n3CMU23vnAhMux5QZ830uxIppuvW6
YsKItcvHkqKK42kQbsW4shB+tgxxKsPpcQyii5odLE4haFNRbQzStEtQSwo=
-----END CERTIFICATE-----
