Certificate:
    Data:
        Version: 3 (0x2)
        Serial Number: 4099 (0x1003)
    Signature Algorithm: ecdsa-with-SHA256
        Issuer: C=US, ST=Washington, L=Seattle, O=wolfSSL, OU=Development, CN=www.wolfssl.com/emailAddress=info@wolfssl.com
        Validity
            Not Before: Dec 21 17:54:01 2018 GMT
            Not After : Dec 16 17:54:01 2038 GMT
        Subject: C=US, ST=Washington, L=Seattle, O=wolfSSL, OU=Development, CN=wolfSSL Intermediate CA ECC/emailAddress=info@wolfssl.com
        Subject Public Key Info:
            Public Key Algorithm: id-ecPublicKey
                Public-Key: (256 bit)
                pub: 
                    04:95:df:1c:b2:9e:20:a9:1d:a2:5b:ab:5c:9b:a8:
                    66:06:29:e6:b2:d8:e3:14:a6:c3:c1:b4:ad:4d:44:
                    18:20:1e:5d:67:fd:15:1d:6d:25:e1:17:b1:71:ca:
                    85:03:f0:d2:af:41:66:46:36:6d:ea:41:cb:4f:c8:
                    4a:d0:a0:61:8c
                ASN1 OID: prime256v1
                NIST CURVE: P-256
        X509v3 extensions:
            X509v3 Subject Key Identifier: 
                97:1D:60:C3:87:22:59:9B:60:1F:84:B4:99:1C:88:4D:BF:DA:1E:6E
            X509v3 Authority Key Identifier: 
                keyid:56:8E:9A:C3:F0:42:DE:18:B9:45:55:6E:F9:93:CF:EA:C3:F3:A5:21

            X509v3 Basic Constraints: critical
                CA:TRUE, pathlen:0
            X509v3 Key Usage: critical
                Digital Signature, Certificate Sign, CRL Sign
    Signature Algorithm: ecdsa-with-SHA256
         30:44:02:20:20:8d:bd:bc:08:8a:52:20:ab:bc:f0:94:0c:3c:
         38:9c:9e:c0:18:53:94:94:7f:57:3d:15:8e:75:5f:8c:82:79:
         02:20:40:3e:0f:27:9a:e8:ba:9b:f4:99:cf:71:36:68:d1:ed:
         31:54:37:e8:2e:37:d0:9e:49:a9:27:79:c1:03:34:50
-----BEGIN CERTIFICATE-----
MIICkTCCAjigAwIBAgICEAMwCgYIKoZIzj0EAwIwgZcxCzAJBgNVBAYTAlVTMRMw
EQYDVQQIDApXYXNoaW5ndG9uMRAwDgYDVQQHDAdTZWF0dGxlMRAwDgYDVQQKDAd3
b2xmU1NMMRQwEgYDVQQLDAtEZXZlbG9wbWVudDEYMBYGA1UEAwwPd3d3LndvbGZz
c2wuY29tMR8wHQYJKoZIhvcNAQkBFhBpbmZvQHdvbGZzc2wuY29tMB4XDTE4MTIy
MTE3NTQwMVoXDTM4MTIxNjE3NTQwMVowgaMxCzAJBgNVBAYTAlVTMRMwEQYDVQQI
DApXYXNoaW5ndG9uMRAwDgYDVQQHDAdTZWF0dGxlMRAwDgYDVQQKDAd3b2xmU1NM
MRQwEgYDVQQLDAtEZXZlbG9wbWVudDEkMCIGA1UEAwwbd29sZlNTTCBJbnRlcm1l
ZGlhdGUgQ0EgRUNDMR8wHQYJKoZIhvcNAQkBFhBpbmZvQHdvbGZzc2wuY29tMFkw
EwYHKoZIzj0CAQYIKoZIzj0DAQcDQgAEld8csp4gqR2iW6tcm6hmBinmstjjFKbD
wbStTUQYIB5dZ/0VHW0l4RexccqFA/DSr0FmRjZt6kHLT8hK0KBhjKNmMGQwHQYD
VR0OBBYEFJcdYMOHIlmbYB+EtJkciE2/2h5uMB8GA1UdIwQYMBaAFFaOmsPwQt4Y
uUVVbvmTz+rD86UhMBIGA1UdEwEB/wQIMAYBAf8CAQAwDgYDVR0PAQH/BAQDAgGG
MAoGCCqGSM49BAMCA0cAMEQCICCNvbwIilIgq7zwlAw8OJyewBhTlJR/Vz0VjnVf
jIJ5AiBAPg8nmui6m/SZz3E2aNHtMVQ36C430J5JqSd5wQM0UA==
-----END CERTIFICATE-----
