Certificate:
    Data:
        Version: 3 (0x2)
        Serial Number: 4096 (0x1000)
    Signature Algorithm: sha256WithRSAEncryption
        Issuer: C=US, ST=Montana, L=Bozeman, O=Sawtooth, OU=Consulting, CN=www.wolfssl.com/emailAddress=info@wolfssl.com
        Validity
            Not Before: Dec 21 17:54:00 2018 GMT
            Not After : Dec 16 17:54:00 2038 GMT
        Subject: C=US, ST=Washington, L=Seattle, O=wolfSSL, OU=Development, CN=wolfSSL Intermediate CA/emailAddress=info@wolfssl.com
        Subject Public Key Info:
            Public Key Algorithm: rsaEncryption
                Public-Key: (2048 bit)
                Modulus:
                    00:c3:a2:73:5d:21:62:20:ce:3a:71:38:a7:94:bb:
                    db:87:04:1c:5a:1b:9e:4b:0d:3e:ca:f8:a5:f7:0d:
                    6a:dc:23:90:22:6a:2b:58:63:4a:28:6a:48:a8:e7:
                    73:1f:a2:55:d8:4d:02:3b:e2:cb:6b:e2:83:c9:51:
                    8f:77:fd:dc:2d:5d:23:b7:23:9a:7e:b6:29:68:e8:
                    2a:4e:a9:fe:32:70:31:9e:f0:ef:ee:f8:8d:e3:fc:
                    f3:d7:28:dd:7a:1d:9e:ad:23:2b:f1:a6:7f:34:52:
                    29:66:d2:e5:64:55:64:d6:dd:4b:41:3b:55:83:6e:
                    c0:11:0e:6e:20:c2:16:73:eb:30:ff:09:46:bb:e7:
                    cc:c6:03:44:41:11:c6:c1:6c:36:2f:4a:f9:91:55:
                    ca:58:5e:37:b8:28:10:30:89:40:96:77:cf:70:66:
                    a4:55:fb:69:0b:e7:d9:b2:33:65:db:72:3a:77:b7:
                    2b:49:fc:b6:cd:58:10:8d:ab:aa:cb:40:45:77:02:
                    39:18:b3:8f:33:01:48:77:50:be:8e:73:a7:de:36:
                    a0:49:8e:2c:16:af:b9:fb:42:2d:35:6a:db:34:37:
                    d5:14:59:7d:65:72:e5:8b:65:55:4b:20:5e:47:f9:
                    f8:3a:d3:6c:d9:3a:f5:c7:01:46:31:c3:79:9a:18:
                    be:49
                Exponent: 65537 (0x10001)
        X509v3 extensions:
            X509v3 Subject Key Identifier: 
                EF:69:E0:F7:D5:1D:E6:99:EC:DC:6D:D0:F7:E2:B9:5C:64:71:83:35
            X509v3 Authority Key Identifier: 
                keyid:27:8E:67:11:74:C3:26:1D:3F:ED:33:63:B3:A4:D8:1D:30:E5:E8:D5

            X509v3 Basic Constraints: critical
                CA:TRUE, pathlen:0
            X509v3 Key Usage: critical
                Digital Signature, Certificate Sign, CRL Sign
    Signature Algorithm: sha256WithRSAEncryption
         5e:cd:30:ce:13:06:a8:a3:25:6d:85:68:bf:88:3b:68:12:6a:
         5e:5f:22:82:51:4a:fd:b1:ae:b2:c2:3e:a1:e4:73:97:6f:77:
         1f:5e:0a:a6:3e:8a:20:93:4c:3f:68:64:69:a8:d7:ae:3e:a5:
         58:e4:d0:45:e4:7a:5f:cc:68:23:3d:7b:df:8d:33:8d:ba:0b:
         73:dd:97:41:99:1a:26:7f:17:87:c4:76:bb:3b:b5:15:24:b0:
         82:4f:2e:0a:c3:fe:ab:75:c9:4d:59:74:1a:c7:33:e7:4f:14:
         45:5b:f4:d3:c3:a9:9d:34:a8:e1:2a:33:ea:10:07:db:9e:33:
         83:60:f0:dd:7c:27:0d:6b:92:ef:90:cc:35:b3:4e:e3:fa:ca:
         87:55:31:e8:7b:8c:c2:35:19:41:6a:76:6c:6c:7a:d0:6a:d1:
         2d:a8:a6:97:40:73:52:9c:3c:43:a7:4b:f1:b7:04:af:e0:d1:
         32:3c:ac:df:a7:4a:15:fb:2e:56:d8:5c:4c:99:9d:3c:f0:6d:
         a0:20:25:96:c9:24:fc:84:4c:dc:de:1d:29:e8:d4:e1:ff:ca:
         06:2f:39:ed:24:dc:79:f9:2a:18:00:ae:d2:8b:44:eb:2a:94:
         fb:c8:02:86:0d:7e:1f:65:c7:20:06:5e:ca:50:af:bd:71:cb:
         06:da:12:ff
-----BEGIN CERTIFICATE-----
MIIEFzCCAv+gAwIBAgICEAAwDQYJKoZIhvcNAQELBQAwgZQxCzAJBgNVBAYTAlVT
MRAwDgYDVQQIDAdNb250YW5hMRAwDgYDVQQHDAdCb3plbWFuMREwDwYDVQQKDAhT
YXd0b290aDETMBEGA1UECwwKQ29uc3VsdGluZzEYMBYGA1UEAwwPd3d3LndvbGZz
c2wuY29tMR8wHQYJKoZIhvcNAQkBFhBpbmZvQHdvbGZzc2wuY29tMB4XDTE4MTIy
MTE3NTQwMFoXDTM4MTIxNjE3NTQwMFowgZ8xCzAJBgNVBAYTAlVTMRMwEQYDVQQI
DApXYXNoaW5ndG9uMRAwDgYDVQQHDAdTZWF0dGxlMRAwDgYDVQQKDAd3b2xmU1NM
MRQwEgYDVQQLDAtEZXZlbG9wbWVudDEgMB4GA1UEAwwXd29sZlNTTCBJbnRlcm1l
ZGlhdGUgQ0ExHzAdBgkqhkiG9w0BCQEWEGluZm9Ad29sZnNzbC5jb20wggEiMA0G
CSqGSIb3DQEBAQUAA4IBDwAwggEKAoIBAQDDonNdIWIgzjpxOKeUu9uHBBxaG55L
DT7K+KX3DWrcI5AiaitYY0ooakio53MfolXYTQI74str4oPJUY93/dwtXSO3I5p+
tilo6CpOqf4ycDGe8O/u+I3j/PPXKN16HZ6tIyvxpn80Uilm0uVkVWTW3UtBO1WD
bsARDm4gwhZz6zD/CUa758zGA0RBEcbBbDYvSvmRVcpYXje4KBAwiUCWd89wZqRV
+2kL59myM2Xbcjp3tytJ/LbNWBCNq6rLQEV3AjkYs48zAUh3UL6Oc6feNqBJjiwW
r7n7Qi01ats0N9UUWX1lcuWLZVVLIF5H+fg602zZOvXHAUYxw3maGL5JAgMBAAGj
ZjBkMB0GA1UdDgQWBBTvaeD31R3mmezcbdD34rlcZHGDNTAfBgNVHSMEGDAWgBQn
jmcRdMMmHT/tM2OzpNgdMOXo1TASBgNVHRMBAf8ECDAGAQH/AgEAMA4GA1UdDwEB
/wQEAwIBhjANBgkqhkiG9w0BAQsFAAOCAQEAXs0wzhMGqKMlbYVov4g7aBJqXl8i
glFK/bGussI+oeRzl293H14Kpj6KIJNMP2hkaajXrj6lWOTQReR6X8xoIz17340z
jboLc92XQZkaJn8Xh8R2uzu1FSSwgk8uCsP+q3XJTVl0Gscz508URVv008OpnTSo
4Soz6hAH254zg2Dw3XwnDWuS75DMNbNO4/rKh1Ux6HuMwjUZQWp2bGx60GrRLaim
l0BzUpw8Q6dL8bcEr+DRMjys36dKFfsuVthcTJmdPPBtoCAllskk/IRM3N4dKejU
4f/KBi857STcefkqGACu0otE6yqU+8gChg1+H2XHIAZeylCvvXHLBtoS/w==
-----END CERTIFICATE-----
