Certificate:
    Data:
        Version: 3 (0x2)
        Serial Number: 4101 (0x1005)
    Signature Algorithm: ecdsa-with-SHA256
        Issuer: C=US, ST=Washington, L=Seattle, O=wolfSSL, OU=Development, CN=wolfSSL Intermediate CA ECC/emailAddress=info@wolfssl.com
        Validity
            Not Before: Dec 21 17:54:01 2018 GMT
            Not After : Dec 18 17:54:01 2028 GMT
        Subject: C=US, ST=Washington, L=Seattle, O=wolfSSL, OU=Development, CN=wolfSSL Client Chain ECC/emailAddress=info@wolfssl.com
        Subject Public Key Info:
            Public Key Algorithm: id-ecPublicKey
                Public-Key: (256 bit)
                pub: 
                    04:55:bf:f4:0f:44:50:9a:3d:ce:9b:b7:f0:c5:4d:
                    f5:70:7b:d4:ec:24:8e:19:80:ec:5a:4c:a2:24:03:
                    62:2c:9b:da:ef:a2:35:12:43:84:76:16:c6:56:95:
                    06:cc:01:a9:bd:f6:75:1a:42:f7:bd:a9:b2:36:22:
                    5f:c7:5d:7f:b4
                ASN1 OID: prime256v1
                NIST CURVE: P-256
        X509v3 extensions:
            X509v3 Basic Constraints: 
                CA:FALSE
            Netscape Cert Type: 
                SSL Client, S/MIME
            X509v3 Subject Key Identifier: 
                EB:D4:4B:59:6B:95:61:3F:51:57:B6:04:4D:89:41:88:44:5C:AB:F2
            X509v3 Authority Key Identifier: 
                keyid:97:1D:60:C3:87:22:59:9B:60:1F:84:B4:99:1C:88:4D:BF:DA:1E:6E

            X509v3 Key Usage: critical
                Digital Signature, Non Repudiation, Key Encipherment
            X509v3 Extended Key Usage: 
                TLS Web Client Authentication, E-mail Protection
    Signature Algorithm: ecdsa-with-SHA256
         30:45:02:20:5e:e8:cc:ba:d9:8c:d5:47:f1:00:9f:f6:b6:22:
         39:45:a4:27:a4:b4:e6:5b:0a:72:74:c0:50:74:2a:28:a5:65:
         02:21:00:aa:1f:2e:ef:5d:62:5c:e7:e4:93:01:ef:bc:0c:8a:
         34:a8:86:e8:b7:7c:00:4e:03:b4:17:e3:72:fe:65:81:df
-----BEGIN CERTIFICATE-----
MIICxjCCAmygAwIBAgICEAUwCgYIKoZIzj0EAwIwgaMxCzAJBgNVBAYTAlVTMRMw
EQYDVQQIDApXYXNoaW5ndG9uMRAwDgYDVQQHDAdTZWF0dGxlMRAwDgYDVQQKDAd3
b2xmU1NMMRQwEgYDVQQLDAtEZXZlbG9wbWVudDEkMCIGA1UEAwwbd29sZlNTTCBJ
bnRlcm1lZGlhdGUgQ0EgRUNDMR8wHQYJKoZIhvcNAQkBFhBpbmZvQHdvbGZzc2wu
Y29tMB4XDTE4MTIyMTE3NTQwMVoXDTI4MTIxODE3NTQwMVowgaAxCzAJBgNVBAYT
AlVTMRMwEQYDVQQIDApXYXNoaW5ndG9uMRAwDgYDVQQHDAdTZWF0dGxlMRAwDgYD
VQQKDAd3b2xmU1NMMRQwEgYDVQQLDAtEZXZlbG9wbWVudDEhMB8GA1UEAwwYd29s
ZlNTTCBDbGllbnQgQ2hhaW4gRUNDMR8wHQYJKoZIhvcNAQkBFhBpbmZvQHdvbGZz
c2wuY29tMFkwEwYHKoZIzj0CAQYIKoZIzj0DAQcDQgAEVb/0D0RQmj3Om7fwxU31
cHvU7CSOGYDsWkyiJANiLJva76I1EkOEdhbGVpUGzAGpvfZ1GkL3vamyNiJfx11/
tKOBkDCBjTAJBgNVHRMEAjAAMBEGCWCGSAGG+EIBAQQEAwIFoDAdBgNVHQ4EFgQU
69RLWWuVYT9RV7YETYlBiERcq/IwHwYDVR0jBBgwFoAUlx1gw4ciWZtgH4S0mRyI
Tb/aHm4wDgYDVR0PAQH/BAQDAgXgMB0GA1UdJQQWMBQGCCsGAQUFBwMCBggrBgEF
BQcDBDAKBggqhkjOPQQDAgNIADBFAiBe6My62YzVR/EAn/a2IjlFpCektOZbCnJ0
wFB0KiilZQIhAKofLu9dYlzn5JMB77wMijSohui3fABOA7QX43L+ZYHf
-----END CERTIFICATE-----
