Certificate:
    Data:
        Version: 3 (0x2)
        Serial Number: 4098 (0x1002)
    Signature Algorithm: sha256WithRSAEncryption
        Issuer: C=US, ST=Washington, L=Seattle, O=wolfSSL, OU=Development, CN=wolfSSL Intermediate CA/emailAddress=info@wolfssl.com
        Validity
            Not Before: Dec 21 17:54:00 2018 GMT
            Not After : Dec 18 17:54:00 2028 GMT
        Subject: C=US, ST=Washington, L=Seattle, O=wolfSSL, OU=Development, CN=wolfSSL Client Chain/emailAddress=info@wolfssl.com
        Subject Public Key Info:
            Public Key Algorithm: rsaEncryption
                Public-Key: (2048 bit)
                Modulus:
                    00:c3:03:d1:2b:fe:39:a4:32:45:3b:53:c8:84:2b:
                    2a:7c:74:9a:bd:aa:2a:52:07:47:d6:a6:36:b2:07:
                    32:8e:d0:ba:69:7b:c6:c3:44:9e:d4:81:48:fd:2d:
                    68:a2:8b:67:bb:a1:75:c8:36:2c:4a:d2:1b:f7:8b:
                    ba:cf:0d:f9:ef:ec:f1:81:1e:7b:9b:03:47:9a:bf:
                    65:cc:7f:65:24:69:a6:e8:14:89:5b:e4:34:f7:c5:
                    b0:14:93:f5:67:7b:3a:7a:78:e1:01:56:56:91:a6:
                    13:42:8d:d2:3c:40:9c:4c:ef:d1:86:df:37:51:1b:
                    0c:a1:3b:f5:f1:a3:4a:35:e4:e1:ce:96:df:1b:7e:
                    bf:4e:97:d0:10:e8:a8:08:30:81:af:20:0b:43:14:
                    c5:74:67:b4:32:82:6f:8d:86:c2:88:40:99:36:83:
                    ba:1e:40:72:22:17:d7:52:65:24:73:b0:ce:ef:19:
                    cd:ae:ff:78:6c:7b:c0:12:03:d4:4e:72:0d:50:6d:
                    3b:a3:3b:a3:99:5e:9d:c8:d9:0c:85:b3:d9:8a:d9:
                    54:26:db:6d:fa:ac:bb:ff:25:4c:c4:d1:79:f4:71:
                    d3:86:40:18:13:b0:63:b5:72:4e:30:c4:97:84:86:
                    2d:56:2f:d7:15:f7:7f:c0:ae:f5:fc:5b:e5:fb:a1:
                    ba:d3
                Exponent: 65537 (0x10001)
        X509v3 extensions:
            X509v3 Basic Constraints: 
                CA:FALSE
            Netscape Cert Type: 
                SSL Client, S/MIME
            X509v3 Subject Key Identifier: 
                33:D8:45:66:D7:68:87:18:7E:54:0D:70:27:91:C7:26:D7:85:65:C0
            X509v3 Authority Key Identifier: 
                keyid:EF:69:E0:F7:D5:1D:E6:99:EC:DC:6D:D0:F7:E2:B9:5C:64:71:83:35

            X509v3 Key Usage: critical
                Digital Signature, Non Repudiation, Key Encipherment
            X509v3 Extended Key Usage: 
                TLS Web Client Authentication, E-mail Protection
    Signature Algorithm: sha256WithRSAEncryption
         88:81:21:78:ac:04:8a:79:7e:cd:a5:ba:3b:fe:52:61:e8:9c:
         5d:28:91:ca:68:72:31:99:d5:15:78:99:d1:03:ff:b6:13:59:
         23:48:9e:92:94:cc:91:01:93:dc:19:36:68:d7:48:53:ab:99:
         d8:23:fc:28:98:43:f3:eb:9f:e2:2f:c4:4c:b3:1c:48:35:92:
         6d:53:46:5d:c1:20:21:07:71:25:a1:37:89:1a:9b:ec:f5:e3:
         d1:15:a0:fe:10:2e:cd:67:d5:3d:6e:d6:b9:f5:38:8d:3a:12:
         c9:2e:f9:e1:a9:c8:6f:d6:04:05:66:df:3c:3a:69:d7:aa:6b:
         5e:71:0d:e3:53:38:3d:87:4a:1e:c7:88:78:1c:87:5a:21:bd:
         0f:86:f4:7c:86:bd:51:7d:9c:cb:f2:b2:a6:41:7a:f8:bb:08:
         11:67:6a:31:9f:48:f6:d1:07:a2:36:87:83:73:68:3b:c9:11:
         5e:ab:a3:d0:61:9a:df:8d:52:b9:8a:79:d2:f3:5d:b0:3d:15:
         69:ee:a3:b5:c2:be:b4:3f:11:b0:06:d3:b8:b4:32:45:95:ff:
         76:48:eb:63:0b:1d:79:0f:55:95:d6:7c:86:d4:61:20:f9:0f:
         a2:82:a4:1f:b1:10:53:d8:e8:c8:27:b3:bd:98:7b:0a:c4:5b:
         82:d0:6c:cf
-----BEGIN CERTIFICATE-----
MIIESjCCAzKgAwIBAgICEAIwDQYJKoZIhvcNAQELBQAwgZ8xCzAJBgNVBAYTAlVT
MRMwEQYDVQQIDApXYXNoaW5ndG9uMRAwDgYDVQQHDAdTZWF0dGxlMRAwDgYDVQQK
DAd3b2xmU1NMMRQwEgYDVQQLDAtEZXZlbG9wbWVudDEgMB4GA1UEAwwXd29sZlNT
TCBJbnRlcm1lZGlhdGUgQ0ExHzAdBgkqhkiG9w0BCQEWEGluZm9Ad29sZnNzbC5j
b20wHhcNMTgxMjIxMTc1NDAwWhcNMjgxMjE4MTc1NDAwWjCBnDELMAkGA1UEBhMC
VVMxEzARBgNVBAgMCldhc2hpbmd0b24xEDAOBgNVBAcMB1NlYXR0bGUxEDAOBgNV
BAoMB3dvbGZTU0wxFDASBgNVBAsMC0RldmVsb3BtZW50MR0wGwYDVQQDDBR3b2xm
U1NMIENsaWVudCBDaGFpbjEfMB0GCSqGSIb3DQEJARYQaW5mb0B3b2xmc3NsLmNv
bTCCASIwDQYJKoZIhvcNAQEBBQADggEPADCCAQoCggEBAMMD0Sv+OaQyRTtTyIQr
Knx0mr2qKlIHR9amNrIHMo7Quml7xsNEntSBSP0taKKLZ7uhdcg2LErSG/eLus8N
+e/s8YEee5sDR5q/Zcx/ZSRppugUiVvkNPfFsBST9Wd7Onp44QFWVpGmE0KN0jxA
nEzv0YbfN1EbDKE79fGjSjXk4c6W3xt+v06X0BDoqAgwga8gC0MUxXRntDKCb42G
wohAmTaDuh5AciIX11JlJHOwzu8Zza7/eGx7wBID1E5yDVBtO6M7o5lencjZDIWz
2YrZVCbbbfqsu/8lTMTRefRx04ZAGBOwY7VyTjDEl4SGLVYv1xX3f8Cu9fxb5fuh
utMCAwEAAaOBkDCBjTAJBgNVHRMEAjAAMBEGCWCGSAGG+EIBAQQEAwIFoDAdBgNV
HQ4EFgQUM9hFZtdohxh+VA1wJ5HHJteFZcAwHwYDVR0jBBgwFoAU72ng99Ud5pns
3G3Q9+K5XGRxgzUwDgYDVR0PAQH/BAQDAgXgMB0GA1UdJQQWMBQGCCsGAQUFBwMC
BggrBgEFBQcDBDANBgkqhkiG9w0BAQsFAAOCAQEAiIEheKwEinl+zaW6O/5SYeic
XSiRymhyMZnVFXiZ0QP/thNZI0iekpTMkQGT3Bk2aNdIU6uZ2CP8KJhD8+uf4i/E
TLMcSDWSbVNGXcEgIQdxJaE3iRqb7PXj0RWg/hAuzWfVPW7WufU4jToSyS754anI
b9YEBWbfPDpp16prXnEN41M4PYdKHseIeByHWiG9D4b0fIa9UX2cy/KypkF6+LsI
EWdqMZ9I9tEHojaHg3NoO8kRXquj0GGa341SuYp50vNdsD0Vae6jtcK+tD8RsAbT
uLQyRZX/dkjrYwsdeQ9VldZ8htRhIPkPooKkH7EQU9joyCezvZh7CsRbgtBszw==
-----END CERTIFICATE-----
