Certificate:
    Data:
        Version: 3 (0x2)
        Serial Number: 4097 (0x1001)
    Signature Algorithm: sha256WithRSAEncryption
        Issuer: C=US, ST=Washington, L=Seattle, O=wolfSSL, OU=Development, CN=wolfSSL Intermediate CA/emailAddress=info@wolfssl.com
        Validity
            Not Before: Dec 21 17:54:00 2018 GMT
            Not After : Dec 18 17:54:00 2028 GMT
        Subject: C=US, ST=Washington, L=Seattle, O=wolfSSL, OU=Development, CN=wolfSSL Server Chain/emailAddress=info@wolfssl.com
        Subject Public Key Info:
            Public Key Algorithm: rsaEncryption
                Public-Key: (2048 bit)
                Modulus:
                    00:c0:95:08:e1:57:41:f2:71:6d:b7:d2:45:41:27:
                    01:65:c6:45:ae:f2:bc:24:30:b8:95:ce:2f:4e:d6:
                    f6:1c:88:bc:7c:9f:fb:a8:67:7f:fe:5c:9c:51:75:
                    f7:8a:ca:07:e7:35:2f:8f:e1:bd:7b:c0:2f:7c:ab:
                    64:a8:17:fc:ca:5d:7b:ba:e0:21:e5:72:2e:6f:2e:
                    86:d8:95:73:da:ac:1b:53:b9:5f:3f:d7:19:0d:25:
                    4f:e1:63:63:51:8b:0b:64:3f:ad:43:b8:a5:1c:5c:
                    34:b3:ae:00:a0:63:c5:f6:7f:0b:59:68:78:73:a6:
                    8c:18:a9:02:6d:af:c3:19:01:2e:b8:10:e3:c6:cc:
                    40:b4:69:a3:46:33:69:87:6e:c4:bb:17:a6:f3:e8:
                    dd:ad:73:bc:7b:2f:21:b5:fd:66:51:0c:bd:54:b3:
                    e1:6d:5f:1c:bc:23:73:d1:09:03:89:14:d2:10:b9:
                    64:c3:2a:d0:a1:96:4a:bc:e1:d4:1a:5b:c7:a0:c0:
                    c1:63:78:0f:44:37:30:32:96:80:32:23:95:a1:77:
                    ba:13:d2:97:73:e2:5d:25:c9:6a:0d:c3:39:60:a4:
                    b4:b0:69:42:42:09:e9:d8:08:bc:33:20:b3:58:22:
                    a7:aa:eb:c4:e1:e6:61:83:c5:d2:96:df:d9:d0:4f:
                    ad:d7
                Exponent: 65537 (0x10001)
        X509v3 extensions:
            X509v3 Basic Constraints: 
                CA:FALSE
            Netscape Cert Type: 
                SSL Server
            X509v3 Subject Key Identifier: 
                B3:11:32:C9:92:98:84:E2:C9:F8:D0:3B:6E:03:42:CA:1F:0E:8E:3C
            X509v3 Authority Key Identifier: 
                keyid:EF:69:E0:F7:D5:1D:E6:99:EC:DC:6D:D0:F7:E2:B9:5C:64:71:83:35
                DirName:/C=US/ST=Montana/L=Bozeman/O=Sawtooth/OU=Consulting/CN=www.wolfssl.com/emailAddress=info@wolfssl.com
                serial:10:00

            X509v3 Key Usage: critical
                Digital Signature, Key Encipherment, Key Agreement
            X509v3 Extended Key Usage: 
                TLS Web Server Authentication
    Signature Algorithm: sha256WithRSAEncryption
         3d:b5:8d:66:7e:85:a0:87:cc:53:a4:c7:c9:63:6b:d4:c4:44:
         c7:45:d0:71:ef:2f:58:92:60:7d:c8:37:ed:64:ea:b1:ab:00:
         1b:56:fe:f7:77:78:76:fd:64:63:7d:78:ff:d4:ae:58:1b:f0:
         14:e9:e7:bd:4b:ec:36:6f:34:cb:91:b0:43:25:66:8b:c0:59:
         d1:ea:ed:25:0d:5c:72:8a:29:de:8a:c8:77:51:b9:d5:c4:e5:
         26:50:0c:bd:d7:a1:eb:fa:93:ec:3d:36:8f:cf:ee:b6:6b:5c:
         a8:4f:1b:71:c6:4d:2c:af:d2:da:20:c8:89:f3:fc:db:84:c2:
         a9:f6:97:62:ac:aa:a7:6b:fb:3b:21:51:85:7a:73:55:34:82:
         9b:f8:99:cb:96:89:a2:d3:39:5f:b3:0d:5f:8e:9e:46:4a:55:
         57:ab:de:11:cf:80:1f:25:c9:ec:6f:48:fd:ce:5b:d2:05:07:
         6b:4e:fc:0d:10:a0:8a:82:fb:e4:77:3a:27:e0:0e:0c:fb:43:
         64:5f:90:8e:26:12:94:db:97:18:ec:19:94:1b:56:5c:b9:bb:
         26:9b:1c:15:5c:07:df:d1:2d:9d:41:96:c0:2a:5a:4a:9e:5f:
         9e:66:9a:8c:6c:ff:6c:ca:a1:7d:b6:12:a3:d4:33:0b:00:1e:
         ba:5d:3d:7a
-----BEGIN CERTIFICATE-----
MIIE5jCCA86gAwIBAgICEAEwDQYJKoZIhvcNAQELBQAwgZ8xCzAJBgNVBAYTAlVT
MRMwEQYDVQQIDApXYXNoaW5ndG9uMRAwDgYDVQQHDAdTZWF0dGxlMRAwDgYDVQQK
DAd3b2xmU1NMMRQwEgYDVQQLDAtEZXZlbG9wbWVudDEgMB4GA1UEAwwXd29sZlNT
TCBJbnRlcm1lZGlhdGUgQ0ExHzAdBgkqhkiG9w0BCQEWEGluZm9Ad29sZnNzbC5j
b20wHhcNMTgxMjIxMTc1NDAwWhcNMjgxMjE4MTc1NDAwWjCBnDELMAkGA1UEBhMC
VVMxEzARBgNVBAgMCldhc2hpbmd0b24xEDAOBgNVBAcMB1NlYXR0bGUxEDAOBgNV
BAoMB3dvbGZTU0wxFDASBgNVBAsMC0RldmVsb3BtZW50MR0wGwYDVQQDDBR3b2xm
U1NMIFNlcnZlciBDaGFpbjEfMB0GCSqGSIb3DQEJARYQaW5mb0B3b2xmc3NsLmNv
bTCCASIwDQYJKoZIhvcNAQEBBQADggEPADCCAQoCggEBAMCVCOFXQfJxbbfSRUEn
AWXGRa7yvCQwuJXOL07W9hyIvHyf+6hnf/5cnFF194rKB+c1L4/hvXvAL3yrZKgX
/Mpde7rgIeVyLm8uhtiVc9qsG1O5Xz/XGQ0lT+FjY1GLC2Q/rUO4pRxcNLOuAKBj
xfZ/C1loeHOmjBipAm2vwxkBLrgQ48bMQLRpo0YzaYduxLsXpvPo3a1zvHsvIbX9
ZlEMvVSz4W1fHLwjc9EJA4kU0hC5ZMMq0KGWSrzh1Bpbx6DAwWN4D0Q3MDKWgDIj
laF3uhPSl3PiXSXJag3DOWCktLBpQkIJ6dgIvDMgs1gip6rrxOHmYYPF0pbf2dBP
rdcCAwEAAaOCASswggEnMAkGA1UdEwQCMAAwEQYJYIZIAYb4QgEBBAQDAgZAMB0G
A1UdDgQWBBSzETLJkpiE4sn40DtuA0LKHw6OPDCBwgYDVR0jBIG6MIG3gBTvaeD3
1R3mmezcbdD34rlcZHGDNaGBmqSBlzCBlDELMAkGA1UEBhMCVVMxEDAOBgNVBAgM
B01vbnRhbmExEDAOBgNVBAcMB0JvemVtYW4xETAPBgNVBAoMCFNhd3Rvb3RoMRMw
EQYDVQQLDApDb25zdWx0aW5nMRgwFgYDVQQDDA93d3cud29sZnNzbC5jb20xHzAd
BgkqhkiG9w0BCQEWEGluZm9Ad29sZnNzbC5jb22CAhAAMA4GA1UdDwEB/wQEAwID
qDATBgNVHSUEDDAKBggrBgEFBQcDATANBgkqhkiG9w0BAQsFAAOCAQEAPbWNZn6F
oIfMU6THyWNr1MREx0XQce8vWJJgfcg37WTqsasAG1b+93d4dv1kY314/9SuWBvw
FOnnvUvsNm80y5GwQyVmi8BZ0ertJQ1ccoop3orId1G51cTlJlAMvdeh6/qT7D02
j8/utmtcqE8bccZNLK/S2iDIifP824TCqfaXYqyqp2v7OyFRhXpzVTSCm/iZy5aJ
otM5X7MNX46eRkpVV6veEc+AHyXJ7G9I/c5b0gUHa078DRCgioL75Hc6J+AODPtD
ZF+QjiYSlNuXGOwZlBtWXLm7JpscFVwH39EtnUGWwCpaSp5fnmaajGz/bMqhfbYS
o9QzCwAeul09eg==
-----END CERTIFICATE-----
