Certificate:
    Data:
        Version: 3 (0x2)
        Serial Number: 4100 (0x1004)
    Signature Algorithm: ecdsa-with-SHA256
        Issuer: C=US, ST=Washington, L=Seattle, O=wolfSSL, OU=Development, CN=wolfSSL Intermediate CA ECC/emailAddress=info@wolfssl.com
        Validity
            Not Before: Dec 21 17:54:01 2018 GMT
            Not After : Dec 18 17:54:01 2028 GMT
        Subject: C=US, ST=Washington, L=Seattle, O=wolfSSL, OU=Development, CN=wolfSSL Server Chain ECC/emailAddress=info@wolfssl.com
        Subject Public Key Info:
            Public Key Algorithm: id-ecPublicKey
                Public-Key: (256 bit)
                pub: 
                    04:bb:33:ac:4c:27:50:4a:c6:4a:a5:04:c3:3c:de:
                    9f:36:db:72:2d:ce:94:ea:2b:fa:cb:20:09:39:2c:
                    16:e8:61:02:e9:af:4d:d3:02:93:9a:31:5b:97:92:
                    21:7f:f0:cf:18:da:91:11:02:34:86:e8:20:58:33:
                    0b:80:34:89:d8
                ASN1 OID: prime256v1
                NIST CURVE: P-256
        X509v3 extensions:
            X509v3 Basic Constraints: 
                CA:FALSE
            Netscape Cert Type: 
                SSL Server
            X509v3 Subject Key Identifier: 
                5D:5D:26:EF:AC:7E:36:F9:9B:76:15:2B:4A:25:02:23:EF:B2:89:30
            X509v3 Authority Key Identifier: 
                keyid:97:1D:60:C3:87:22:59:9B:60:1F:84:B4:99:1C:88:4D:BF:DA:1E:6E
                DirName:/C=US/ST=Washington/L=Seattle/O=wolfSSL/OU=Development/CN=www.wolfssl.com/emailAddress=info@wolfssl.com
                serial:10:03

            X509v3 Key Usage: critical
                Digital Signature, Key Encipherment, Key Agreement
            X509v3 Extended Key Usage: 
                TLS Web Server Authentication
    Signature Algorithm: ecdsa-with-SHA256
         30:44:02:20:74:5c:69:0b:da:f1:d8:cf:21:bc:81:ac:b1:e5:
         c5:b3:38:72:f9:9c:f1:50:2d:31:26:49:58:c3:de:cb:e5:7d:
         02:20:78:9d:3f:5b:e2:12:bb:1b:2d:3d:25:db:2b:a8:f4:76:
         02:90:7b:24:a8:1d:49:96:45:56:57:8b:bb:59:54:fa
-----BEGIN CERTIFICATE-----
MIIDZDCCAwugAwIBAgICEAQwCgYIKoZIzj0EAwIwgaMxCzAJBgNVBAYTAlVTMRMw
EQYDVQQIDApXYXNoaW5ndG9uMRAwDgYDVQQHDAdTZWF0dGxlMRAwDgYDVQQKDAd3
b2xmU1NMMRQwEgYDVQQLDAtEZXZlbG9wbWVudDEkMCIGA1UEAwwbd29sZlNTTCBJ
bnRlcm1lZGlhdGUgQ0EgRUNDMR8wHQYJKoZIhvcNAQkBFhBpbmZvQHdvbGZzc2wu
Y29tMB4XDTE4MTIyMTE3NTQwMVoXDTI4MTIxODE3NTQwMVowgaAxCzAJBgNVBAYT
AlVTMRMwEQYDVQQIDApXYXNoaW5ndG9uMRAwDgYDVQQHDAdTZWF0dGxlMRAwDgYD
VQQKDAd3b2xmU1NMMRQwEgYDVQQLDAtEZXZlbG9wbWVudDEhMB8GA1UEAwwYd29s
ZlNTTCBTZXJ2ZXIgQ2hhaW4gRUNDMR8wHQYJKoZIhvcNAQkBFhBpbmZvQHdvbGZz
c2wuY29tMFkwEwYHKoZIzj0CAQYIKoZIzj0DAQcDQgAEuzOsTCdQSsZKpQTDPN6f
NttyLc6U6iv6yyAJOSwW6GEC6a9N0wKTmjFbl5Ihf/DPGNqREQI0huggWDMLgDSJ
2KOCAS4wggEqMAkGA1UdEwQCMAAwEQYJYIZIAYb4QgEBBAQDAgZAMB0GA1UdDgQW
BBRdXSbvrH42+Zt2FStKJQIj77KJMDCBxQYDVR0jBIG9MIG6gBSXHWDDhyJZm2Af
hLSZHIhNv9oebqGBnaSBmjCBlzELMAkGA1UEBhMCVVMxEzARBgNVBAgMCldhc2hp
bmd0b24xEDAOBgNVBAcMB1NlYXR0bGUxEDAOBgNVBAoMB3dvbGZTU0wxFDASBgNV
BAsMC0RldmVsb3BtZW50MRgwFgYDVQQDDA93d3cud29sZnNzbC5jb20xHzAdBgkq
hkiG9w0BCQEWEGluZm9Ad29sZnNzbC5jb22CAhADMA4GA1UdDwEB/wQEAwIDqDAT
BgNVHSUEDDAKBggrBgEFBQcDATAKBggqhkjOPQQDAgNHADBEAiB0XGkL2vHYzyG8
gayx5cWzOHL5nPFQLTEmSVjD3svlfQIgeJ0/W+ISuxstPSXbK6j0dgKQeySoHUmW
RVZXi7tZVPo=
-----END CERTIFICATE-----
