Certificate:
    Data:
        Version: 3 (0x2)
        Serial Number: 10163970144298616102 (0x8d0dacfec6984526)
    Signature Algorithm: sha1WithRSAEncryption
        Issuer: C=US, ST=Oregon, L=Portland, O=yaSSL, OU=Programming, CN=www.yassl.com/emailAddress=info@yassl.com
        Validity
            Not Before: Jan 18 21:42:49 2013 GMT
            Not After : Oct 15 21:42:49 2015 GMT
        Subject: C=US, ST=Oregon, L=Portland, O=yaSSL, OU=Programming, CN=www.yassl.com/emailAddress=info@yassl.com
        Subject Public Key Info:
            Public Key Algorithm: rsaEncryption
                Public-Key: (1024 bit)
                Modulus:
                    00:bc:73:0e:a8:49:f3:74:a2:a9:ef:18:a5:da:55:
                    99:21:f9:c8:ec:b3:6d:48:e5:35:35:75:77:37:ec:
                    d1:61:90:5f:3e:d9:e4:d5:df:94:ca:c1:a9:d7:19:
                    da:86:c9:e8:4d:c4:61:36:82:fe:ab:ad:7e:77:25:
                    bb:8d:11:a5:bc:62:3a:a8:38:cc:39:a2:04:66:b4:
                    f7:f7:f3:aa:da:4d:02:0e:bb:5e:8d:69:48:dc:77:
                    c9:28:0e:22:e9:6b:a4:26:ba:4c:e8:c1:fd:4a:6f:
                    2b:1f:ef:8a:ae:f6:90:62:e5:64:1e:eb:2b:3c:67:
                    c8:dc:27:00:f6:91:68:65:a9
                Exponent: 65537 (0x10001)
        X509v3 extensions:
            X509v3 Subject Key Identifier: 
                81:69:0F:F8:DF:DD:CF:34:29:D5:67:75:71:85:C7:75:10:69:59:EC
            X509v3 Authority Key Identifier: 
                keyid:81:69:0F:F8:DF:DD:CF:34:29:D5:67:75:71:85:C7:75:10:69:59:EC

            X509v3 Basic Constraints: 
                CA:TRUE
    Signature Algorithm: sha1WithRSAEncryption
         72:66:0f:6a:a1:85:95:06:e6:87:1a:ed:2b:da:ed:84:90:89:
         a6:31:4d:60:f2:7b:63:0c:dc:9b:44:4c:d6:62:41:24:74:30:
         70:4e:07:10:05:12:5e:14:b3:dd:cf:58:27:93:cf:aa:4f:85:
         2c:35:0e:ff:5b:a8:6b:b5:95:32:d5:cc:73:68:5b:1b:c4:f8:
         89:5e:3d:f8:02:39:32:7d:06:a4:32:e9:b3:ef:62:a0:43:5d:
         4f:fb:ce:3d:08:33:af:3d:7f:12:cb:8a:5a:c2:63:db:3e:dd:
         ea:5b:67:10:49:9f:5b:96:1b:4e:5d:bc:4e:9a:7c:1f:ab:56:
         47:4a
-----BEGIN CERTIFICATE-----
MIIC7DCCAlWgAwIBAgIJAI0NrP7GmEUmMA0GCSqGSIb3DQEBBQUAMIGOMQswCQYD
VQQGEwJVUzEPMA0GA1UECAwGT3JlZ29uMREwDwYDVQQHDAhQb3J0bGFuZDEOMAwG
A1UECgwFeWFTU0wxFDASBgNVBAsMC1Byb2dyYW1taW5nMRYwFAYDVQQDDA13d3cu
eWFzc2wuY29tMR0wGwYJKoZIhvcNAQkBFg5pbmZvQHlhc3NsLmNvbTAeFw0xMzAx
MTgyMTQyNDlaFw0xNTEwMTUyMTQyNDlaMIGOMQswCQYDVQQGEwJVUzEPMA0GA1UE
CAwGT3JlZ29uMREwDwYDVQQHDAhQb3J0bGFuZDEOMAwGA1UECgwFeWFTU0wxFDAS
BgNVBAsMC1Byb2dyYW1taW5nMRYwFAYDVQQDDA13d3cueWFzc2wuY29tMR0wGwYJ
KoZIhvcNAQkBFg5pbmZvQHlhc3NsLmNvbTCBnzANBgkqhkiG9w0BAQEFAAOBjQAw
gYkCgYEAvHMOqEnzdKKp7xil2lWZIfnI7LNtSOU1NXV3N+zRYZBfPtnk1d+UysGp
1xnahsnoTcRhNoL+q61+dyW7jRGlvGI6qDjMOaIEZrT39/Oq2k0CDrtejWlI3HfJ
KA4i6WukJrpM6MH9Sm8rH++KrvaQYuVkHusrPGfI3CcA9pFoZakCAwEAAaNQME4w
HQYDVR0OBBYEFIFpD/jf3c80KdVndXGFx3UQaVnsMB8GA1UdIwQYMBaAFIFpD/jf
3c80KdVndXGFx3UQaVnsMAwGA1UdEwQFMAMBAf8wDQYJKoZIhvcNAQEFBQADgYEA
cmYPaqGFlQbmhxrtK9rthJCJpjFNYPJ7Ywzcm0RM1mJBJHQwcE4HEAUSXhSz3c9Y
J5PPqk+FLDUO/1uoa7WVMtXMc2hbG8T4iV49+AI5Mn0GpDLps+9ioENdT/vOPQgz
rz1/EsuKWsJj2z7d6ltnEEmfW5YbTl28Tpp8H6tWR0o=
-----END CERTIFICATE-----
