Certificate:
    Data:
        Version: 3 (0x2)
        Serial Number: 18174562873897217159 (0xfc3904a40ea56c87)
    Signature Algorithm: ecdsa-with-SHA384
        Issuer: C=US, ST=Washington, L=Seattle, O=wolfSSL, OU=Development, CN=www.wolfssl.com/emailAddress=info@wolfssl.com
        Validity
            Not Before: Apr 13 15:23:10 2018 GMT
            Not After : Jan  7 15:23:10 2021 GMT
        Subject: C=US, ST=Washington, L=Seattle, O=wolfSSL, OU=Development, CN=www.wolfssl.com/emailAddress=info@wolfssl.com
        Subject Public Key Info:
            Public Key Algorithm: id-ecPublicKey
                Public-Key: (384 bit)
                pub: 
                    04:ee:82:d4:39:9a:b1:27:82:f4:d7:ea:c6:bc:03:
                    1d:4d:83:61:f4:03:ae:7e:bd:d8:5a:a5:b9:f0:8e:
                    a2:a5:da:ce:87:3b:5a:ab:44:16:9c:f5:9f:62:dd:
                    f6:20:cd:9c:76:3c:40:b1:3f:97:17:df:59:f6:cd:
                    de:cd:46:35:c0:ed:5e:2e:48:b6:66:91:71:74:b7:
                    0c:3f:b9:9a:b7:83:bd:93:3f:5f:50:2d:70:3f:de:
                    35:25:e1:90:3b:86:e0
                ASN1 OID: secp384r1
                NIST CURVE: P-384
        X509v3 extensions:
            X509v3 Subject Key Identifier: 
                AB:E0:C3:26:4C:18:D4:72:BB:D2:84:8C:9C:0A:05:92:80:12:53:52
            X509v3 Authority Key Identifier: 
                keyid:AB:E0:C3:26:4C:18:D4:72:BB:D2:84:8C:9C:0A:05:92:80:12:53:52

            X509v3 Basic Constraints: critical
                CA:TRUE
            X509v3 Key Usage: critical
                Digital Signature, Certificate Sign, CRL Sign
    Signature Algorithm: ecdsa-with-SHA384
         30:65:02:30:0d:0a:62:fb:e6:3a:fe:71:d8:2b:44:e5:97:34:
         04:a9:8c:0a:99:88:a0:bd:1f:b0:df:94:59:27:bb:2b:c6:2a:
         be:a4:69:1b:cf:97:78:2a:28:96:ee:ba:d4:87:45:fd:02:31:
         00:c0:73:19:66:76:5e:9f:a3:65:85:41:ef:b7:7b:3d:63:6d:
         98:71:99:6f:9c:db:a8:5e:53:6e:a0:68:11:65:bc:78:74:28:
         69:c7:64:9d:88:f2:d8:c2:3d:29:03:83:23
-----BEGIN CERTIFICATE-----
MIICxzCCAk2gAwIBAgIJAPw5BKQOpWyHMAoGCCqGSM49BAMDMIGXMQswCQYDVQQG
EwJVUzETMBEGA1UECAwKV2FzaGluZ3RvbjEQMA4GA1UEBwwHU2VhdHRsZTEQMA4G
A1UECgwHd29sZlNTTDEUMBIGA1UECwwLRGV2ZWxvcG1lbnQxGDAWBgNVBAMMD3d3
dy53b2xmc3NsLmNvbTEfMB0GCSqGSIb3DQEJARYQaW5mb0B3b2xmc3NsLmNvbTAe
Fw0xODA0MTMxNTIzMTBaFw0yMTAxMDcxNTIzMTBaMIGXMQswCQYDVQQGEwJVUzET
MBEGA1UECAwKV2FzaGluZ3RvbjEQMA4GA1UEBwwHU2VhdHRsZTEQMA4GA1UECgwH
d29sZlNTTDEUMBIGA1UECwwLRGV2ZWxvcG1lbnQxGDAWBgNVBAMMD3d3dy53b2xm
c3NsLmNvbTEfMB0GCSqGSIb3DQEJARYQaW5mb0B3b2xmc3NsLmNvbTB2MBAGByqG
SM49AgEGBSuBBAAiA2IABO6C1DmasSeC9NfqxrwDHU2DYfQDrn692FqlufCOoqXa
zoc7WqtEFpz1n2Ld9iDNnHY8QLE/lxffWfbN3s1GNcDtXi5ItmaRcXS3DD+5mreD
vZM/X1AtcD/eNSXhkDuG4KNjMGEwHQYDVR0OBBYEFKvgwyZMGNRyu9KEjJwKBZKA
ElNSMB8GA1UdIwQYMBaAFKvgwyZMGNRyu9KEjJwKBZKAElNSMA8GA1UdEwEB/wQF
MAMBAf8wDgYDVR0PAQH/BAQDAgGGMAoGCCqGSM49BAMDA2gAMGUCMA0KYvvmOv5x
2CtE5Zc0BKmMCpmIoL0fsN+UWSe7K8YqvqRpG8+XeCoolu661IdF/QIxAMBzGWZ2
Xp+jZYVB77d7PWNtmHGZb5zbqF5TbqBoEWW8eHQoacdknYjy2MI9KQODIw==
-----END CERTIFICATE-----
