Certificate:
    Data:
        Version: 3 (0x2)
        Serial Number: 12260966172072242701 (0xaa27b3c5a9726e0d)
    Signature Algorithm: sha256WithRSAEncryption
        Issuer: C=US, ST=Montana, L=Bozeman, O=wolfSSL_2048, OU=Programming-2048, CN=www.wolfssl.com/emailAddress=info@wolfssl.com
        Validity
            Not Before: May  7 18:21:01 2015 GMT
            Not After : Jan 31 18:21:01 2018 GMT
        Subject: C=US, ST=Montana, L=Bozeman, O=wolfSSL_2048, OU=Programming-2048, CN=www.wolfssl.com/emailAddress=info@wolfssl.com
        Subject Public Key Info:
            Public Key Algorithm: rsaEncryption
                Public-Key: (2048 bit)
                Modulus:
                    00:c3:03:d1:2b:fe:39:a4:32:45:3b:53:c8:84:2b:
                    2a:7c:74:9a:bd:aa:2a:52:07:47:d6:a6:36:b2:07:
                    32:8e:d0:ba:69:7b:c6:c3:44:9e:d4:81:48:fd:2d:
                    68:a2:8b:67:bb:a1:75:c8:36:2c:4a:d2:1b:f7:8b:
                    ba:cf:0d:f9:ef:ec:f1:81:1e:7b:9b:03:47:9a:bf:
                    65:cc:7f:65:24:69:a6:e8:14:89:5b:e4:34:f7:c5:
                    b0:14:93:f5:67:7b:3a:7a:78:e1:01:56:56:91:a6:
                    13:42:8d:d2:3c:40:9c:4c:ef:d1:86:df:37:51:1b:
                    0c:a1:3b:f5:f1:a3:4a:35:e4:e1:ce:96:df:1b:7e:
                    bf:4e:97:d0:10:e8:a8:08:30:81:af:20:0b:43:14:
                    c5:74:67:b4:32:82:6f:8d:86:c2:88:40:99:36:83:
                    ba:1e:40:72:22:17:d7:52:65:24:73:b0:ce:ef:19:
                    cd:ae:ff:78:6c:7b:c0:12:03:d4:4e:72:0d:50:6d:
                    3b:a3:3b:a3:99:5e:9d:c8:d9:0c:85:b3:d9:8a:d9:
                    54:26:db:6d:fa:ac:bb:ff:25:4c:c4:d1:79:f4:71:
                    d3:86:40:18:13:b0:63:b5:72:4e:30:c4:97:84:86:
                    2d:56:2f:d7:15:f7:7f:c0:ae:f5:fc:5b:e5:fb:a1:
                    ba:d3
                Exponent: 65537 (0x10001)
        X509v3 extensions:
            X509v3 Subject Key Identifier: 
                33:D8:45:66:D7:68:87:18:7E:54:0D:70:27:91:C7:26:D7:85:65:C0
            X509v3 Authority Key Identifier: 
                keyid:33:D8:45:66:D7:68:87:18:7E:54:0D:70:27:91:C7:26:D7:85:65:C0
                DirName:/C=US/ST=Montana/L=Bozeman/O=wolfSSL_2048/OU=Programming-2048/CN=www.wolfssl.com/emailAddress=info@wolfssl.com
                serial:AA:27:B3:C5:A9:72:6E:0D

            X509v3 Basic Constraints: 
                CA:TRUE
    Signature Algorithm: sha256WithRSAEncryption
         51:96:a7:1c:26:5d:1c:90:c6:32:9f:96:15:f2:1d:e7:93:9c:
         ac:75:56:95:fd:20:70:ab:45:6a:09:b0:f3:f2:03:a8:db:dc:
         2f:bc:1f:87:7a:a3:d4:8f:d5:49:97:7e:3c:54:ac:b1:e3:f0:
         39:0d:fe:09:9a:23:f6:32:a6:41:59:bd:60:e8:bd:de:00:36:
         6f:3e:e9:41:6f:a9:63:c7:aa:d5:7b:f3:e4:39:48:9e:f6:60:
         c6:c6:86:d5:72:86:23:cd:f5:6a:63:53:a4:f8:fc:51:6a:cd:
         60:74:8e:a3:86:61:01:34:78:f7:29:97:b3:a7:34:b6:0a:de:
         b5:71:7a:09:a6:3e:d6:82:58:89:67:9c:c5:68:62:ba:06:d6:
         39:bb:cb:3a:c0:e0:63:1f:c7:0c:9c:12:86:ec:f7:39:6a:61:
         93:d0:33:14:c6:55:3b:b6:cf:80:5b:8c:43:ef:43:44:0b:3c:
         93:39:a3:4e:15:d1:0b:5f:84:98:1d:cd:9f:a9:47:eb:3b:56:
         30:b6:76:92:c1:48:5f:bc:95:b0:50:1a:55:c8:4e:62:47:87:
         54:64:0c:9b:91:fa:43:b3:29:48:be:e6:12:eb:e3:44:c6:52:
         e4:40:c6:83:95:1b:a7:65:27:69:73:2f:c8:a0:4d:7f:be:ea:
         9b:67:b2:7b
-----BEGIN CERTIFICATE-----
MIIEyjCCA7KgAwIBAgIJAKons8Wpcm4NMA0GCSqGSIb3DQEBCwUAMIGeMQswCQYD
VQQGEwJVUzEQMA4GA1UECAwHTW9udGFuYTEQMA4GA1UEBwwHQm96ZW1hbjEVMBMG
A1UECgwMd29sZlNTTF8yMDQ4MRkwFwYDVQQLDBBQcm9ncmFtbWluZy0yMDQ4MRgw
FgYDVQQDDA93d3cud29sZnNzbC5jb20xHzAdBgkqhkiG9w0BCQEWEGluZm9Ad29s
ZnNzbC5jb20wHhcNMTUwNTA3MTgyMTAxWhcNMTgwMTMxMTgyMTAxWjCBnjELMAkG
A1UEBhMCVVMxEDAOBgNVBAgMB01vbnRhbmExEDAOBgNVBAcMB0JvemVtYW4xFTAT
BgNVBAoMDHdvbGZTU0xfMjA0ODEZMBcGA1UECwwQUHJvZ3JhbW1pbmctMjA0ODEY
MBYGA1UEAwwPd3d3LndvbGZzc2wuY29tMR8wHQYJKoZIhvcNAQkBFhBpbmZvQHdv
bGZzc2wuY29tMIIBIjANBgkqhkiG9w0BAQEFAAOCAQ8AMIIBCgKCAQEAwwPRK/45
pDJFO1PIhCsqfHSavaoqUgdH1qY2sgcyjtC6aXvGw0Se1IFI/S1oootnu6F1yDYs
StIb94u6zw357+zxgR57mwNHmr9lzH9lJGmm6BSJW+Q098WwFJP1Z3s6enjhAVZW
kaYTQo3SPECcTO/Rht83URsMoTv18aNKNeThzpbfG36/TpfQEOioCDCBryALQxTF
dGe0MoJvjYbCiECZNoO6HkByIhfXUmUkc7DO7xnNrv94bHvAEgPUTnINUG07ozuj
mV6dyNkMhbPZitlUJttt+qy7/yVMxNF59HHThkAYE7BjtXJOMMSXhIYtVi/XFfd/
wK71/Fvl+6G60wIDAQABo4IBBzCCAQMwHQYDVR0OBBYEFDPYRWbXaIcYflQNcCeR
xybXhWXAMIHTBgNVHSMEgcswgciAFDPYRWbXaIcYflQNcCeRxybXhWXAoYGkpIGh
MIGeMQswCQYDVQQGEwJVUzEQMA4GA1UECAwHTW9udGFuYTEQMA4GA1UEBwwHQm96
ZW1hbjEVMBMGA1UECgwMd29sZlNTTF8yMDQ4MRkwFwYDVQQLDBBQcm9ncmFtbWlu
Zy0yMDQ4MRgwFgYDVQQDDA93d3cud29sZnNzbC5jb20xHzAdBgkqhkiG9w0BCQEW
EGluZm9Ad29sZnNzbC5jb22CCQCqJ7PFqXJuDTAMBgNVHRMEBTADAQH/MA0GCSqG
SIb3DQEBCwUAA4IBAQBRlqccJl0ckMYyn5YV8h3nk5ysdVaV/SBwq0VqCbDz8gOo
29wvvB+HeqPUj9VJl348VKyx4/A5Df4JmiP2MqZBWb1g6L3eADZvPulBb6ljx6rV
e/PkOUie9mDGxobVcoYjzfVqY1Ok+PxRas1gdI6jhmEBNHj3KZezpzS2Ct61cXoJ
pj7WgliJZ5zFaGK6BtY5u8s6wOBjH8cMnBKG7Pc5amGT0DMUxlU7ts+AW4xD70NE
CzyTOaNOFdELX4SYHc2fqUfrO1YwtnaSwUhfvJWwUBpVyE5iR4dUZAybkfpDsylI
vuYS6+NExlLkQMaDlRunZSdpcy/IoE1/vuqbZ7J7
-----END CERTIFICATE-----
