Certificate:
    Data:
        Version: 3 (0x2)
        Serial Number: 10646345548447194541 (0x93bf6ade9b419dad)
    Signature Algorithm: ecdsa-with-SHA256
        Issuer: C=US, ST=Oregon, L=Salem, O=Client ECC, OU=Fast, CN=www.wolfssl.com/emailAddress=info@wolfssl.com
        Validity
            Not Before: Apr 13 15:23:10 2018 GMT
            Not After : Jan  7 15:23:10 2021 GMT
        Subject: C=US, ST=Oregon, L=Salem, O=Client ECC, OU=Fast, CN=www.wolfssl.com/emailAddress=info@wolfssl.com
        Subject Public Key Info:
            Public Key Algorithm: id-ecPublicKey
                Public-Key: (256 bit)
                pub: 
                    04:55:bf:f4:0f:44:50:9a:3d:ce:9b:b7:f0:c5:4d:
                    f5:70:7b:d4:ec:24:8e:19:80:ec:5a:4c:a2:24:03:
                    62:2c:9b:da:ef:a2:35:12:43:84:76:16:c6:56:95:
                    06:cc:01:a9:bd:f6:75:1a:42:f7:bd:a9:b2:36:22:
                    5f:c7:5d:7f:b4
                ASN1 OID: prime256v1
                NIST CURVE: P-256
        X509v3 extensions:
            X509v3 Subject Key Identifier: 
                EB:D4:4B:59:6B:95:61:3F:51:57:B6:04:4D:89:41:88:44:5C:AB:F2
            X509v3 Authority Key Identifier: 
                keyid:EB:D4:4B:59:6B:95:61:3F:51:57:B6:04:4D:89:41:88:44:5C:AB:F2
                DirName:/C=US/ST=Oregon/L=Salem/O=Client ECC/OU=Fast/CN=www.wolfssl.com/emailAddress=info@wolfssl.com
                serial:93:BF:6A:DE:9B:41:9D:AD

            X509v3 Basic Constraints: 
                CA:TRUE
    Signature Algorithm: ecdsa-with-SHA256
         30:44:02:20:61:bc:9d:4d:88:64:86:b8:71:aa:35:59:68:b8:
         ee:2c:f3:23:b5:1a:b9:ba:41:50:a8:c6:c3:58:eb:58:bd:60:
         02:20:61:aa:eb:b5:73:0d:01:db:69:8f:52:f5:72:6d:37:42:
         b5:fd:94:b6:6e:b1:c4:25:2e:96:96:f3:39:b2:5d:ea
-----BEGIN CERTIFICATE-----
MIIDCDCCAq+gAwIBAgIJAJO/at6bQZ2tMAoGCCqGSM49BAMCMIGNMQswCQYDVQQG
EwJVUzEPMA0GA1UECAwGT3JlZ29uMQ4wDAYDVQQHDAVTYWxlbTETMBEGA1UECgwK
Q2xpZW50IEVDQzENMAsGA1UECwwERmFzdDEYMBYGA1UEAwwPd3d3LndvbGZzc2wu
Y29tMR8wHQYJKoZIhvcNAQkBFhBpbmZvQHdvbGZzc2wuY29tMB4XDTE4MDQxMzE1
MjMxMFoXDTIxMDEwNzE1MjMxMFowgY0xCzAJBgNVBAYTAlVTMQ8wDQYDVQQIDAZP
cmVnb24xDjAMBgNVBAcMBVNhbGVtMRMwEQYDVQQKDApDbGllbnQgRUNDMQ0wCwYD
VQQLDARGYXN0MRgwFgYDVQQDDA93d3cud29sZnNzbC5jb20xHzAdBgkqhkiG9w0B
CQEWEGluZm9Ad29sZnNzbC5jb20wWTATBgcqhkjOPQIBBggqhkjOPQMBBwNCAARV
v/QPRFCaPc6bt/DFTfVwe9TsJI4ZgOxaTKIkA2Ism9rvojUSQ4R2FsZWlQbMAam9
9nUaQve9qbI2Il/HXX+0o4H1MIHyMB0GA1UdDgQWBBTr1EtZa5VhP1FXtgRNiUGI
RFyr8jCBwgYDVR0jBIG6MIG3gBTr1EtZa5VhP1FXtgRNiUGIRFyr8qGBk6SBkDCB
jTELMAkGA1UEBhMCVVMxDzANBgNVBAgMBk9yZWdvbjEOMAwGA1UEBwwFU2FsZW0x
EzARBgNVBAoMCkNsaWVudCBFQ0MxDTALBgNVBAsMBEZhc3QxGDAWBgNVBAMMD3d3
dy53b2xmc3NsLmNvbTEfMB0GCSqGSIb3DQEJARYQaW5mb0B3b2xmc3NsLmNvbYIJ
AJO/at6bQZ2tMAwGA1UdEwQFMAMBAf8wCgYIKoZIzj0EAwIDRwAwRAIgYbydTYhk
hrhxqjVZaLjuLPMjtRq5ukFQqMbDWOtYvWACIGGq67VzDQHbaY9S9XJtN0K1/ZS2
brHEJS6WlvM5sl3q
-----END CERTIFICATE-----
