Certificate:
    Data:
        Version: 3 (0x2)
        Serial Number:
            bf:cc:cb:7a:0a:07:42:82
        Signature Algorithm: ecdsa-with-SHA1
        Issuer: C=US, ST=Oregon, L=Salem, O=Client ECC, OU=Fast, CN=www.yassl.com/emailAddress=info@yassl.com
        Validity
            Not Before: May  1 23:51:33 2012 GMT
            Not After : Jan 26 23:51:33 2015 GMT
        Subject: C=US, ST=Oregon, L=Salem, O=Client ECC, OU=Fast, CN=www.yassl.com/emailAddress=info@yassl.com
        Subject Public Key Info:
            Public Key Algorithm: id-ecPublicKey
            EC Public Key:
                pub: 
                    04:55:bf:f4:0f:44:50:9a:3d:ce:9b:b7:f0:c5:4d:
                    f5:70:7b:d4:ec:24:8e:19:80:ec:5a:4c:a2:24:03:
                    62:2c:9b:da:ef:a2:35:12:43:84:76:16:c6:56:95:
                    06:cc:01:a9:bd:f6:75:1a:42:f7:bd:a9:b2:36:22:
                    5f:c7:5d:7f:b4
                ASN1 OID: prime256v1
        X509v3 extensions:
            X509v3 Subject Key Identifier: 
                EB:D4:4B:59:6B:95:61:3F:51:57:B6:04:4D:89:41:88:44:5C:AB:F2
            X509v3 Authority Key Identifier: 
                keyid:EB:D4:4B:59:6B:95:61:3F:51:57:B6:04:4D:89:41:88:44:5C:AB:F2
                DirName:/C=US/ST=Oregon/L=Salem/O=Client ECC/OU=Fast/CN=www.yassl.com/emailAddress=info@yassl.com
                serial:BF:CC:CB:7A:0A:07:42:82

            X509v3 Basic Constraints: 
                CA:TRUE
    Signature Algorithm: ecdsa-with-SHA1
        30:44:02:20:26:08:44:95:35:2e:fa:9d:20:01:a6:79:60:ed:
        35:a7:0a:dd:7a:0e:75:c5:80:d2:0b:9f:6a:90:d6:31:76:75:
        02:20:2d:87:a2:bb:d5:e2:42:61:35:19:59:40:1d:fd:71:4f:
        28:65:96:99:e6:85:1b:09:ad:d4:58:71:56:63:0b:c7
-----BEGIN CERTIFICATE-----
MIIC+jCCAqKgAwIBAgIJAL/My3oKB0KCMAkGByqGSM49BAEwgYkxCzAJBgNVBAYT
AlVTMQ8wDQYDVQQIEwZPcmVnb24xDjAMBgNVBAcTBVNhbGVtMRMwEQYDVQQKEwpD
bGllbnQgRUNDMQ0wCwYDVQQLEwRGYXN0MRYwFAYDVQQDEw13d3cueWFzc2wuY29t
MR0wGwYJKoZIhvcNAQkBFg5pbmZvQHlhc3NsLmNvbTAeFw0xMjA1MDEyMzUxMzNa
Fw0xNTAxMjYyMzUxMzNaMIGJMQswCQYDVQQGEwJVUzEPMA0GA1UECBMGT3JlZ29u
MQ4wDAYDVQQHEwVTYWxlbTETMBEGA1UEChMKQ2xpZW50IEVDQzENMAsGA1UECxME
RmFzdDEWMBQGA1UEAxMNd3d3Lnlhc3NsLmNvbTEdMBsGCSqGSIb3DQEJARYOaW5m
b0B5YXNzbC5jb20wWTATBgcqhkjOPQIBBggqhkjOPQMBBwNCAARVv/QPRFCaPc6b
t/DFTfVwe9TsJI4ZgOxaTKIkA2Ism9rvojUSQ4R2FsZWlQbMAam99nUaQve9qbI2
Il/HXX+0o4HxMIHuMB0GA1UdDgQWBBTr1EtZa5VhP1FXtgRNiUGIRFyr8jCBvgYD
VR0jBIG2MIGzgBTr1EtZa5VhP1FXtgRNiUGIRFyr8qGBj6SBjDCBiTELMAkGA1UE
BhMCVVMxDzANBgNVBAgTBk9yZWdvbjEOMAwGA1UEBxMFU2FsZW0xEzARBgNVBAoT
CkNsaWVudCBFQ0MxDTALBgNVBAsTBEZhc3QxFjAUBgNVBAMTDXd3dy55YXNzbC5j
b20xHTAbBgkqhkiG9w0BCQEWDmluZm9AeWFzc2wuY29tggkAv8zLegoHQoIwDAYD
VR0TBAUwAwEB/zAJBgcqhkjOPQQBA0cAMEQCICYIRJU1LvqdIAGmeWDtNacK3XoO
dcWA0gufapDWMXZ1AiAth6K71eJCYTUZWUAd/XFPKGWWmeaFGwmt1FhxVmMLxw==
-----END CERTIFICATE-----
