Certificate:
    Data:
        Version: 3 (0x2)
        Serial Number: 12305170416376042871 (0xaac4bf4c50bd5577)
    Signature Algorithm: sha256WithRSAEncryption
        Issuer: C=US, ST=Montana, L=Bozeman, O=wolfSSL_2048, OU=Programming-2048, CN=www.wolfssl.com/emailAddress=info@wolfssl.com
        Validity
            Not Before: Apr 13 15:23:09 2018 GMT
            Not After : Jan  7 15:23:09 2021 GMT
        Subject: C=US, ST=Montana, L=Bozeman, O=wolfSSL_2048, OU=Programming-2048, CN=www.wolfssl.com/emailAddress=info@wolfssl.com
        Subject Public Key Info:
            Public Key Algorithm: rsaEncryption
                Public-Key: (2048 bit)
                Modulus:
                    00:c3:03:d1:2b:fe:39:a4:32:45:3b:53:c8:84:2b:
                    2a:7c:74:9a:bd:aa:2a:52:07:47:d6:a6:36:b2:07:
                    32:8e:d0:ba:69:7b:c6:c3:44:9e:d4:81:48:fd:2d:
                    68:a2:8b:67:bb:a1:75:c8:36:2c:4a:d2:1b:f7:8b:
                    ba:cf:0d:f9:ef:ec:f1:81:1e:7b:9b:03:47:9a:bf:
                    65:cc:7f:65:24:69:a6:e8:14:89:5b:e4:34:f7:c5:
                    b0:14:93:f5:67:7b:3a:7a:78:e1:01:56:56:91:a6:
                    13:42:8d:d2:3c:40:9c:4c:ef:d1:86:df:37:51:1b:
                    0c:a1:3b:f5:f1:a3:4a:35:e4:e1:ce:96:df:1b:7e:
                    bf:4e:97:d0:10:e8:a8:08:30:81:af:20:0b:43:14:
                    c5:74:67:b4:32:82:6f:8d:86:c2:88:40:99:36:83:
                    ba:1e:40:72:22:17:d7:52:65:24:73:b0:ce:ef:19:
                    cd:ae:ff:78:6c:7b:c0:12:03:d4:4e:72:0d:50:6d:
                    3b:a3:3b:a3:99:5e:9d:c8:d9:0c:85:b3:d9:8a:d9:
                    54:26:db:6d:fa:ac:bb:ff:25:4c:c4:d1:79:f4:71:
                    d3:86:40:18:13:b0:63:b5:72:4e:30:c4:97:84:86:
                    2d:56:2f:d7:15:f7:7f:c0:ae:f5:fc:5b:e5:fb:a1:
                    ba:d3
                Exponent: 65537 (0x10001)
        X509v3 extensions:
            X509v3 Subject Key Identifier: 
                33:D8:45:66:D7:68:87:18:7E:54:0D:70:27:91:C7:26:D7:85:65:C0
            X509v3 Authority Key Identifier: 
                keyid:33:D8:45:66:D7:68:87:18:7E:54:0D:70:27:91:C7:26:D7:85:65:C0
                DirName:/C=US/ST=Montana/L=Bozeman/O=wolfSSL_2048/OU=Programming-2048/CN=www.wolfssl.com/emailAddress=info@wolfssl.com
                serial:AA:C4:BF:4C:50:BD:55:77

            X509v3 Basic Constraints: 
                CA:TRUE
    Signature Algorithm: sha256WithRSAEncryption
         80:52:54:61:2a:77:80:53:44:a9:80:6d:45:ff:0d:25:7d:1a:
         8f:23:93:53:74:35:12:6f:f0:2e:20:ea:ed:80:63:69:88:e6:
         0c:a1:49:30:e0:82:db:68:0f:7e:84:ac:ff:ff:7b:42:fa:7e:
         2f:b2:52:9f:d2:79:5e:35:12:27:36:bc:df:96:58:44:96:55:
         c8:4a:94:02:5f:4a:9d:dc:d3:3a:f7:6d:ac:8b:79:6e:fc:be:
         8f:23:58:6a:8a:f5:38:0a:42:f6:98:74:88:53:2e:02:af:e1:
         0e:be:6f:cc:74:33:7c:ec:b4:cb:a7:49:6d:82:42:4f:eb:73:
         29:c3:32:00:2b:15:f8:88:7a:8f:6d:20:1b:ae:65:5f:c5:d0:
         8a:d1:e2:64:6d:a3:a8:fe:64:e1:a9:5b:e6:d0:23:d6:02:72:
         5a:ec:03:8e:87:67:19:8d:e4:a8:99:15:c1:3d:91:48:99:8d:
         fe:ae:1c:bf:f6:28:1b:45:be:ad:ef:72:83:9a:f6:c7:3b:51:
         a3:6e:7a:73:bd:83:aa:97:fd:63:b4:f4:6b:1c:14:81:9a:ef:
         14:24:d3:e1:8b:f4:04:04:84:54:0f:61:a2:a8:f2:50:37:0c:
         17:0c:bc:e0:c2:84:85:f4:0b:ae:00:ca:9f:27:e2:44:4f:15:
         0b:8b:1d:b4
-----BEGIN CERTIFICATE-----
MIIEyjCCA7KgAwIBAgIJAKrEv0xQvVV3MA0GCSqGSIb3DQEBCwUAMIGeMQswCQYD
VQQGEwJVUzEQMA4GA1UECAwHTW9udGFuYTEQMA4GA1UEBwwHQm96ZW1hbjEVMBMG
A1UECgwMd29sZlNTTF8yMDQ4MRkwFwYDVQQLDBBQcm9ncmFtbWluZy0yMDQ4MRgw
FgYDVQQDDA93d3cud29sZnNzbC5jb20xHzAdBgkqhkiG9w0BCQEWEGluZm9Ad29s
ZnNzbC5jb20wHhcNMTgwNDEzMTUyMzA5WhcNMjEwMTA3MTUyMzA5WjCBnjELMAkG
A1UEBhMCVVMxEDAOBgNVBAgMB01vbnRhbmExEDAOBgNVBAcMB0JvemVtYW4xFTAT
BgNVBAoMDHdvbGZTU0xfMjA0ODEZMBcGA1UECwwQUHJvZ3JhbW1pbmctMjA0ODEY
MBYGA1UEAwwPd3d3LndvbGZzc2wuY29tMR8wHQYJKoZIhvcNAQkBFhBpbmZvQHdv
bGZzc2wuY29tMIIBIjANBgkqhkiG9w0BAQEFAAOCAQ8AMIIBCgKCAQEAwwPRK/45
pDJFO1PIhCsqfHSavaoqUgdH1qY2sgcyjtC6aXvGw0Se1IFI/S1oootnu6F1yDYs
StIb94u6zw357+zxgR57mwNHmr9lzH9lJGmm6BSJW+Q098WwFJP1Z3s6enjhAVZW
kaYTQo3SPECcTO/Rht83URsMoTv18aNKNeThzpbfG36/TpfQEOioCDCBryALQxTF
dGe0MoJvjYbCiECZNoO6HkByIhfXUmUkc7DO7xnNrv94bHvAEgPUTnINUG07ozuj
mV6dyNkMhbPZitlUJttt+qy7/yVMxNF59HHThkAYE7BjtXJOMMSXhIYtVi/XFfd/
wK71/Fvl+6G60wIDAQABo4IBBzCCAQMwHQYDVR0OBBYEFDPYRWbXaIcYflQNcCeR
xybXhWXAMIHTBgNVHSMEgcswgciAFDPYRWbXaIcYflQNcCeRxybXhWXAoYGkpIGh
MIGeMQswCQYDVQQGEwJVUzEQMA4GA1UECAwHTW9udGFuYTEQMA4GA1UEBwwHQm96
ZW1hbjEVMBMGA1UECgwMd29sZlNTTF8yMDQ4MRkwFwYDVQQLDBBQcm9ncmFtbWlu
Zy0yMDQ4MRgwFgYDVQQDDA93d3cud29sZnNzbC5jb20xHzAdBgkqhkiG9w0BCQEW
EGluZm9Ad29sZnNzbC5jb22CCQCqxL9MUL1VdzAMBgNVHRMEBTADAQH/MA0GCSqG
SIb3DQEBCwUAA4IBAQCAUlRhKneAU0SpgG1F/w0lfRqPI5NTdDUSb/AuIOrtgGNp
iOYMoUkw4ILbaA9+hKz//3tC+n4vslKf0nleNRInNrzfllhEllXISpQCX0qd3NM6
922si3lu/L6PI1hqivU4CkL2mHSIUy4Cr+EOvm/MdDN87LTLp0ltgkJP63MpwzIA
KxX4iHqPbSAbrmVfxdCK0eJkbaOo/mThqVvm0CPWAnJa7AOOh2cZjeSomRXBPZFI
mY3+rhy/9igbRb6t73KDmvbHO1GjbnpzvYOql/1jtPRrHBSBmu8UJNPhi/QEBIRU
D2GiqPJQNwwXDLzgwoSF9AuuAMqfJ+JETxULix20
-----END CERTIFICATE-----
