Certificate:
    Data:
        Version: 3 (0x2)
        Serial Number: 16108595702940209934 (0xdf8d3a71e022930e)
    Signature Algorithm: ecdsa-with-SHA256
        Issuer: C=US, ST=Oregon, L=Salem, O=Client ECC, OU=Fast, CN=www.wolfssl.com/emailAddress=info@wolfssl.com
        Validity
            Not Before: May  7 18:21:01 2015 GMT
            Not After : Jan 31 18:21:01 2018 GMT
        Subject: C=US, ST=Oregon, L=Salem, O=Client ECC, OU=Fast, CN=www.wolfssl.com/emailAddress=info@wolfssl.com
        Subject Public Key Info:
            Public Key Algorithm: id-ecPublicKey
                Public-Key: (256 bit)
                pub: 
                    04:55:bf:f4:0f:44:50:9a:3d:ce:9b:b7:f0:c5:4d:
                    f5:70:7b:d4:ec:24:8e:19:80:ec:5a:4c:a2:24:03:
                    62:2c:9b:da:ef:a2:35:12:43:84:76:16:c6:56:95:
                    06:cc:01:a9:bd:f6:75:1a:42:f7:bd:a9:b2:36:22:
                    5f:c7:5d:7f:b4
                ASN1 OID: prime256v1
        X509v3 extensions:
            X509v3 Subject Key Identifier: 
                EB:D4:4B:59:6B:95:61:3F:51:57:B6:04:4D:89:41:88:44:5C:AB:F2
            X509v3 Authority Key Identifier: 
                keyid:EB:D4:4B:59:6B:95:61:3F:51:57:B6:04:4D:89:41:88:44:5C:AB:F2
                DirName:/C=US/ST=Oregon/L=Salem/O=Client ECC/OU=Fast/CN=www.wolfssl.com/emailAddress=info@wolfssl.com
                serial:DF:8D:3A:71:E0:22:93:0E

            X509v3 Basic Constraints: 
                CA:TRUE
    Signature Algorithm: ecdsa-with-SHA256
         30:44:02:20:74:7b:ae:7e:9c:c8:69:95:8a:0b:ad:7f:c9:37:
         3d:3c:7f:b7:ef:f3:da:9b:ea:d0:a7:76:0a:a4:77:12:f7:a8:
         02:20:71:95:87:89:b7:a8:8b:bb:fa:9f:84:dc:2b:71:dc:4a:
         c5:5a:65:b2:fc:33:c4:ce:36:4f:ab:c6:38:36:6c:88
-----BEGIN CERTIFICATE-----
MIIDCDCCAq+gAwIBAgIJAN+NOnHgIpMOMAoGCCqGSM49BAMCMIGNMQswCQYDVQQG
EwJVUzEPMA0GA1UECAwGT3JlZ29uMQ4wDAYDVQQHDAVTYWxlbTETMBEGA1UECgwK
Q2xpZW50IEVDQzENMAsGA1UECwwERmFzdDEYMBYGA1UEAwwPd3d3LndvbGZzc2wu
Y29tMR8wHQYJKoZIhvcNAQkBFhBpbmZvQHdvbGZzc2wuY29tMB4XDTE1MDUwNzE4
MjEwMVoXDTE4MDEzMTE4MjEwMVowgY0xCzAJBgNVBAYTAlVTMQ8wDQYDVQQIDAZP
cmVnb24xDjAMBgNVBAcMBVNhbGVtMRMwEQYDVQQKDApDbGllbnQgRUNDMQ0wCwYD
VQQLDARGYXN0MRgwFgYDVQQDDA93d3cud29sZnNzbC5jb20xHzAdBgkqhkiG9w0B
CQEWEGluZm9Ad29sZnNzbC5jb20wWTATBgcqhkjOPQIBBggqhkjOPQMBBwNCAARV
v/QPRFCaPc6bt/DFTfVwe9TsJI4ZgOxaTKIkA2Ism9rvojUSQ4R2FsZWlQbMAam9
9nUaQve9qbI2Il/HXX+0o4H1MIHyMB0GA1UdDgQWBBTr1EtZa5VhP1FXtgRNiUGI
RFyr8jCBwgYDVR0jBIG6MIG3gBTr1EtZa5VhP1FXtgRNiUGIRFyr8qGBk6SBkDCB
jTELMAkGA1UEBhMCVVMxDzANBgNVBAgMBk9yZWdvbjEOMAwGA1UEBwwFU2FsZW0x
EzARBgNVBAoMCkNsaWVudCBFQ0MxDTALBgNVBAsMBEZhc3QxGDAWBgNVBAMMD3d3
dy53b2xmc3NsLmNvbTEfMB0GCSqGSIb3DQEJARYQaW5mb0B3b2xmc3NsLmNvbYIJ
AN+NOnHgIpMOMAwGA1UdEwQFMAMBAf8wCgYIKoZIzj0EAwIDRwAwRAIgdHuufpzI
aZWKC61/yTc9PH+37/Pam+rQp3YKpHcS96gCIHGVh4m3qIu7+p+E3Ctx3ErFWmWy
/DPEzjZPq8Y4NmyI
-----END CERTIFICATE-----
