Certificate:
    Data:
        Version: 3 (0x2)
        Serial Number: 1 (0x1)
    Signature Algorithm: sha256WithRSAEncryption
        Issuer: C=US, ST=Montana, L=Bozeman, O=Sawtooth, OU=Consulting, CN=www.wolfssl.com/emailAddress=info@wolfssl.com
        Validity
            Not Before: May  7 18:21:01 2015 GMT
            Not After : Jan 31 18:21:01 2018 GMT
        Subject: C=US, ST=Montana, L=Bozeman, O=wolfSSL, OU=Support, CN=www.wolfssl.com/emailAddress=info@wolfssl.com
        Subject Public Key Info:
            Public Key Algorithm: rsaEncryption
                Public-Key: (2048 bit)
                Modulus:
                    00:c0:95:08:e1:57:41:f2:71:6d:b7:d2:45:41:27:
                    01:65:c6:45:ae:f2:bc:24:30:b8:95:ce:2f:4e:d6:
                    f6:1c:88:bc:7c:9f:fb:a8:67:7f:fe:5c:9c:51:75:
                    f7:8a:ca:07:e7:35:2f:8f:e1:bd:7b:c0:2f:7c:ab:
                    64:a8:17:fc:ca:5d:7b:ba:e0:21:e5:72:2e:6f:2e:
                    86:d8:95:73:da:ac:1b:53:b9:5f:3f:d7:19:0d:25:
                    4f:e1:63:63:51:8b:0b:64:3f:ad:43:b8:a5:1c:5c:
                    34:b3:ae:00:a0:63:c5:f6:7f:0b:59:68:78:73:a6:
                    8c:18:a9:02:6d:af:c3:19:01:2e:b8:10:e3:c6:cc:
                    40:b4:69:a3:46:33:69:87:6e:c4:bb:17:a6:f3:e8:
                    dd:ad:73:bc:7b:2f:21:b5:fd:66:51:0c:bd:54:b3:
                    e1:6d:5f:1c:bc:23:73:d1:09:03:89:14:d2:10:b9:
                    64:c3:2a:d0:a1:96:4a:bc:e1:d4:1a:5b:c7:a0:c0:
                    c1:63:78:0f:44:37:30:32:96:80:32:23:95:a1:77:
                    ba:13:d2:97:73:e2:5d:25:c9:6a:0d:c3:39:60:a4:
                    b4:b0:69:42:42:09:e9:d8:08:bc:33:20:b3:58:22:
                    a7:aa:eb:c4:e1:e6:61:83:c5:d2:96:df:d9:d0:4f:
                    ad:d7
                Exponent: 65537 (0x10001)
        X509v3 extensions:
            X509v3 Subject Key Identifier: 
                B3:11:32:C9:92:98:84:E2:C9:F8:D0:3B:6E:03:42:CA:1F:0E:8E:3C
            X509v3 Authority Key Identifier: 
                keyid:27:8E:67:11:74:C3:26:1D:3F:ED:33:63:B3:A4:D8:1D:30:E5:E8:D5
                DirName:/C=US/ST=Montana/L=Bozeman/O=Sawtooth/OU=Consulting/CN=www.wolfssl.com/emailAddress=info@wolfssl.com
                serial:D9:80:3A:C3:D2:F4:DA:37

            X509v3 Basic Constraints: 
                CA:TRUE
    Signature Algorithm: sha256WithRSAEncryption
         67:c0:2c:a9:43:47:e7:11:14:77:ae:cc:d8:e0:6b:23:82:91:
         63:e8:a8:0d:21:c5:c8:47:97:2f:d5:f3:86:fb:6c:ce:25:f9:
         7c:78:c8:3a:22:68:f2:16:1e:d2:d2:3f:24:04:87:f2:b7:c1:
         62:63:ba:c5:fa:ae:d2:20:81:1a:d2:0c:ae:26:6b:1b:2b:10:
         d3:e1:9a:4e:64:6c:97:db:36:a8:8f:f8:05:63:bf:ba:0d:88:
         0b:87:46:c9:e4:64:e3:d7:bd:b8:2d:d5:c1:c3:c4:db:55:68:
         dc:a3:7a:40:b9:a9:f6:04:4a:22:cf:98:76:1c:e4:a3:ff:79:
         19:96:57:63:07:6f:f6:32:77:16:50:9b:e3:34:18:d4:eb:be:
         fd:b6:6f:e3:c7:f6:85:bf:ac:32:ad:98:57:be:13:92:44:10:
         a5:f3:ae:e2:66:da:44:a9:94:71:3f:d0:2f:20:59:87:e4:5a:
         40:ee:d2:e4:0c:ce:25:94:dc:0f:fe:38:e0:41:52:34:5c:bb:
         c3:db:c1:5f:76:c3:5d:0e:32:69:2b:9d:01:ed:50:1b:4f:77:
         a9:a9:d8:71:30:cb:2e:2c:70:00:ab:78:4b:d7:15:d9:17:f8:
         64:b2:f7:3a:da:e1:0b:8b:0a:e1:4e:b1:03:46:14:ca:94:e3:
         44:77:d7:59
-----BEGIN CERTIFICATE-----
MIIEnjCCA4agAwIBAgIBATANBgkqhkiG9w0BAQsFADCBlDELMAkGA1UEBhMCVVMx
EDAOBgNVBAgMB01vbnRhbmExEDAOBgNVBAcMB0JvemVtYW4xETAPBgNVBAoMCFNh
d3Rvb3RoMRMwEQYDVQQLDApDb25zdWx0aW5nMRgwFgYDVQQDDA93d3cud29sZnNz
bC5jb20xHzAdBgkqhkiG9w0BCQEWEGluZm9Ad29sZnNzbC5jb20wHhcNMTUwNTA3
MTgyMTAxWhcNMTgwMTMxMTgyMTAxWjCBkDELMAkGA1UEBhMCVVMxEDAOBgNVBAgM
B01vbnRhbmExEDAOBgNVBAcMB0JvemVtYW4xEDAOBgNVBAoMB3dvbGZTU0wxEDAO
BgNVBAsMB1N1cHBvcnQxGDAWBgNVBAMMD3d3dy53b2xmc3NsLmNvbTEfMB0GCSqG
SIb3DQEJARYQaW5mb0B3b2xmc3NsLmNvbTCCASIwDQYJKoZIhvcNAQEBBQADggEP
ADCCAQoCggEBAMCVCOFXQfJxbbfSRUEnAWXGRa7yvCQwuJXOL07W9hyIvHyf+6hn
f/5cnFF194rKB+c1L4/hvXvAL3yrZKgX/Mpde7rgIeVyLm8uhtiVc9qsG1O5Xz/X
GQ0lT+FjY1GLC2Q/rUO4pRxcNLOuAKBjxfZ/C1loeHOmjBipAm2vwxkBLrgQ48bM
QLRpo0YzaYduxLsXpvPo3a1zvHsvIbX9ZlEMvVSz4W1fHLwjc9EJA4kU0hC5ZMMq
0KGWSrzh1Bpbx6DAwWN4D0Q3MDKWgDIjlaF3uhPSl3PiXSXJag3DOWCktLBpQkIJ
6dgIvDMgs1gip6rrxOHmYYPF0pbf2dBPrdcCAwEAAaOB/DCB+TAdBgNVHQ4EFgQU
sxEyyZKYhOLJ+NA7bgNCyh8OjjwwgckGA1UdIwSBwTCBvoAUJ45nEXTDJh0/7TNj
s6TYHTDl6NWhgZqkgZcwgZQxCzAJBgNVBAYTAlVTMRAwDgYDVQQIDAdNb250YW5h
MRAwDgYDVQQHDAdCb3plbWFuMREwDwYDVQQKDAhTYXd0b290aDETMBEGA1UECwwK
Q29uc3VsdGluZzEYMBYGA1UEAwwPd3d3LndvbGZzc2wuY29tMR8wHQYJKoZIhvcN
AQkBFhBpbmZvQHdvbGZzc2wuY29tggkA2YA6w9L02jcwDAYDVR0TBAUwAwEB/zAN
BgkqhkiG9w0BAQsFAAOCAQEAZ8AsqUNH5xEUd67M2OBrI4KRY+ioDSHFyEeXL9Xz
hvtsziX5fHjIOiJo8hYe0tI/JASH8rfBYmO6xfqu0iCBGtIMriZrGysQ0+GaTmRs
l9s2qI/4BWO/ug2IC4dGyeRk49e9uC3VwcPE21Vo3KN6QLmp9gRKIs+Ydhzko/95
GZZXYwdv9jJ3FlCb4zQY1Ou+/bZv48f2hb+sMq2YV74TkkQQpfOu4mbaRKmUcT/Q
LyBZh+RaQO7S5AzOJZTcD/444EFSNFy7w9vBX3bDXQ4yaSudAe1QG093qanYcTDL
LixwAKt4S9cV2Rf4ZLL3OtrhC4sK4U6xA0YUypTjRHfXWQ==
-----END CERTIFICATE-----
Certificate:
    Data:
        Version: 3 (0x2)
        Serial Number: 15672591315981621815 (0xd9803ac3d2f4da37)
    Signature Algorithm: sha256WithRSAEncryption
        Issuer: C=US, ST=Montana, L=Bozeman, O=Sawtooth, OU=Consulting, CN=www.wolfssl.com/emailAddress=info@wolfssl.com
        Validity
            Not Before: May  7 18:21:01 2015 GMT
            Not After : Jan 31 18:21:01 2018 GMT
        Subject: C=US, ST=Montana, L=Bozeman, O=Sawtooth, OU=Consulting, CN=www.wolfssl.com/emailAddress=info@wolfssl.com
        Subject Public Key Info:
            Public Key Algorithm: rsaEncryption
                Public-Key: (2048 bit)
                Modulus:
                    00:bf:0c:ca:2d:14:b2:1e:84:42:5b:cd:38:1f:4a:
                    f2:4d:75:10:f1:b6:35:9f:df:ca:7d:03:98:d3:ac:
                    de:03:66:ee:2a:f1:d8:b0:7d:6e:07:54:0b:10:98:
                    21:4d:80:cb:12:20:e7:cc:4f:de:45:7d:c9:72:77:
                    32:ea:ca:90:bb:69:52:10:03:2f:a8:f3:95:c5:f1:
                    8b:62:56:1b:ef:67:6f:a4:10:41:95:ad:0a:9b:e3:
                    a5:c0:b0:d2:70:76:50:30:5b:a8:e8:08:2c:7c:ed:
                    a7:a2:7a:8d:38:29:1c:ac:c7:ed:f2:7c:95:b0:95:
                    82:7d:49:5c:38:cd:77:25:ef:bd:80:75:53:94:3c:
                    3d:ca:63:5b:9f:15:b5:d3:1d:13:2f:19:d1:3c:db:
                    76:3a:cc:b8:7d:c9:e5:c2:d7:da:40:6f:d8:21:dc:
                    73:1b:42:2d:53:9c:fe:1a:fc:7d:ab:7a:36:3f:98:
                    de:84:7c:05:67:ce:6a:14:38:87:a9:f1:8c:b5:68:
                    cb:68:7f:71:20:2b:f5:a0:63:f5:56:2f:a3:26:d2:
                    b7:6f:b1:5a:17:d7:38:99:08:fe:93:58:6f:fe:c3:
                    13:49:08:16:0b:a7:4d:67:00:52:31:67:23:4e:98:
                    ed:51:45:1d:b9:04:d9:0b:ec:d8:28:b3:4b:bd:ed:
                    36:79
                Exponent: 65537 (0x10001)
        X509v3 extensions:
            X509v3 Subject Key Identifier: 
                27:8E:67:11:74:C3:26:1D:3F:ED:33:63:B3:A4:D8:1D:30:E5:E8:D5
            X509v3 Authority Key Identifier: 
                keyid:27:8E:67:11:74:C3:26:1D:3F:ED:33:63:B3:A4:D8:1D:30:E5:E8:D5
                DirName:/C=US/ST=Montana/L=Bozeman/O=Sawtooth/OU=Consulting/CN=www.wolfssl.com/emailAddress=info@wolfssl.com
                serial:D9:80:3A:C3:D2:F4:DA:37

            X509v3 Basic Constraints: 
                CA:TRUE
    Signature Algorithm: sha256WithRSAEncryption
         7a:af:44:3b:aa:6f:53:42:b2:33:aa:43:5f:56:30:d3:b9:96:
         0b:9a:55:5a:39:2a:0b:4e:e4:2e:f1:95:66:c9:86:36:82:8d:
         63:7c:4d:a2:ee:48:ba:03:c7:90:d7:a7:c6:74:60:48:5f:31:
         a2:f9:5e:3e:c3:82:e1:e5:2f:41:81:83:29:25:79:d1:53:00:
         69:3c:ed:0a:30:3b:41:1d:92:a1:2c:a8:9d:2c:e3:23:87:79:
         e0:55:6e:91:a8:50:da:46:2f:c2:20:50:3e:2b:47:97:14:b0:
         7d:04:ba:45:51:d0:6e:e1:5a:a2:4b:84:9c:4d:cd:85:04:f9:
         28:31:82:93:bc:c7:59:49:91:03:e8:df:6a:e4:56:ad:6a:cb:
         1f:0d:37:e4:5e:bd:e7:9f:d5:ec:9d:3c:18:25:9b:f1:2f:50:
         7d:eb:31:cb:f1:63:22:9d:57:fc:f3:84:20:1a:c6:07:87:92:
         26:9e:15:18:59:33:06:dc:fb:b0:b6:76:5d:f1:c1:2f:c8:2f:
         62:9c:c0:d6:de:eb:65:77:f3:5c:a6:c3:88:27:96:75:b4:f4:
         54:cd:ff:2d:21:2e:96:f0:07:73:4b:e9:93:92:90:de:62:d9:
         a3:3b:ac:6e:24:5f:27:4a:b3:94:70:ff:30:17:e7:7e:32:8f:
         65:b7:75:58
-----BEGIN CERTIFICATE-----
MIIEqjCCA5KgAwIBAgIJANmAOsPS9No3MA0GCSqGSIb3DQEBCwUAMIGUMQswCQYD
VQQGEwJVUzEQMA4GA1UECAwHTW9udGFuYTEQMA4GA1UEBwwHQm96ZW1hbjERMA8G
A1UECgwIU2F3dG9vdGgxEzARBgNVBAsMCkNvbnN1bHRpbmcxGDAWBgNVBAMMD3d3
dy53b2xmc3NsLmNvbTEfMB0GCSqGSIb3DQEJARYQaW5mb0B3b2xmc3NsLmNvbTAe
Fw0xNTA1MDcxODIxMDFaFw0xODAxMzExODIxMDFaMIGUMQswCQYDVQQGEwJVUzEQ
MA4GA1UECAwHTW9udGFuYTEQMA4GA1UEBwwHQm96ZW1hbjERMA8GA1UECgwIU2F3
dG9vdGgxEzARBgNVBAsMCkNvbnN1bHRpbmcxGDAWBgNVBAMMD3d3dy53b2xmc3Ns
LmNvbTEfMB0GCSqGSIb3DQEJARYQaW5mb0B3b2xmc3NsLmNvbTCCASIwDQYJKoZI
hvcNAQEBBQADggEPADCCAQoCggEBAL8Myi0Ush6EQlvNOB9K8k11EPG2NZ/fyn0D
mNOs3gNm7irx2LB9bgdUCxCYIU2AyxIg58xP3kV9yXJ3MurKkLtpUhADL6jzlcXx
i2JWG+9nb6QQQZWtCpvjpcCw0nB2UDBbqOgILHztp6J6jTgpHKzH7fJ8lbCVgn1J
XDjNdyXvvYB1U5Q8PcpjW58VtdMdEy8Z0TzbdjrMuH3J5cLX2kBv2CHccxtCLVOc
/hr8fat6Nj+Y3oR8BWfOahQ4h6nxjLVoy2h/cSAr9aBj9VYvoybSt2+xWhfXOJkI
/pNYb/7DE0kIFgunTWcAUjFnI06Y7VFFHbkE2Qvs2CizS73tNnkCAwEAAaOB/DCB
+TAdBgNVHQ4EFgQUJ45nEXTDJh0/7TNjs6TYHTDl6NUwgckGA1UdIwSBwTCBvoAU
J45nEXTDJh0/7TNjs6TYHTDl6NWhgZqkgZcwgZQxCzAJBgNVBAYTAlVTMRAwDgYD
VQQIDAdNb250YW5hMRAwDgYDVQQHDAdCb3plbWFuMREwDwYDVQQKDAhTYXd0b290
aDETMBEGA1UECwwKQ29uc3VsdGluZzEYMBYGA1UEAwwPd3d3LndvbGZzc2wuY29t
MR8wHQYJKoZIhvcNAQkBFhBpbmZvQHdvbGZzc2wuY29tggkA2YA6w9L02jcwDAYD
VR0TBAUwAwEB/zANBgkqhkiG9w0BAQsFAAOCAQEAeq9EO6pvU0KyM6pDX1Yw07mW
C5pVWjkqC07kLvGVZsmGNoKNY3xNou5IugPHkNenxnRgSF8xovlePsOC4eUvQYGD
KSV50VMAaTztCjA7QR2SoSyonSzjI4d54FVukahQ2kYvwiBQPitHlxSwfQS6RVHQ
buFaokuEnE3NhQT5KDGCk7zHWUmRA+jfauRWrWrLHw035F6955/V7J08GCWb8S9Q
fesxy/FjIp1X/POEIBrGB4eSJp4VGFkzBtz7sLZ2XfHBL8gvYpzA1t7rZXfzXKbD
iCeWdbT0VM3/LSEulvAHc0vpk5KQ3mLZozusbiRfJ0qzlHD/MBfnfjKPZbd1WA==
-----END CERTIFICATE-----
