Certificate:
    Data:
        Version: 3 (0x2)
        Serial Number: 13895948352942430886 (0xc0d85367324edaa6)
    Signature Algorithm: ecdsa-with-SHA256
        Issuer: C=US, ST=Washington, L=Seattle, O=Eliptic, OU=ECC, CN=www.wolfssl.com/emailAddress=info@wolfssl.com
        Validity
            Not Before: Jul 18 17:12:20 2019 GMT
            Not After : Apr 13 17:12:20 2022 GMT
        Subject: C=US, ST=Washington, L=Seattle, O=Eliptic, OU=ECC, CN=www.wolfssl.com/emailAddress=info@wolfssl.com
        Subject Public Key Info:
            Public Key Algorithm: id-ecPublicKey
                Public-Key: (256 bit)
                pub: 
                    04:bb:33:ac:4c:27:50:4a:c6:4a:a5:04:c3:3c:de:
                    9f:36:db:72:2d:ce:94:ea:2b:fa:cb:20:09:39:2c:
                    16:e8:61:02:e9:af:4d:d3:02:93:9a:31:5b:97:92:
                    21:7f:f0:cf:18:da:91:11:02:34:86:e8:20:58:33:
                    0b:80:34:89:d8
                ASN1 OID: prime256v1
                NIST CURVE: P-256
        X509v3 extensions:
            X509v3 Subject Key Identifier: 
                5D:5D:26:EF:AC:7E:36:F9:9B:76:15:2B:4A:25:02:23:EF:B2:89:30
            X509v3 Authority Key Identifier: 
                keyid:5D:5D:26:EF:AC:7E:36:F9:9B:76:15:2B:4A:25:02:23:EF:B2:89:30
                DirName:/C=US/ST=Washington/L=Seattle/O=Eliptic/OU=ECC/CN=www.wolfssl.com/emailAddress=info@wolfssl.com
                serial:C0:D8:53:67:32:4E:DA:A6

            X509v3 Basic Constraints: 
                CA:TRUE
    Signature Algorithm: ecdsa-with-SHA256
         30:45:02:20:01:0e:83:d8:81:53:76:e4:ce:4b:51:69:a4:bc:
         50:2e:46:02:e1:27:d6:04:e4:76:36:e9:fe:4a:ed:87:d1:72:
         02:21:00:97:87:68:62:34:53:45:41:7a:e1:a9:f1:80:c4:51:
         27:e0:e4:6a:0e:54:c4:22:39:ec:85:c0:54:b5:57:62:8c
-----BEGIN CERTIFICATE-----
MIIDDzCCArWgAwIBAgIJAMDYU2cyTtqmMAoGCCqGSM49BAMCMIGPMQswCQYDVQQG
EwJVUzETMBEGA1UECAwKV2FzaGluZ3RvbjEQMA4GA1UEBwwHU2VhdHRsZTEQMA4G
A1UECgwHRWxpcHRpYzEMMAoGA1UECwwDRUNDMRgwFgYDVQQDDA93d3cud29sZnNz
bC5jb20xHzAdBgkqhkiG9w0BCQEWEGluZm9Ad29sZnNzbC5jb20wHhcNMTkwNzE4
MTcxMjIwWhcNMjIwNDEzMTcxMjIwWjCBjzELMAkGA1UEBhMCVVMxEzARBgNVBAgM
Cldhc2hpbmd0b24xEDAOBgNVBAcMB1NlYXR0bGUxEDAOBgNVBAoMB0VsaXB0aWMx
DDAKBgNVBAsMA0VDQzEYMBYGA1UEAwwPd3d3LndvbGZzc2wuY29tMR8wHQYJKoZI
hvcNAQkBFhBpbmZvQHdvbGZzc2wuY29tMFkwEwYHKoZIzj0CAQYIKoZIzj0DAQcD
QgAEuzOsTCdQSsZKpQTDPN6fNttyLc6U6iv6yyAJOSwW6GEC6a9N0wKTmjFbl5Ih
f/DPGNqREQI0huggWDMLgDSJ2KOB9zCB9DAdBgNVHQ4EFgQUXV0m76x+NvmbdhUr
SiUCI++yiTAwgcQGA1UdIwSBvDCBuYAUXV0m76x+NvmbdhUrSiUCI++yiTChgZWk
gZIwgY8xCzAJBgNVBAYTAlVTMRMwEQYDVQQIDApXYXNoaW5ndG9uMRAwDgYDVQQH
DAdTZWF0dGxlMRAwDgYDVQQKDAdFbGlwdGljMQwwCgYDVQQLDANFQ0MxGDAWBgNV
BAMMD3d3dy53b2xmc3NsLmNvbTEfMB0GCSqGSIb3DQEJARYQaW5mb0B3b2xmc3Ns
LmNvbYIJAMDYU2cyTtqmMAwGA1UdEwQFMAMBAf8wCgYIKoZIzj0EAwIDSAAwRQIg
AQ6D2IFTduTOS1FppLxQLkYC4SfWBOR2Nun+Su2H0XICIQCXh2hiNFNFQXrhqfGA
xFEn4ORqDlTEIjnshcBUtVdijA==
-----END CERTIFICATE-----
