Certificate:
    Data:
        Version: 3 (0x2)
        Serial Number: 9257370821982864771 (0x8078c9b7065ac583)
    Signature Algorithm: ecdsa-with-SHA256
        Issuer: C=US, ST=Montana, L=Bozeman, O=Elliptic - comp, OU=Server ECC-comp, CN=www.wolfssl.com/emailAddress=info@wolfssl.com
        Validity
            Not Before: Apr 13 15:23:10 2018 GMT
            Not After : Jan  7 15:23:10 2021 GMT
        Subject: C=US, ST=Montana, L=Bozeman, O=Elliptic - comp, OU=Server ECC-comp, CN=www.wolfssl.com/emailAddress=info@wolfssl.com
        Subject Public Key Info:
            Public Key Algorithm: id-ecPublicKey
                Public-Key: (256 bit)
                pub: 
                    02:bb:33:ac:4c:27:50:4a:c6:4a:a5:04:c3:3c:de:
                    9f:36:db:72:2d:ce:94:ea:2b:fa:cb:20:09:39:2c:
                    16:e8:61
                ASN1 OID: prime256v1
                NIST CURVE: P-256
        X509v3 extensions:
            X509v3 Subject Key Identifier: 
                8C:38:3A:6B:B8:24:B7:DF:6E:F4:59:AC:56:4E:AA:E2:58:A6:5A:18
            X509v3 Authority Key Identifier: 
                keyid:8C:38:3A:6B:B8:24:B7:DF:6E:F4:59:AC:56:4E:AA:E2:58:A6:5A:18
                DirName:/C=US/ST=Montana/L=Bozeman/O=Elliptic - comp/OU=Server ECC-comp/CN=www.wolfssl.com/emailAddress=info@wolfssl.com
                serial:80:78:C9:B7:06:5A:C5:83

            X509v3 Basic Constraints: 
                CA:TRUE
    Signature Algorithm: ecdsa-with-SHA256
         30:44:02:20:31:44:d0:4e:d7:c4:b4:96:a3:e6:25:fd:fa:d6:
         28:a8:67:51:72:90:95:31:f9:cd:10:bf:11:e4:ec:b7:42:5b:
         02:20:45:db:45:0a:24:58:8e:2e:e6:ea:0c:6c:bc:72:4f:0a:
         1b:f3:2d:97:e9:c2:19:f9:97:3a:60:dd:08:d3:52:3e
-----BEGIN CERTIFICATE-----
MIIDIzCCAsqgAwIBAgIJAIB4ybcGWsWDMAoGCCqGSM49BAMCMIGgMQswCQYDVQQG
EwJVUzEQMA4GA1UECAwHTW9udGFuYTEQMA4GA1UEBwwHQm96ZW1hbjEYMBYGA1UE
CgwPRWxsaXB0aWMgLSBjb21wMRgwFgYDVQQLDA9TZXJ2ZXIgRUNDLWNvbXAxGDAW
BgNVBAMMD3d3dy53b2xmc3NsLmNvbTEfMB0GCSqGSIb3DQEJARYQaW5mb0B3b2xm
c3NsLmNvbTAeFw0xODA0MTMxNTIzMTBaFw0yMTAxMDcxNTIzMTBaMIGgMQswCQYD
VQQGEwJVUzEQMA4GA1UECAwHTW9udGFuYTEQMA4GA1UEBwwHQm96ZW1hbjEYMBYG
A1UECgwPRWxsaXB0aWMgLSBjb21wMRgwFgYDVQQLDA9TZXJ2ZXIgRUNDLWNvbXAx
GDAWBgNVBAMMD3d3dy53b2xmc3NsLmNvbTEfMB0GCSqGSIb3DQEJARYQaW5mb0B3
b2xmc3NsLmNvbTA5MBMGByqGSM49AgEGCCqGSM49AwEHAyIAArszrEwnUErGSqUE
wzzenzbbci3OlOor+ssgCTksFuhho4IBCTCCAQUwHQYDVR0OBBYEFIw4Omu4JLff
bvRZrFZOquJYploYMIHVBgNVHSMEgc0wgcqAFIw4Omu4JLffbvRZrFZOquJYploY
oYGmpIGjMIGgMQswCQYDVQQGEwJVUzEQMA4GA1UECAwHTW9udGFuYTEQMA4GA1UE
BwwHQm96ZW1hbjEYMBYGA1UECgwPRWxsaXB0aWMgLSBjb21wMRgwFgYDVQQLDA9T
ZXJ2ZXIgRUNDLWNvbXAxGDAWBgNVBAMMD3d3dy53b2xmc3NsLmNvbTEfMB0GCSqG
SIb3DQEJARYQaW5mb0B3b2xmc3NsLmNvbYIJAIB4ybcGWsWDMAwGA1UdEwQFMAMB
Af8wCgYIKoZIzj0EAwIDRwAwRAIgMUTQTtfEtJaj5iX9+tYoqGdRcpCVMfnNEL8R
5Oy3QlsCIEXbRQokWI4u5uoMbLxyTwob8y2X6cIZ+Zc6YN0I01I+
-----END CERTIFICATE-----
