Certificate:
    Data:
        Version: 3 (0x2)
        Serial Number: 1 (0x1)
    Signature Algorithm: sha1WithRSAEncryption
        Issuer: C=US, ST=Montana, L=Bozeman, O=Sawtooth, OU=Consulting, CN=www.wolfssl.com/emailAddress=info@wolfssl.com
        Validity
            Not Before: Jul 11 17:25:56 2014 GMT
            Not After : Apr  6 17:25:56 2017 GMT
        Subject: C=US, ST=Montana, L=Bozeman, O=wolfSSL, OU=Support, CN=www.wolfssl.com/emailAddress=info@wolfssl.com
        Subject Public Key Info:
            Public Key Algorithm: id-ecPublicKey
                Public-Key: (256 bit)
                pub: 
                    04:bb:33:ac:4c:27:50:4a:c6:4a:a5:04:c3:3c:de:
                    9f:36:db:72:2d:ce:94:ea:2b:fa:cb:20:09:39:2c:
                    16:e8:61:02:e9:af:4d:d3:02:93:9a:31:5b:97:92:
                    21:7f:f0:cf:18:da:91:11:02:34:86:e8:20:58:33:
                    0b:80:34:89:d8
                ASN1 OID: prime256v1
        X509v3 extensions:
            X509v3 Subject Key Identifier: 
                5D:5D:26:EF:AC:7E:36:F9:9B:76:15:2B:4A:25:02:23:EF:B2:89:30
            X509v3 Authority Key Identifier: 
                keyid:27:8E:67:11:74:C3:26:1D:3F:ED:33:63:B3:A4:D8:1D:30:E5:E8:D5
                DirName:/C=US/ST=Montana/L=Bozeman/O=Sawtooth/OU=Consulting/CN=www.wolfssl.com/emailAddress=info@wolfssl.com
                serial:9A:41:47:CD:A1:14:62:8C

            X509v3 Basic Constraints: 
                CA:TRUE
    Signature Algorithm: sha1WithRSAEncryption
         61:a8:c1:b3:39:c8:f6:77:e7:cc:58:ed:15:25:44:81:47:ac:
         09:58:37:ab:5f:1d:2d:a7:78:70:96:c4:7f:98:cf:56:80:a3:
         0f:ce:e1:80:fa:80:f6:96:04:97:50:4e:08:04:30:97:64:e7:
         0d:c2:16:a3:ab:a8:d4:11:f2:70:10:65:6c:b6:65:4d:bc:9a:
         40:20:a3:6c:e7:93:6d:fa:ab:a5:e0:82:9a:30:e6:0c:82:6c:
         1c:7f:76:cc:78:a1:9c:3d:56:67:37:58:6c:e2:ab:8a:ae:c9:
         b2:83:d5:a5:79:74:e5:c9:bb:f3:39:5a:45:ca:ad:54:65:06:
         1b:bf:c5:d4:16:33:f2:10:6b:2a:07:fe:a7:ef:47:c6:df:02:
         4d:28:35:a5:ed:1b:86:d8:82:3b:4a:cb:76:fe:98:62:d4:bd:
         98:28:aa:86:b5:02:3b:24:4e:ad:bb:63:f7:e3:dc:e5:12:41:
         ca:ee:93:b3:33:1e:a1:26:82:ce:ff:66:8d:c5:51:5f:b0:1f:
         0f:03:df:e2:c5:66:82:9a:42:ab:36:ef:3e:cf:44:d9:39:e3:
         59:63:f2:9c:24:13:6f:9a:cb:3c:78:be:4b:c6:be:c8:e7:11:
         31:8b:de:5f:c5:de:50:d0:87:c5:5b:6e:1e:d6:cf:68:39:b1:
         e1:f2:a3:d6
-----BEGIN CERTIFICATE-----
MIID0zCCArugAwIBAgIBATANBgkqhkiG9w0BAQUFADCBlDELMAkGA1UEBhMCVVMx
EDAOBgNVBAgMB01vbnRhbmExEDAOBgNVBAcMB0JvemVtYW4xETAPBgNVBAoMCFNh
d3Rvb3RoMRMwEQYDVQQLDApDb25zdWx0aW5nMRgwFgYDVQQDDA93d3cud29sZnNz
bC5jb20xHzAdBgkqhkiG9w0BCQEWEGluZm9Ad29sZnNzbC5jb20wHhcNMTQwNzEx
MTcyNTU2WhcNMTcwNDA2MTcyNTU2WjCBkDELMAkGA1UEBhMCVVMxEDAOBgNVBAgM
B01vbnRhbmExEDAOBgNVBAcMB0JvemVtYW4xEDAOBgNVBAoMB3dvbGZTU0wxEDAO
BgNVBAsMB1N1cHBvcnQxGDAWBgNVBAMMD3d3dy53b2xmc3NsLmNvbTEfMB0GCSqG
SIb3DQEJARYQaW5mb0B3b2xmc3NsLmNvbTBZMBMGByqGSM49AgEGCCqGSM49AwEH
A0IABLszrEwnUErGSqUEwzzenzbbci3OlOor+ssgCTksFuhhAumvTdMCk5oxW5eS
IX/wzxjakRECNIboIFgzC4A0idijgfwwgfkwHQYDVR0OBBYEFF1dJu+sfjb5m3YV
K0olAiPvsokwMIHJBgNVHSMEgcEwgb6AFCeOZxF0wyYdP+0zY7Ok2B0w5ejVoYGa
pIGXMIGUMQswCQYDVQQGEwJVUzEQMA4GA1UECAwHTW9udGFuYTEQMA4GA1UEBwwH
Qm96ZW1hbjERMA8GA1UECgwIU2F3dG9vdGgxEzARBgNVBAsMCkNvbnN1bHRpbmcx
GDAWBgNVBAMMD3d3dy53b2xmc3NsLmNvbTEfMB0GCSqGSIb3DQEJARYQaW5mb0B3
b2xmc3NsLmNvbYIJAJpBR82hFGKMMAwGA1UdEwQFMAMBAf8wDQYJKoZIhvcNAQEF
BQADggEBAGGowbM5yPZ358xY7RUlRIFHrAlYN6tfHS2neHCWxH+Yz1aAow/O4YD6
gPaWBJdQTggEMJdk5w3CFqOrqNQR8nAQZWy2ZU28mkAgo2znk236q6Xggpow5gyC
bBx/dsx4oZw9Vmc3WGziq4quybKD1aV5dOXJu/M5WkXKrVRlBhu/xdQWM/IQayoH
/qfvR8bfAk0oNaXtG4bYgjtKy3b+mGLUvZgoqoa1AjskTq27Y/fj3OUSQcruk7Mz
HqEmgs7/Zo3FUV+wHw8D3+LFZoKaQqs27z7PRNk541lj8pwkE2+ayzx4vkvGvsjn
ETGL3l/F3lDQh8Vbbh7Wz2g5seHyo9Y=
-----END CERTIFICATE-----
