Certificate:
    Data:
        Version: 3 (0x2)
        Serial Number:
            f9:ec:48:2d:d0:a4:49:6c
        Signature Algorithm: ecdsa-with-SHA1
        Issuer: C=US, ST=Washington, L=Seattle, O=Eliptic, OU=ECC, CN=www.yassl.com/emailAddress=info@yassl.com
        Validity
            Not Before: Oct 22 04:02:45 2013 GMT
            Not After : Jul 18 04:02:45 2016 GMT
        Subject: C=US, ST=Washington, L=Seattle, O=Eliptic, OU=ECC, CN=www.yassl.com/emailAddress=info@yassl.com
        Subject Public Key Info:
            Public Key Algorithm: id-ecPublicKey
            EC Public Key:
                pub: 
                    04:bb:33:ac:4c:27:50:4a:c6:4a:a5:04:c3:3c:de:
                    9f:36:db:72:2d:ce:94:ea:2b:fa:cb:20:09:39:2c:
                    16:e8:61:02:e9:af:4d:d3:02:93:9a:31:5b:97:92:
                    21:7f:f0:cf:18:da:91:11:02:34:86:e8:20:58:33:
                    0b:80:34:89:d8
                ASN1 OID: prime256v1
        X509v3 extensions:
            X509v3 Subject Key Identifier: 
                5D:5D:26:EF:AC:7E:36:F9:9B:76:15:2B:4A:25:02:23:EF:B2:89:30
            X509v3 Authority Key Identifier: 
                keyid:5D:5D:26:EF:AC:7E:36:F9:9B:76:15:2B:4A:25:02:23:EF:B2:89:30
                DirName:/C=US/ST=Washington/L=Seattle/O=Eliptic/OU=ECC/CN=www.yassl.com/emailAddress=info@yassl.com
                serial:F9:EC:48:2D:D0:A4:49:6C

            X509v3 Basic Constraints: 
                CA:TRUE
    Signature Algorithm: ecdsa-with-SHA1
        30:44:02:20:36:14:3b:c8:19:43:87:b9:3d:aa:32:6f:18:9a:
        4e:07:0c:47:6c:e1:dc:87:fd:ad:f4:2c:71:ec:04:ba:c9:58:
        02:20:65:4e:67:ee:68:26:ed:1c:03:11:0e:31:91:69:f6:16:
        27:06:f7:33:68:18:0b:5d:63:5f:8b:e8:bc:d6:00:57
-----BEGIN CERTIFICATE-----
MIIDADCCAqigAwIBAgIJAPnsSC3QpElsMAkGByqGSM49BAEwgYsxCzAJBgNVBAYT
AlVTMRMwEQYDVQQIEwpXYXNoaW5ndG9uMRAwDgYDVQQHEwdTZWF0dGxlMRAwDgYD
VQQKEwdFbGlwdGljMQwwCgYDVQQLEwNFQ0MxFjAUBgNVBAMTDXd3dy55YXNzbC5j
b20xHTAbBgkqhkiG9w0BCQEWDmluZm9AeWFzc2wuY29tMB4XDTEzMTAyMjA0MDI0
NVoXDTE2MDcxODA0MDI0NVowgYsxCzAJBgNVBAYTAlVTMRMwEQYDVQQIEwpXYXNo
aW5ndG9uMRAwDgYDVQQHEwdTZWF0dGxlMRAwDgYDVQQKEwdFbGlwdGljMQwwCgYD
VQQLEwNFQ0MxFjAUBgNVBAMTDXd3dy55YXNzbC5jb20xHTAbBgkqhkiG9w0BCQEW
DmluZm9AeWFzc2wuY29tMFkwEwYHKoZIzj0CAQYIKoZIzj0DAQcDQgAEuzOsTCdQ
SsZKpQTDPN6fNttyLc6U6iv6yyAJOSwW6GEC6a9N0wKTmjFbl5Ihf/DPGNqREQI0
huggWDMLgDSJ2KOB8zCB8DAdBgNVHQ4EFgQUXV0m76x+NvmbdhUrSiUCI++yiTAw
gcAGA1UdIwSBuDCBtYAUXV0m76x+NvmbdhUrSiUCI++yiTChgZGkgY4wgYsxCzAJ
BgNVBAYTAlVTMRMwEQYDVQQIEwpXYXNoaW5ndG9uMRAwDgYDVQQHEwdTZWF0dGxl
MRAwDgYDVQQKEwdFbGlwdGljMQwwCgYDVQQLEwNFQ0MxFjAUBgNVBAMTDXd3dy55
YXNzbC5jb20xHTAbBgkqhkiG9w0BCQEWDmluZm9AeWFzc2wuY29tggkA+exILdCk
SWwwDAYDVR0TBAUwAwEB/zAJBgcqhkjOPQQBA0cAMEQCIDYUO8gZQ4e5Paoybxia
TgcMR2zh3If9rfQscewEuslYAiBlTmfuaCbtHAMRDjGRafYWJwb3M2gYC11jX4vo
vNYAVw==
-----END CERTIFICATE-----
