Certificate:
    Data:
        Version: 3 (0x2)
        Serial Number: 2 (0x2)
    Signature Algorithm: sha256WithRSAEncryption
        Issuer: C=US, ST=Montana, L=Bozeman, O=Sawtooth, OU=Consulting, CN=www.wolfssl.com/emailAddress=info@wolfssl.com
        Validity
            Not Before: Apr 13 15:23:10 2018 GMT
            Not After : Jan  7 15:23:10 2021 GMT
        Subject: C=US, ST=Montana, L=Bozeman, O=wolfSSL_revoked, OU=Support_revoked, CN=www.wolfssl.com/emailAddress=info@wolfssl.com
        Subject Public Key Info:
            Public Key Algorithm: rsaEncryption
                Public-Key: (2048 bit)
                Modulus:
                    00:b0:14:16:3a:43:dd:e1:50:45:4f:cf:80:b3:dd:
                    66:96:c7:e9:f4:dc:de:b6:6b:24:1b:76:48:ac:c6:
                    23:a5:a7:e4:05:19:bd:b7:f6:de:fa:ff:ed:5b:3c:
                    79:8a:a9:d5:f1:fb:eb:c8:b1:e4:b2:ab:52:72:89:
                    93:22:5c:ba:cd:8a:36:2a:2c:d1:40:ec:a8:66:0e:
                    c3:76:cd:e7:b3:a3:0a:1e:dd:4a:07:82:17:81:ba:
                    de:57:ce:b6:32:81:c7:bd:11:bb:e9:15:22:4e:e2:
                    16:ac:e3:d4:c0:68:88:6c:11:fc:c2:bd:1b:db:1d:
                    fd:e6:43:c7:1b:33:b8:f4:e5:1b:59:39:12:38:4d:
                    2d:9b:64:68:98:fc:8d:72:12:91:f2:24:25:6c:4c:
                    4a:48:57:92:00:cc:7e:d8:d4:3d:b8:1d:f2:9e:ea:
                    b2:23:0f:51:0f:11:41:1c:f5:27:00:1b:08:7a:12:
                    3a:05:5b:03:24:fe:b1:7b:20:fa:e4:a8:58:c6:ca:
                    ce:7f:be:95:01:12:9d:05:e6:39:13:1b:c0:3e:56:
                    2e:2b:9f:76:37:de:de:9b:e0:0d:7a:63:0d:a7:22:
                    58:db:31:c7:f7:b4:46:5c:ba:b6:4b:48:b1:18:9a:
                    68:b3:63:47:fd:af:12:5f:2f:fe:10:cb:58:2b:33:
                    68:85
                Exponent: 65537 (0x10001)
        X509v3 extensions:
            X509v3 Subject Key Identifier: 
                D8:09:2B:59:E1:2A:EE:D9:EE:40:AA:9C:AB:F0:5D:28:09:4F:22:BB
            X509v3 Authority Key Identifier: 
                keyid:27:8E:67:11:74:C3:26:1D:3F:ED:33:63:B3:A4:D8:1D:30:E5:E8:D5
                DirName:/C=US/ST=Montana/L=Bozeman/O=Sawtooth/OU=Consulting/CN=www.wolfssl.com/emailAddress=info@wolfssl.com
                serial:86:FF:F5:8E:10:DE:B8:FB

            X509v3 Basic Constraints: 
                CA:TRUE
    Signature Algorithm: sha256WithRSAEncryption
         41:29:ba:25:3f:17:70:85:1e:5c:e2:2c:8c:8d:16:1b:d5:1f:
         d6:05:e8:e8:8b:43:a0:5b:62:e8:19:7d:d1:1c:60:26:2f:3a:
         6f:7a:3f:ec:ad:96:c6:9a:cc:53:3f:12:d9:12:14:ee:2a:f0:
         a5:2c:31:c7:ae:5c:12:9a:80:3f:ef:de:f3:be:bc:9d:0e:d6:
         c6:8b:e2:8c:58:4e:15:78:4f:16:2e:20:ef:f8:c9:57:6e:a3:
         d2:d0:03:32:47:72:84:59:af:5a:46:dd:65:54:d4:9b:7c:42:
         5d:9d:86:eb:21:e8:fc:0f:f7:37:ae:95:43:75:6d:f2:12:f3:
         a5:e5:10:25:7c:63:ee:03:ce:8f:48:c8:ab:a5:74:2d:1c:dd:
         d4:28:9a:eb:c6:94:fa:ed:57:31:aa:7e:d9:44:40:69:9f:44:
         f6:b3:9f:0e:d3:d8:58:66:d4:fc:c0:83:67:a7:85:ae:03:f7:
         83:b4:45:3b:0f:a9:3d:4f:f8:07:31:b0:8a:50:6d:80:f4:36:
         be:86:df:ae:da:7c:f5:bc:e2:fc:d3:ed:da:18:7a:f4:f0:ac:
         84:1f:6a:73:00:41:42:71:d4:19:3f:d7:d3:29:9e:b1:94:fd:
         49:d8:a5:e6:1d:a9:40:b5:1d:c4:28:42:a9:24:b7:54:c2:94:
         5d:16:05:c0
-----BEGIN CERTIFICATE-----
MIIErjCCA5agAwIBAgIBAjANBgkqhkiG9w0BAQsFADCBlDELMAkGA1UEBhMCVVMx
EDAOBgNVBAgMB01vbnRhbmExEDAOBgNVBAcMB0JvemVtYW4xETAPBgNVBAoMCFNh
d3Rvb3RoMRMwEQYDVQQLDApDb25zdWx0aW5nMRgwFgYDVQQDDA93d3cud29sZnNz
bC5jb20xHzAdBgkqhkiG9w0BCQEWEGluZm9Ad29sZnNzbC5jb20wHhcNMTgwNDEz
MTUyMzEwWhcNMjEwMTA3MTUyMzEwWjCBoDELMAkGA1UEBhMCVVMxEDAOBgNVBAgM
B01vbnRhbmExEDAOBgNVBAcMB0JvemVtYW4xGDAWBgNVBAoMD3dvbGZTU0xfcmV2
b2tlZDEYMBYGA1UECwwPU3VwcG9ydF9yZXZva2VkMRgwFgYDVQQDDA93d3cud29s
ZnNzbC5jb20xHzAdBgkqhkiG9w0BCQEWEGluZm9Ad29sZnNzbC5jb20wggEiMA0G
CSqGSIb3DQEBAQUAA4IBDwAwggEKAoIBAQCwFBY6Q93hUEVPz4Cz3WaWx+n03N62
ayQbdkisxiOlp+QFGb239t76/+1bPHmKqdXx++vIseSyq1JyiZMiXLrNijYqLNFA
7KhmDsN2zeezowoe3UoHgheBut5XzrYygce9EbvpFSJO4has49TAaIhsEfzCvRvb
Hf3mQ8cbM7j05RtZORI4TS2bZGiY/I1yEpHyJCVsTEpIV5IAzH7Y1D24HfKe6rIj
D1EPEUEc9ScAGwh6EjoFWwMk/rF7IPrkqFjGys5/vpUBEp0F5jkTG8A+Vi4rn3Y3
3t6b4A16Yw2nIljbMcf3tEZcurZLSLEYmmizY0f9rxJfL/4Qy1grM2iFAgMBAAGj
gfwwgfkwHQYDVR0OBBYEFNgJK1nhKu7Z7kCqnKvwXSgJTyK7MIHJBgNVHSMEgcEw
gb6AFCeOZxF0wyYdP+0zY7Ok2B0w5ejVoYGapIGXMIGUMQswCQYDVQQGEwJVUzEQ
MA4GA1UECAwHTW9udGFuYTEQMA4GA1UEBwwHQm96ZW1hbjERMA8GA1UECgwIU2F3
dG9vdGgxEzARBgNVBAsMCkNvbnN1bHRpbmcxGDAWBgNVBAMMD3d3dy53b2xmc3Ns
LmNvbTEfMB0GCSqGSIb3DQEJARYQaW5mb0B3b2xmc3NsLmNvbYIJAIb/9Y4Q3rj7
MAwGA1UdEwQFMAMBAf8wDQYJKoZIhvcNAQELBQADggEBAEEpuiU/F3CFHlziLIyN
FhvVH9YF6OiLQ6BbYugZfdEcYCYvOm96P+ytlsaazFM/EtkSFO4q8KUsMceuXBKa
gD/v3vO+vJ0O1saL4oxYThV4TxYuIO/4yVduo9LQAzJHcoRZr1pG3WVU1Jt8Ql2d
hush6PwP9zeulUN1bfIS86XlECV8Y+4Dzo9IyKuldC0c3dQomuvGlPrtVzGqftlE
QGmfRPaznw7T2Fhm1PzAg2enha4D94O0RTsPqT1P+AcxsIpQbYD0Nr6G367afPW8
4vzT7doYevTwrIQfanMAQUJx1Bk/19MpnrGU/UnYpeYdqUC1HcQoQqkkt1TClF0W
BcA=
-----END CERTIFICATE-----
Certificate:
    Data:
        Version: 3 (0x2)
        Serial Number: 9727763710660753659 (0x86fff58e10deb8fb)
    Signature Algorithm: sha256WithRSAEncryption
        Issuer: C=US, ST=Montana, L=Bozeman, O=Sawtooth, OU=Consulting, CN=www.wolfssl.com/emailAddress=info@wolfssl.com
        Validity
            Not Before: Apr 13 15:23:09 2018 GMT
            Not After : Jan  7 15:23:09 2021 GMT
        Subject: C=US, ST=Montana, L=Bozeman, O=Sawtooth, OU=Consulting, CN=www.wolfssl.com/emailAddress=info@wolfssl.com
        Subject Public Key Info:
            Public Key Algorithm: rsaEncryption
                Public-Key: (2048 bit)
                Modulus:
                    00:bf:0c:ca:2d:14:b2:1e:84:42:5b:cd:38:1f:4a:
                    f2:4d:75:10:f1:b6:35:9f:df:ca:7d:03:98:d3:ac:
                    de:03:66:ee:2a:f1:d8:b0:7d:6e:07:54:0b:10:98:
                    21:4d:80:cb:12:20:e7:cc:4f:de:45:7d:c9:72:77:
                    32:ea:ca:90:bb:69:52:10:03:2f:a8:f3:95:c5:f1:
                    8b:62:56:1b:ef:67:6f:a4:10:41:95:ad:0a:9b:e3:
                    a5:c0:b0:d2:70:76:50:30:5b:a8:e8:08:2c:7c:ed:
                    a7:a2:7a:8d:38:29:1c:ac:c7:ed:f2:7c:95:b0:95:
                    82:7d:49:5c:38:cd:77:25:ef:bd:80:75:53:94:3c:
                    3d:ca:63:5b:9f:15:b5:d3:1d:13:2f:19:d1:3c:db:
                    76:3a:cc:b8:7d:c9:e5:c2:d7:da:40:6f:d8:21:dc:
                    73:1b:42:2d:53:9c:fe:1a:fc:7d:ab:7a:36:3f:98:
                    de:84:7c:05:67:ce:6a:14:38:87:a9:f1:8c:b5:68:
                    cb:68:7f:71:20:2b:f5:a0:63:f5:56:2f:a3:26:d2:
                    b7:6f:b1:5a:17:d7:38:99:08:fe:93:58:6f:fe:c3:
                    13:49:08:16:0b:a7:4d:67:00:52:31:67:23:4e:98:
                    ed:51:45:1d:b9:04:d9:0b:ec:d8:28:b3:4b:bd:ed:
                    36:79
                Exponent: 65537 (0x10001)
        X509v3 extensions:
            X509v3 Subject Key Identifier: 
                27:8E:67:11:74:C3:26:1D:3F:ED:33:63:B3:A4:D8:1D:30:E5:E8:D5
            X509v3 Authority Key Identifier: 
                keyid:27:8E:67:11:74:C3:26:1D:3F:ED:33:63:B3:A4:D8:1D:30:E5:E8:D5
                DirName:/C=US/ST=Montana/L=Bozeman/O=Sawtooth/OU=Consulting/CN=www.wolfssl.com/emailAddress=info@wolfssl.com
                serial:86:FF:F5:8E:10:DE:B8:FB

            X509v3 Basic Constraints: 
                CA:TRUE
    Signature Algorithm: sha256WithRSAEncryption
         9e:28:88:72:00:ca:e6:e7:97:ca:c1:f1:1f:9e:12:b2:b8:c7:
         51:ea:28:e1:36:b5:2d:e6:2f:08:23:cb:a9:4a:87:25:c6:5d:
         89:45:ea:f5:00:98:ac:76:fb:1b:af:f0:ce:64:9e:da:08:bf:
         b6:eb:b4:b5:0c:a0:e7:f6:47:59:1c:61:cf:2e:0e:58:a4:82:
         ac:0f:3f:ec:c4:ae:80:f7:b0:8a:1e:85:41:e8:ff:fe:fe:4f:
         1a:24:d5:49:fa:fb:fe:5e:e5:d3:91:0e:4f:4e:0c:21:51:71:
         83:04:6b:62:7b:4f:59:76:48:81:1e:b4:f7:04:47:8a:91:57:
         a3:11:a9:f2:20:b4:78:33:62:3d:b0:5e:0d:f9:86:38:82:da:
         a1:98:8d:19:06:87:21:39:b7:02:f7:da:7d:58:ba:52:15:d8:
         3b:c9:7b:58:34:a0:c7:e2:7c:a9:83:13:e1:b6:ec:01:bf:52:
         33:0b:c4:fe:43:d3:c6:a4:8e:2f:87:7f:7a:44:ea:ca:53:6c:
         85:ed:65:76:73:31:03:4e:ea:bd:35:54:13:f3:64:87:6b:df:
         34:dd:34:a1:88:3b:db:4d:af:1b:64:90:92:71:30:8e:c8:cc:
         e5:60:24:af:31:16:39:33:91:50:f9:ab:68:42:74:7a:35:d9:
         dd:c8:c4:52
-----BEGIN CERTIFICATE-----
MIIEqjCCA5KgAwIBAgIJAIb/9Y4Q3rj7MA0GCSqGSIb3DQEBCwUAMIGUMQswCQYD
VQQGEwJVUzEQMA4GA1UECAwHTW9udGFuYTEQMA4GA1UEBwwHQm96ZW1hbjERMA8G
A1UECgwIU2F3dG9vdGgxEzARBgNVBAsMCkNvbnN1bHRpbmcxGDAWBgNVBAMMD3d3
dy53b2xmc3NsLmNvbTEfMB0GCSqGSIb3DQEJARYQaW5mb0B3b2xmc3NsLmNvbTAe
Fw0xODA0MTMxNTIzMDlaFw0yMTAxMDcxNTIzMDlaMIGUMQswCQYDVQQGEwJVUzEQ
MA4GA1UECAwHTW9udGFuYTEQMA4GA1UEBwwHQm96ZW1hbjERMA8GA1UECgwIU2F3
dG9vdGgxEzARBgNVBAsMCkNvbnN1bHRpbmcxGDAWBgNVBAMMD3d3dy53b2xmc3Ns
LmNvbTEfMB0GCSqGSIb3DQEJARYQaW5mb0B3b2xmc3NsLmNvbTCCASIwDQYJKoZI
hvcNAQEBBQADggEPADCCAQoCggEBAL8Myi0Ush6EQlvNOB9K8k11EPG2NZ/fyn0D
mNOs3gNm7irx2LB9bgdUCxCYIU2AyxIg58xP3kV9yXJ3MurKkLtpUhADL6jzlcXx
i2JWG+9nb6QQQZWtCpvjpcCw0nB2UDBbqOgILHztp6J6jTgpHKzH7fJ8lbCVgn1J
XDjNdyXvvYB1U5Q8PcpjW58VtdMdEy8Z0TzbdjrMuH3J5cLX2kBv2CHccxtCLVOc
/hr8fat6Nj+Y3oR8BWfOahQ4h6nxjLVoy2h/cSAr9aBj9VYvoybSt2+xWhfXOJkI
/pNYb/7DE0kIFgunTWcAUjFnI06Y7VFFHbkE2Qvs2CizS73tNnkCAwEAAaOB/DCB
+TAdBgNVHQ4EFgQUJ45nEXTDJh0/7TNjs6TYHTDl6NUwgckGA1UdIwSBwTCBvoAU
J45nEXTDJh0/7TNjs6TYHTDl6NWhgZqkgZcwgZQxCzAJBgNVBAYTAlVTMRAwDgYD
VQQIDAdNb250YW5hMRAwDgYDVQQHDAdCb3plbWFuMREwDwYDVQQKDAhTYXd0b290
aDETMBEGA1UECwwKQ29uc3VsdGluZzEYMBYGA1UEAwwPd3d3LndvbGZzc2wuY29t
MR8wHQYJKoZIhvcNAQkBFhBpbmZvQHdvbGZzc2wuY29tggkAhv/1jhDeuPswDAYD
VR0TBAUwAwEB/zANBgkqhkiG9w0BAQsFAAOCAQEAniiIcgDK5ueXysHxH54SsrjH
Ueoo4Ta1LeYvCCPLqUqHJcZdiUXq9QCYrHb7G6/wzmSe2gi/tuu0tQyg5/ZHWRxh
zy4OWKSCrA8/7MSugPewih6FQej//v5PGiTVSfr7/l7l05EOT04MIVFxgwRrYntP
WXZIgR609wRHipFXoxGp8iC0eDNiPbBeDfmGOILaoZiNGQaHITm3AvfafVi6UhXY
O8l7WDSgx+J8qYMT4bbsAb9SMwvE/kPTxqSOL4d/ekTqylNshe1ldnMxA07qvTVU
E/Nkh2vfNN00oYg7202vG2SQknEwjsjM5WAkrzEWOTORUPmraEJ0ejXZ3cjEUg==
-----END CERTIFICATE-----
