Certificate:
    Data:
        Version: 3 (0x2)
        Serial Number: 17764616133298603308 (0xf6889840946fc52c)
    Signature Algorithm: ecdsa-with-SHA256
        Issuer: C=US, ST=Montana, L=Bozeman, O=Elliptic - comp, OU=Server ECC-comp, CN=www.wolfssl.com/emailAddress=info@wolfssl.com
        Validity
            Not Before: May  7 18:21:01 2015 GMT
            Not After : Jan 31 18:21:01 2018 GMT
        Subject: C=US, ST=Montana, L=Bozeman, O=Elliptic - comp, OU=Server ECC-comp, CN=www.wolfssl.com/emailAddress=info@wolfssl.com
        Subject Public Key Info:
            Public Key Algorithm: id-ecPublicKey
                Public-Key: (256 bit)
                pub: 
                    02:bb:33:ac:4c:27:50:4a:c6:4a:a5:04:c3:3c:de:
                    9f:36:db:72:2d:ce:94:ea:2b:fa:cb:20:09:39:2c:
                    16:e8:61
                ASN1 OID: prime256v1
        X509v3 extensions:
            X509v3 Subject Key Identifier: 
                8C:38:3A:6B:B8:24:B7:DF:6E:F4:59:AC:56:4E:AA:E2:58:A6:5A:18
            X509v3 Authority Key Identifier: 
                keyid:8C:38:3A:6B:B8:24:B7:DF:6E:F4:59:AC:56:4E:AA:E2:58:A6:5A:18
                DirName:/C=US/ST=Montana/L=Bozeman/O=Elliptic - comp/OU=Server ECC-comp/CN=www.wolfssl.com/emailAddress=info@wolfssl.com
                serial:F6:88:98:40:94:6F:C5:2C

            X509v3 Basic Constraints: 
                CA:TRUE
    Signature Algorithm: ecdsa-with-SHA256
         30:46:02:21:00:9c:f8:3e:f6:5e:cd:da:b1:08:fe:e2:bd:78:
         14:b5:33:b3:29:69:d0:a0:de:19:05:ec:c3:46:29:01:8c:4c:
         56:02:21:00:e2:e7:ea:37:c1:08:f6:15:73:0c:92:4f:25:63:
         f6:53:96:31:4c:9f:1d:1a:1f:c0:a0:a3:48:bd:71:ce:13:11
-----BEGIN CERTIFICATE-----
MIIDJTCCAsqgAwIBAgIJAPaImECUb8UsMAoGCCqGSM49BAMCMIGgMQswCQYDVQQG
EwJVUzEQMA4GA1UECAwHTW9udGFuYTEQMA4GA1UEBwwHQm96ZW1hbjEYMBYGA1UE
CgwPRWxsaXB0aWMgLSBjb21wMRgwFgYDVQQLDA9TZXJ2ZXIgRUNDLWNvbXAxGDAW
BgNVBAMMD3d3dy53b2xmc3NsLmNvbTEfMB0GCSqGSIb3DQEJARYQaW5mb0B3b2xm
c3NsLmNvbTAeFw0xNTA1MDcxODIxMDFaFw0xODAxMzExODIxMDFaMIGgMQswCQYD
VQQGEwJVUzEQMA4GA1UECAwHTW9udGFuYTEQMA4GA1UEBwwHQm96ZW1hbjEYMBYG
A1UECgwPRWxsaXB0aWMgLSBjb21wMRgwFgYDVQQLDA9TZXJ2ZXIgRUNDLWNvbXAx
GDAWBgNVBAMMD3d3dy53b2xmc3NsLmNvbTEfMB0GCSqGSIb3DQEJARYQaW5mb0B3
b2xmc3NsLmNvbTA5MBMGByqGSM49AgEGCCqGSM49AwEHAyIAArszrEwnUErGSqUE
wzzenzbbci3OlOor+ssgCTksFuhho4IBCTCCAQUwHQYDVR0OBBYEFIw4Omu4JLff
bvRZrFZOquJYploYMIHVBgNVHSMEgc0wgcqAFIw4Omu4JLffbvRZrFZOquJYploY
oYGmpIGjMIGgMQswCQYDVQQGEwJVUzEQMA4GA1UECAwHTW9udGFuYTEQMA4GA1UE
BwwHQm96ZW1hbjEYMBYGA1UECgwPRWxsaXB0aWMgLSBjb21wMRgwFgYDVQQLDA9T
ZXJ2ZXIgRUNDLWNvbXAxGDAWBgNVBAMMD3d3dy53b2xmc3NsLmNvbTEfMB0GCSqG
SIb3DQEJARYQaW5mb0B3b2xmc3NsLmNvbYIJAPaImECUb8UsMAwGA1UdEwQFMAMB
Af8wCgYIKoZIzj0EAwIDSQAwRgIhAJz4PvZezdqxCP7ivXgUtTOzKWnQoN4ZBezD
RikBjExWAiEA4ufqN8EI9hVzDJJPJWP2U5YxTJ8dGh/AoKNIvXHOExE=
-----END CERTIFICATE-----
