Certificate:
    Data:
        Version: 3 (0x2)
        Serial Number: 12841786837162396166 (0xb2373116f65a0a06)
    Signature Algorithm: ecdsa-with-SHA256
        Issuer: C=US, ST=Washington, L=Seattle, O=Eliptic, OU=ECC, CN=www.wolfssl.com/emailAddress=info@wolfssl.com
        Validity
            Not Before: May  7 18:21:01 2015 GMT
            Not After : Jan 31 18:21:01 2018 GMT
        Subject: C=US, ST=Washington, L=Seattle, O=Eliptic, OU=ECC, CN=www.wolfssl.com/emailAddress=info@wolfssl.com
        Subject Public Key Info:
            Public Key Algorithm: id-ecPublicKey
                Public-Key: (256 bit)
                pub: 
                    04:bb:33:ac:4c:27:50:4a:c6:4a:a5:04:c3:3c:de:
                    9f:36:db:72:2d:ce:94:ea:2b:fa:cb:20:09:39:2c:
                    16:e8:61:02:e9:af:4d:d3:02:93:9a:31:5b:97:92:
                    21:7f:f0:cf:18:da:91:11:02:34:86:e8:20:58:33:
                    0b:80:34:89:d8
                ASN1 OID: prime256v1
        X509v3 extensions:
            X509v3 Subject Key Identifier: 
                5D:5D:26:EF:AC:7E:36:F9:9B:76:15:2B:4A:25:02:23:EF:B2:89:30
            X509v3 Authority Key Identifier: 
                keyid:5D:5D:26:EF:AC:7E:36:F9:9B:76:15:2B:4A:25:02:23:EF:B2:89:30
                DirName:/C=US/ST=Washington/L=Seattle/O=Eliptic/OU=ECC/CN=www.wolfssl.com/emailAddress=info@wolfssl.com
                serial:B2:37:31:16:F6:5A:0A:06

            X509v3 Basic Constraints: 
                CA:TRUE
    Signature Algorithm: ecdsa-with-SHA256
         30:45:02:20:35:25:33:ea:7c:3b:e2:2e:ed:e4:2e:9a:91:f1:
         c3:86:ff:a7:27:35:a9:f6:29:d6:f8:d5:9a:0b:35:f1:21:c7:
         02:21:00:bc:79:f7:fd:66:d4:d3:46:61:e4:19:e5:f7:74:03:
         83:27:f8:26:c0:86:15:a9:e2:10:e3:ad:6b:b9:1c:1d:eb
-----BEGIN CERTIFICATE-----
MIIDDzCCArWgAwIBAgIJALI3MRb2WgoGMAoGCCqGSM49BAMCMIGPMQswCQYDVQQG
EwJVUzETMBEGA1UECAwKV2FzaGluZ3RvbjEQMA4GA1UEBwwHU2VhdHRsZTEQMA4G
A1UECgwHRWxpcHRpYzEMMAoGA1UECwwDRUNDMRgwFgYDVQQDDA93d3cud29sZnNz
bC5jb20xHzAdBgkqhkiG9w0BCQEWEGluZm9Ad29sZnNzbC5jb20wHhcNMTUwNTA3
MTgyMTAxWhcNMTgwMTMxMTgyMTAxWjCBjzELMAkGA1UEBhMCVVMxEzARBgNVBAgM
Cldhc2hpbmd0b24xEDAOBgNVBAcMB1NlYXR0bGUxEDAOBgNVBAoMB0VsaXB0aWMx
DDAKBgNVBAsMA0VDQzEYMBYGA1UEAwwPd3d3LndvbGZzc2wuY29tMR8wHQYJKoZI
hvcNAQkBFhBpbmZvQHdvbGZzc2wuY29tMFkwEwYHKoZIzj0CAQYIKoZIzj0DAQcD
QgAEuzOsTCdQSsZKpQTDPN6fNttyLc6U6iv6yyAJOSwW6GEC6a9N0wKTmjFbl5Ih
f/DPGNqREQI0huggWDMLgDSJ2KOB9zCB9DAdBgNVHQ4EFgQUXV0m76x+NvmbdhUr
SiUCI++yiTAwgcQGA1UdIwSBvDCBuYAUXV0m76x+NvmbdhUrSiUCI++yiTChgZWk
gZIwgY8xCzAJBgNVBAYTAlVTMRMwEQYDVQQIDApXYXNoaW5ndG9uMRAwDgYDVQQH
DAdTZWF0dGxlMRAwDgYDVQQKDAdFbGlwdGljMQwwCgYDVQQLDANFQ0MxGDAWBgNV
BAMMD3d3dy53b2xmc3NsLmNvbTEfMB0GCSqGSIb3DQEJARYQaW5mb0B3b2xmc3Ns
LmNvbYIJALI3MRb2WgoGMAwGA1UdEwQFMAMBAf8wCgYIKoZIzj0EAwIDSAAwRQIg
NSUz6nw74i7t5C6akfHDhv+nJzWp9inW+NWaCzXxIccCIQC8eff9ZtTTRmHkGeX3
dAODJ/gmwIYVqeIQ461ruRwd6w==
-----END CERTIFICATE-----
