Certificate:
    Data:
        Version: 3 (0x2)
        Serial Number: 1 (0x1)
    Signature Algorithm: sha256WithRSAEncryption
        Issuer: C=US, ST=Montana, L=Bozeman, O=Sawtooth, OU=Consulting, CN=www.wolfssl.com/emailAddress=info@wolfssl.com
        Validity
            Not Before: Apr 13 15:23:10 2018 GMT
            Not After : Jan  7 15:23:10 2021 GMT
        Subject: C=US, ST=Montana, L=Bozeman, O=Elliptic - RSAsig, OU=ECC-RSAsig, CN=www.wolfssl.com/emailAddress=info@wolfssl.com
        Subject Public Key Info:
            Public Key Algorithm: id-ecPublicKey
                Public-Key: (256 bit)
                pub: 
                    04:bb:33:ac:4c:27:50:4a:c6:4a:a5:04:c3:3c:de:
                    9f:36:db:72:2d:ce:94:ea:2b:fa:cb:20:09:39:2c:
                    16:e8:61:02:e9:af:4d:d3:02:93:9a:31:5b:97:92:
                    21:7f:f0:cf:18:da:91:11:02:34:86:e8:20:58:33:
                    0b:80:34:89:d8
                ASN1 OID: prime256v1
                NIST CURVE: P-256
        X509v3 extensions:
            X509v3 Subject Key Identifier: 
                5D:5D:26:EF:AC:7E:36:F9:9B:76:15:2B:4A:25:02:23:EF:B2:89:30
            X509v3 Authority Key Identifier: 
                keyid:27:8E:67:11:74:C3:26:1D:3F:ED:33:63:B3:A4:D8:1D:30:E5:E8:D5
                DirName:/C=US/ST=Montana/L=Bozeman/O=Sawtooth/OU=Consulting/CN=www.wolfssl.com/emailAddress=info@wolfssl.com
                serial:86:FF:F5:8E:10:DE:B8:FB

            X509v3 Basic Constraints: 
                CA:TRUE
    Signature Algorithm: sha256WithRSAEncryption
         0c:bb:67:bd:fc:cd:53:6c:fb:4e:58:c8:ea:52:92:eb:e4:c8:
         bc:57:0f:08:20:c8:83:b0:d5:ea:57:27:bd:68:91:fb:99:84:
         8d:15:9e:4f:8f:c4:cb:34:61:c0:59:12:9b:c8:82:17:38:4f:
         9e:53:08:a3:69:2e:2f:c0:b4:2f:a2:4e:10:64:b0:07:a1:51:
         08:1d:91:53:a2:79:55:20:41:65:35:3e:0b:38:01:57:02:8c:
         25:e7:ab:4f:8b:59:f0:ed:8e:4a:15:0b:32:fb:7a:8b:02:ea:
         9d:e1:ab:c4:07:cc:da:0f:a3:16:db:8e:5b:bc:96:ab:10:b8:
         de:09:8b:f7:cb:a7:78:66:17:e3:25:6e:57:9d:13:61:7b:55:
         1a:df:8f:39:15:4e:42:22:00:85:c4:51:0b:6b:a6:67:c0:fb:
         ea:22:77:7d:48:76:ab:39:20:09:d5:52:89:3e:6b:30:7b:50:
         18:e8:62:05:be:bb:7f:16:77:9c:bb:5a:22:96:99:b0:96:83:
         b7:43:31:97:cf:fd:85:52:d8:52:c8:67:5c:f8:22:72:35:93:
         92:6c:ec:3c:6a:c6:81:20:a5:cd:50:f9:21:7a:a6:7a:1e:e7:
         59:22:5d:8a:93:51:8e:fb:29:56:fb:be:9b:87:48:5f:a5:72:
         e7:4e:fe:5e
-----BEGIN CERTIFICATE-----
MIID4DCCAsigAwIBAgIBATANBgkqhkiG9w0BAQsFADCBlDELMAkGA1UEBhMCVVMx
EDAOBgNVBAgMB01vbnRhbmExEDAOBgNVBAcMB0JvemVtYW4xETAPBgNVBAoMCFNh
d3Rvb3RoMRMwEQYDVQQLDApDb25zdWx0aW5nMRgwFgYDVQQDDA93d3cud29sZnNz
bC5jb20xHzAdBgkqhkiG9w0BCQEWEGluZm9Ad29sZnNzbC5jb20wHhcNMTgwNDEz
MTUyMzEwWhcNMjEwMTA3MTUyMzEwWjCBnTELMAkGA1UEBhMCVVMxEDAOBgNVBAgM
B01vbnRhbmExEDAOBgNVBAcMB0JvemVtYW4xGjAYBgNVBAoMEUVsbGlwdGljIC0g
UlNBc2lnMRMwEQYDVQQLDApFQ0MtUlNBc2lnMRgwFgYDVQQDDA93d3cud29sZnNz
bC5jb20xHzAdBgkqhkiG9w0BCQEWEGluZm9Ad29sZnNzbC5jb20wWTATBgcqhkjO
PQIBBggqhkjOPQMBBwNCAAS7M6xMJ1BKxkqlBMM83p8223ItzpTqK/rLIAk5LBbo
YQLpr03TApOaMVuXkiF/8M8Y2pERAjSG6CBYMwuANInYo4H8MIH5MB0GA1UdDgQW
BBRdXSbvrH42+Zt2FStKJQIj77KJMDCByQYDVR0jBIHBMIG+gBQnjmcRdMMmHT/t
M2OzpNgdMOXo1aGBmqSBlzCBlDELMAkGA1UEBhMCVVMxEDAOBgNVBAgMB01vbnRh
bmExEDAOBgNVBAcMB0JvemVtYW4xETAPBgNVBAoMCFNhd3Rvb3RoMRMwEQYDVQQL
DApDb25zdWx0aW5nMRgwFgYDVQQDDA93d3cud29sZnNzbC5jb20xHzAdBgkqhkiG
9w0BCQEWEGluZm9Ad29sZnNzbC5jb22CCQCG//WOEN64+zAMBgNVHRMEBTADAQH/
MA0GCSqGSIb3DQEBCwUAA4IBAQAMu2e9/M1TbPtOWMjqUpLr5Mi8Vw8IIMiDsNXq
Vye9aJH7mYSNFZ5Pj8TLNGHAWRKbyIIXOE+eUwijaS4vwLQvok4QZLAHoVEIHZFT
onlVIEFlNT4LOAFXAowl56tPi1nw7Y5KFQsy+3qLAuqd4avEB8zaD6MW245bvJar
ELjeCYv3y6d4ZhfjJW5XnRNhe1Ua3485FU5CIgCFxFELa6ZnwPvqInd9SHarOSAJ
1VKJPmswe1AY6GIFvrt/Fnecu1oilpmwloO3QzGXz/2FUthSyGdc+CJyNZOSbOw8
asaBIKXNUPkheqZ6HudZIl2Kk1GO+ylW+76bh0hfpXLnTv5e
-----END CERTIFICATE-----
