Certificate:
    Data:
        Version: 3 (0x2)
        Serial Number: 1 (0x1)
    Signature Algorithm: sha256WithRSAEncryption
        Issuer: C=US, ST=Montana, L=Bozeman, O=Sawtooth, OU=Consulting, CN=www.wolfssl.com/emailAddress=info@wolfssl.com
        Validity
            Not Before: May  7 18:21:01 2015 GMT
            Not After : Jan 31 18:21:01 2018 GMT
        Subject: C=US, ST=Montana, L=Bozeman, O=Elliptic - RSAsig, OU=ECC-RSAsig, CN=www.wolfssl.com/emailAddress=info@wolfssl.com
        Subject Public Key Info:
            Public Key Algorithm: id-ecPublicKey
                Public-Key: (256 bit)
                pub: 
                    04:bb:33:ac:4c:27:50:4a:c6:4a:a5:04:c3:3c:de:
                    9f:36:db:72:2d:ce:94:ea:2b:fa:cb:20:09:39:2c:
                    16:e8:61:02:e9:af:4d:d3:02:93:9a:31:5b:97:92:
                    21:7f:f0:cf:18:da:91:11:02:34:86:e8:20:58:33:
                    0b:80:34:89:d8
                ASN1 OID: prime256v1
        X509v3 extensions:
            X509v3 Subject Key Identifier: 
                5D:5D:26:EF:AC:7E:36:F9:9B:76:15:2B:4A:25:02:23:EF:B2:89:30
            X509v3 Authority Key Identifier: 
                keyid:27:8E:67:11:74:C3:26:1D:3F:ED:33:63:B3:A4:D8:1D:30:E5:E8:D5
                DirName:/C=US/ST=Montana/L=Bozeman/O=Sawtooth/OU=Consulting/CN=www.wolfssl.com/emailAddress=info@wolfssl.com
                serial:D9:80:3A:C3:D2:F4:DA:37

            X509v3 Basic Constraints: 
                CA:TRUE
    Signature Algorithm: sha256WithRSAEncryption
         ac:2b:a9:d9:15:3b:9a:42:fb:86:2b:c1:f2:18:7c:a6:ca:27:
         0b:48:81:64:20:3b:d3:4f:ee:95:d4:c5:fd:5f:c7:d6:ab:a1:
         41:85:cc:e1:16:e1:fd:ce:8a:af:95:27:f2:f0:7a:3d:59:5d:
         3a:5d:03:99:cb:4c:5c:19:35:9c:b2:6e:7e:2b:10:e2:7f:ef:
         14:35:79:ca:67:eb:51:a9:e9:bb:5f:52:af:9d:79:80:b5:31:
         5c:f0:20:ca:c7:e9:9b:29:82:c4:a4:74:0a:2a:76:ea:ad:59:
         a2:f9:a2:cf:53:40:11:ac:1a:de:fc:ab:28:96:9f:cf:ff:b9:
         74:31:95:c4:6d:d2:76:c1:93:97:75:a6:9f:69:a3:7d:92:75:
         b8:27:a2:bd:4d:4b:54:11:b4:8a:43:f2:fc:10:a5:82:fb:51:
         45:57:86:00:85:71:91:21:37:5c:9f:f3:68:06:ae:9e:86:46:
         8d:4b:e3:d0:42:a4:cf:c1:5d:95:bc:1a:92:f8:44:1e:a0:1b:
         c8:98:41:af:8e:94:41:60:69:b1:7c:8e:70:ce:88:42:44:3a:
         2d:3f:de:6e:3a:aa:d1:64:be:03:68:60:b6:ac:e5:44:c1:bb:
         f1:c9:40:90:c2:c9:8f:ec:32:9d:e0:b4:4b:1a:e7:da:99:94:
         fe:e2:b6:2a
-----BEGIN CERTIFICATE-----
MIID4DCCAsigAwIBAgIBATANBgkqhkiG9w0BAQsFADCBlDELMAkGA1UEBhMCVVMx
EDAOBgNVBAgMB01vbnRhbmExEDAOBgNVBAcMB0JvemVtYW4xETAPBgNVBAoMCFNh
d3Rvb3RoMRMwEQYDVQQLDApDb25zdWx0aW5nMRgwFgYDVQQDDA93d3cud29sZnNz
bC5jb20xHzAdBgkqhkiG9w0BCQEWEGluZm9Ad29sZnNzbC5jb20wHhcNMTUwNTA3
MTgyMTAxWhcNMTgwMTMxMTgyMTAxWjCBnTELMAkGA1UEBhMCVVMxEDAOBgNVBAgM
B01vbnRhbmExEDAOBgNVBAcMB0JvemVtYW4xGjAYBgNVBAoMEUVsbGlwdGljIC0g
UlNBc2lnMRMwEQYDVQQLDApFQ0MtUlNBc2lnMRgwFgYDVQQDDA93d3cud29sZnNz
bC5jb20xHzAdBgkqhkiG9w0BCQEWEGluZm9Ad29sZnNzbC5jb20wWTATBgcqhkjO
PQIBBggqhkjOPQMBBwNCAAS7M6xMJ1BKxkqlBMM83p8223ItzpTqK/rLIAk5LBbo
YQLpr03TApOaMVuXkiF/8M8Y2pERAjSG6CBYMwuANInYo4H8MIH5MB0GA1UdDgQW
BBRdXSbvrH42+Zt2FStKJQIj77KJMDCByQYDVR0jBIHBMIG+gBQnjmcRdMMmHT/t
M2OzpNgdMOXo1aGBmqSBlzCBlDELMAkGA1UEBhMCVVMxEDAOBgNVBAgMB01vbnRh
bmExEDAOBgNVBAcMB0JvemVtYW4xETAPBgNVBAoMCFNhd3Rvb3RoMRMwEQYDVQQL
DApDb25zdWx0aW5nMRgwFgYDVQQDDA93d3cud29sZnNzbC5jb20xHzAdBgkqhkiG
9w0BCQEWEGluZm9Ad29sZnNzbC5jb22CCQDZgDrD0vTaNzAMBgNVHRMEBTADAQH/
MA0GCSqGSIb3DQEBCwUAA4IBAQCsK6nZFTuaQvuGK8HyGHymyicLSIFkIDvTT+6V
1MX9X8fWq6FBhczhFuH9zoqvlSfy8Ho9WV06XQOZy0xcGTWcsm5+KxDif+8UNXnK
Z+tRqem7X1KvnXmAtTFc8CDKx+mbKYLEpHQKKnbqrVmi+aLPU0ARrBre/Ksolp/P
/7l0MZXEbdJ2wZOXdaafaaN9knW4J6K9TUtUEbSKQ/L8EKWC+1FFV4YAhXGRITdc
n/NoBq6ehkaNS+PQQqTPwV2VvBqS+EQeoBvImEGvjpRBYGmxfI5wzohCRDotP95u
OqrRZL4DaGC2rOVEwbvxyUCQwsmP7DKd4LRLGufamZT+4rYq
-----END CERTIFICATE-----
