Certificate:
    Data:
        Version: 3 (0x2)
        Serial Number:
            f4:cc:72:08:11:35:69:b3
        Signature Algorithm: ecdsa-with-SHA1
        Issuer: C=US, ST=Washington, L=Seattle, O=Eliptic, OU=ECC, CN=www.yassl.com/emailAddress=info@yassl.com
        Validity
            Not Before: Jan 25 20:09:20 2011 GMT
            Not After : Oct 21 20:09:20 2013 GMT
        Subject: C=US, ST=Washington, L=Seattle, O=Eliptic, OU=ECC, CN=www.yassl.com/emailAddress=info@yassl.com
        Subject Public Key Info:
            Public Key Algorithm: id-ecPublicKey
            EC Public Key:
                pub: 
                    04:bb:33:ac:4c:27:50:4a:c6:4a:a5:04:c3:3c:de:
                    9f:36:db:72:2d:ce:94:ea:2b:fa:cb:20:09:39:2c:
                    16:e8:61:02:e9:af:4d:d3:02:93:9a:31:5b:97:92:
                    21:7f:f0:cf:18:da:91:11:02:34:86:e8:20:58:33:
                    0b:80:34:89:d8
                ASN1 OID: prime256v1
        X509v3 extensions:
            X509v3 Subject Key Identifier: 
                5D:5D:26:EF:AC:7E:36:F9:9B:76:15:2B:4A:25:02:23:EF:B2:89:30
            X509v3 Authority Key Identifier: 
                keyid:5D:5D:26:EF:AC:7E:36:F9:9B:76:15:2B:4A:25:02:23:EF:B2:89:30
                DirName:/C=US/ST=Washington/L=Seattle/O=Eliptic/OU=ECC/CN=www.yassl.com/emailAddress=info@yassl.com
                serial:F4:CC:72:08:11:35:69:B3

            X509v3 Basic Constraints: 
                CA:TRUE
    Signature Algorithm: ecdsa-with-SHA1
        30:44:02:20:08:9b:66:9f:39:ef:49:2b:99:92:31:65:a1:87:
        10:91:63:fe:69:e0:5f:b0:49:66:0a:71:41:fd:08:c0:8e:4c:
        02:20:02:2a:60:37:e4:94:6b:3e:39:a8:6c:4f:07:75:2b:28:
        b3:f5:9d:c2:26:c7:64:1b:a9:7f:6e:e9:2a:a3:5e:4e
-----BEGIN CERTIFICATE-----
MIIDADCCAqigAwIBAgIJAPTMcggRNWmzMAkGByqGSM49BAEwgYsxCzAJBgNVBAYT
AlVTMRMwEQYDVQQIEwpXYXNoaW5ndG9uMRAwDgYDVQQHEwdTZWF0dGxlMRAwDgYD
VQQKEwdFbGlwdGljMQwwCgYDVQQLEwNFQ0MxFjAUBgNVBAMTDXd3dy55YXNzbC5j
b20xHTAbBgkqhkiG9w0BCQEWDmluZm9AeWFzc2wuY29tMB4XDTExMDEyNTIwMDky
MFoXDTEzMTAyMTIwMDkyMFowgYsxCzAJBgNVBAYTAlVTMRMwEQYDVQQIEwpXYXNo
aW5ndG9uMRAwDgYDVQQHEwdTZWF0dGxlMRAwDgYDVQQKEwdFbGlwdGljMQwwCgYD
VQQLEwNFQ0MxFjAUBgNVBAMTDXd3dy55YXNzbC5jb20xHTAbBgkqhkiG9w0BCQEW
DmluZm9AeWFzc2wuY29tMFkwEwYHKoZIzj0CAQYIKoZIzj0DAQcDQgAEuzOsTCdQ
SsZKpQTDPN6fNttyLc6U6iv6yyAJOSwW6GEC6a9N0wKTmjFbl5Ihf/DPGNqREQI0
huggWDMLgDSJ2KOB8zCB8DAdBgNVHQ4EFgQUXV0m76x+NvmbdhUrSiUCI++yiTAw
gcAGA1UdIwSBuDCBtYAUXV0m76x+NvmbdhUrSiUCI++yiTChgZGkgY4wgYsxCzAJ
BgNVBAYTAlVTMRMwEQYDVQQIEwpXYXNoaW5ndG9uMRAwDgYDVQQHEwdTZWF0dGxl
MRAwDgYDVQQKEwdFbGlwdGljMQwwCgYDVQQLEwNFQ0MxFjAUBgNVBAMTDXd3dy55
YXNzbC5jb20xHTAbBgkqhkiG9w0BCQEWDmluZm9AeWFzc2wuY29tggkA9MxyCBE1
abMwDAYDVR0TBAUwAwEB/zAJBgcqhkjOPQQBA0cAMEQCIAibZp8570krmZIxZaGH
EJFj/mngX7BJZgpxQf0IwI5MAiACKmA35JRrPjmobE8HdSsos/WdwibHZBupf27p
KqNeTg==
-----END CERTIFICATE-----
