Certificate:
    Data:
        Version: 3 (0x2)
        Serial Number: 15779322327764802375 (0xdafb6a0dfecf9b47)
    Signature Algorithm: sha256WithRSAEncryption
        Issuer: C=US, ST=Montana, L=Bozeman, O=Sawtooth, OU=Consulting_1024, CN=www.wolfssl.com/emailAddress=info@wolfssl.com
        Validity
            Not Before: Apr 13 15:23:10 2018 GMT
            Not After : Jan  7 15:23:10 2021 GMT
        Subject: C=US, ST=Montana, L=Bozeman, O=Sawtooth, OU=Consulting_1024, CN=www.wolfssl.com/emailAddress=info@wolfssl.com
        Subject Public Key Info:
            Public Key Algorithm: rsaEncryption
                Public-Key: (1024 bit)
                Modulus:
                    00:cd:ac:dd:47:ec:be:b7:24:c3:63:1b:54:98:79:
                    e1:c7:31:16:59:d6:9d:77:9d:8d:e2:8b:ed:04:17:
                    b2:c6:eb:e4:9b:91:be:31:50:62:97:58:b5:7f:29:
                    de:b3:71:24:0b:bf:97:09:7f:26:dc:2d:ec:a8:2e:
                    b2:64:2b:7a:2b:35:19:2d:a2:80:cb:99:fd:94:71:
                    1b:23:8d:54:db:2e:62:8d:81:08:2d:f4:24:72:27:
                    6c:f9:c9:8e:db:4c:75:ba:9b:01:f8:3f:18:f4:e6:
                    7f:fb:57:94:92:cc:88:c4:b4:00:c2:aa:d4:e5:88:
                    18:b3:11:2f:73:c0:d6:29:09
                Exponent: 65537 (0x10001)
        X509v3 extensions:
            X509v3 Subject Key Identifier: 
                D3:22:8F:28:2C:E0:05:EE:D3:ED:C3:71:3D:C9:B2:36:3A:1D:BF:A8
            X509v3 Authority Key Identifier: 
                keyid:D3:22:8F:28:2C:E0:05:EE:D3:ED:C3:71:3D:C9:B2:36:3A:1D:BF:A8
                DirName:/C=US/ST=Montana/L=Bozeman/O=Sawtooth/OU=Consulting_1024/CN=www.wolfssl.com/emailAddress=info@wolfssl.com
                serial:DA:FB:6A:0D:FE:CF:9B:47

            X509v3 Basic Constraints: 
                CA:TRUE
    Signature Algorithm: sha256WithRSAEncryption
         1d:48:f6:40:41:04:06:f2:e4:72:2f:ea:ff:c1:67:6b:15:bb:
         0a:28:23:28:07:c6:d7:13:2c:be:00:00:ac:1d:f7:f4:92:d3:
         2b:af:23:eb:9f:1a:e2:11:3c:2d:97:f2:0f:ac:ae:97:86:0a:
         fb:a8:4f:74:1b:de:19:51:db:cd:e2:11:38:c1:a4:9d:56:ab:
         47:5c:de:ba:eb:27:df:6d:c8:7e:3a:bd:2e:9b:2a:ad:22:3b:
         95:a9:f2:28:03:bc:e5:ec:cc:f2:08:d4:c8:2f:db:ea:fb:2e:
         52:16:8c:42:02:a4:59:6d:4c:33:b4:9a:d2:73:4a:1e:9f:d9:
         c8:83
-----BEGIN CERTIFICATE-----
MIIDtTCCAx6gAwIBAgIJANr7ag3+z5tHMA0GCSqGSIb3DQEBCwUAMIGZMQswCQYD
VQQGEwJVUzEQMA4GA1UECAwHTW9udGFuYTEQMA4GA1UEBwwHQm96ZW1hbjERMA8G
A1UECgwIU2F3dG9vdGgxGDAWBgNVBAsMD0NvbnN1bHRpbmdfMTAyNDEYMBYGA1UE
AwwPd3d3LndvbGZzc2wuY29tMR8wHQYJKoZIhvcNAQkBFhBpbmZvQHdvbGZzc2wu
Y29tMB4XDTE4MDQxMzE1MjMxMFoXDTIxMDEwNzE1MjMxMFowgZkxCzAJBgNVBAYT
AlVTMRAwDgYDVQQIDAdNb250YW5hMRAwDgYDVQQHDAdCb3plbWFuMREwDwYDVQQK
DAhTYXd0b290aDEYMBYGA1UECwwPQ29uc3VsdGluZ18xMDI0MRgwFgYDVQQDDA93
d3cud29sZnNzbC5jb20xHzAdBgkqhkiG9w0BCQEWEGluZm9Ad29sZnNzbC5jb20w
gZ8wDQYJKoZIhvcNAQEBBQADgY0AMIGJAoGBAM2s3Ufsvrckw2MbVJh54ccxFlnW
nXedjeKL7QQXssbr5JuRvjFQYpdYtX8p3rNxJAu/lwl/Jtwt7KgusmQreis1GS2i
gMuZ/ZRxGyONVNsuYo2BCC30JHInbPnJjttMdbqbAfg/GPTmf/tXlJLMiMS0AMKq
1OWIGLMRL3PA1ikJAgMBAAGjggEBMIH+MB0GA1UdDgQWBBTTIo8oLOAF7tPtw3E9
ybI2Oh2/qDCBzgYDVR0jBIHGMIHDgBTTIo8oLOAF7tPtw3E9ybI2Oh2/qKGBn6SB
nDCBmTELMAkGA1UEBhMCVVMxEDAOBgNVBAgMB01vbnRhbmExEDAOBgNVBAcMB0Jv
emVtYW4xETAPBgNVBAoMCFNhd3Rvb3RoMRgwFgYDVQQLDA9Db25zdWx0aW5nXzEw
MjQxGDAWBgNVBAMMD3d3dy53b2xmc3NsLmNvbTEfMB0GCSqGSIb3DQEJARYQaW5m
b0B3b2xmc3NsLmNvbYIJANr7ag3+z5tHMAwGA1UdEwQFMAMBAf8wDQYJKoZIhvcN
AQELBQADgYEAHUj2QEEEBvLkci/q/8FnaxW7CigjKAfG1xMsvgAArB339JLTK68j
658a4hE8LZfyD6yul4YK+6hPdBveGVHbzeIROMGknVarR1zeuusn323Ifjq9Lpsq
rSI7lanyKAO85ezM8gjUyC/b6vsuUhaMQgKkWW1MM7Sa0nNKHp/ZyIM=
-----END CERTIFICATE-----
