Certificate:
    Data:
        Version: 3 (0x2)
        Serial Number: 16417767964199037690 (0xe3d7a0fa76df2afa)
    Signature Algorithm: sha256WithRSAEncryption
        Issuer: C=US, ST=Montana, L=Bozeman, O=wolfSSL_1024, OU=Programming-1024, CN=www.wolfssl.com/emailAddress=info@wolfssl.com
        Validity
            Not Before: May  7 18:21:01 2015 GMT
            Not After : Jan 31 18:21:01 2018 GMT
        Subject: C=US, ST=Montana, L=Bozeman, O=wolfSSL_1024, OU=Programming-1024, CN=www.wolfssl.com/emailAddress=info@wolfssl.com
        Subject Public Key Info:
            Public Key Algorithm: rsaEncryption
                Public-Key: (1024 bit)
                Modulus:
                    00:bc:73:0e:a8:49:f3:74:a2:a9:ef:18:a5:da:55:
                    99:21:f9:c8:ec:b3:6d:48:e5:35:35:75:77:37:ec:
                    d1:61:90:5f:3e:d9:e4:d5:df:94:ca:c1:a9:d7:19:
                    da:86:c9:e8:4d:c4:61:36:82:fe:ab:ad:7e:77:25:
                    bb:8d:11:a5:bc:62:3a:a8:38:cc:39:a2:04:66:b4:
                    f7:f7:f3:aa:da:4d:02:0e:bb:5e:8d:69:48:dc:77:
                    c9:28:0e:22:e9:6b:a4:26:ba:4c:e8:c1:fd:4a:6f:
                    2b:1f:ef:8a:ae:f6:90:62:e5:64:1e:eb:2b:3c:67:
                    c8:dc:27:00:f6:91:68:65:a9
                Exponent: 65537 (0x10001)
        X509v3 extensions:
            X509v3 Subject Key Identifier: 
                81:69:0F:F8:DF:DD:CF:34:29:D5:67:75:71:85:C7:75:10:69:59:EC
            X509v3 Authority Key Identifier: 
                keyid:81:69:0F:F8:DF:DD:CF:34:29:D5:67:75:71:85:C7:75:10:69:59:EC
                DirName:/C=US/ST=Montana/L=Bozeman/O=wolfSSL_1024/OU=Programming-1024/CN=www.wolfssl.com/emailAddress=info@wolfssl.com
                serial:E3:D7:A0:FA:76:DF:2A:FA

            X509v3 Basic Constraints: 
                CA:TRUE
    Signature Algorithm: sha256WithRSAEncryption
         1d:b7:d5:7c:e1:b1:d8:c0:67:5d:b5:d3:88:e7:50:29:71:63:
         8f:cc:26:1f:33:09:55:43:9b:ab:c6:1b:bc:c7:01:95:1a:fa:
         65:e0:fd:9c:eb:6f:0a:0f:14:ec:b5:2f:dc:1c:30:dd:52:97:
         d4:1c:09:00:33:38:5f:cb:a8:16:8f:11:b7:b8:d0:66:e1:54:
         28:f3:3f:bf:6a:6f:76:48:2a:5e:56:a7:ce:1c:f0:04:dd:17:
         bd:06:78:21:6d:d6:b1:9b:75:31:92:c1:fe:d4:8d:d4:67:2f:
         03:1b:27:8d:ab:ff:30:3b:c3:7f:23:e4:ab:5b:91:e1:1b:66:
         e6:ed
-----BEGIN CERTIFICATE-----
MIIDxTCCAy6gAwIBAgIJAOPXoPp23yr6MA0GCSqGSIb3DQEBCwUAMIGeMQswCQYD
VQQGEwJVUzEQMA4GA1UECAwHTW9udGFuYTEQMA4GA1UEBwwHQm96ZW1hbjEVMBMG
A1UECgwMd29sZlNTTF8xMDI0MRkwFwYDVQQLDBBQcm9ncmFtbWluZy0xMDI0MRgw
FgYDVQQDDA93d3cud29sZnNzbC5jb20xHzAdBgkqhkiG9w0BCQEWEGluZm9Ad29s
ZnNzbC5jb20wHhcNMTUwNTA3MTgyMTAxWhcNMTgwMTMxMTgyMTAxWjCBnjELMAkG
A1UEBhMCVVMxEDAOBgNVBAgMB01vbnRhbmExEDAOBgNVBAcMB0JvemVtYW4xFTAT
BgNVBAoMDHdvbGZTU0xfMTAyNDEZMBcGA1UECwwQUHJvZ3JhbW1pbmctMTAyNDEY
MBYGA1UEAwwPd3d3LndvbGZzc2wuY29tMR8wHQYJKoZIhvcNAQkBFhBpbmZvQHdv
bGZzc2wuY29tMIGfMA0GCSqGSIb3DQEBAQUAA4GNADCBiQKBgQC8cw6oSfN0oqnv
GKXaVZkh+cjss21I5TU1dXc37NFhkF8+2eTV35TKwanXGdqGyehNxGE2gv6rrX53
JbuNEaW8YjqoOMw5ogRmtPf386raTQIOu16NaUjcd8koDiLpa6Qmukzowf1Kbysf
74qu9pBi5WQe6ys8Z8jcJwD2kWhlqQIDAQABo4IBBzCCAQMwHQYDVR0OBBYEFIFp
D/jf3c80KdVndXGFx3UQaVnsMIHTBgNVHSMEgcswgciAFIFpD/jf3c80KdVndXGF
x3UQaVnsoYGkpIGhMIGeMQswCQYDVQQGEwJVUzEQMA4GA1UECAwHTW9udGFuYTEQ
MA4GA1UEBwwHQm96ZW1hbjEVMBMGA1UECgwMd29sZlNTTF8xMDI0MRkwFwYDVQQL
DBBQcm9ncmFtbWluZy0xMDI0MRgwFgYDVQQDDA93d3cud29sZnNzbC5jb20xHzAd
BgkqhkiG9w0BCQEWEGluZm9Ad29sZnNzbC5jb22CCQDj16D6dt8q+jAMBgNVHRME
BTADAQH/MA0GCSqGSIb3DQEBCwUAA4GBAB231XzhsdjAZ12104jnUClxY4/MJh8z
CVVDm6vGG7zHAZUa+mXg/ZzrbwoPFOy1L9wcMN1Sl9QcCQAzOF/LqBaPEbe40Gbh
VCjzP79qb3ZIKl5Wp84c8ATdF70GeCFt1rGbdTGSwf7UjdRnLwMbJ42r/zA7w38j
5KtbkeEbZubt
-----END CERTIFICATE-----
