Certificate:
    Data:
        Version: 3 (0x2)
        Serial Number: 13534178914118477827 (0xbbd31003e69d2803)
    Signature Algorithm: sha256WithRSAEncryption
        Issuer: C=US, ST=Montana, L=Bozeman, O=wolfSSL_1024, OU=Programming-1024, CN=www.wolfssl.com/emailAddress=info@wolfssl.com
        Validity
            Not Before: Apr 13 15:23:09 2018 GMT
            Not After : Jan  7 15:23:09 2021 GMT
        Subject: C=US, ST=Montana, L=Bozeman, O=wolfSSL_1024, OU=Programming-1024, CN=www.wolfssl.com/emailAddress=info@wolfssl.com
        Subject Public Key Info:
            Public Key Algorithm: rsaEncryption
                Public-Key: (1024 bit)
                Modulus:
                    00:bc:73:0e:a8:49:f3:74:a2:a9:ef:18:a5:da:55:
                    99:21:f9:c8:ec:b3:6d:48:e5:35:35:75:77:37:ec:
                    d1:61:90:5f:3e:d9:e4:d5:df:94:ca:c1:a9:d7:19:
                    da:86:c9:e8:4d:c4:61:36:82:fe:ab:ad:7e:77:25:
                    bb:8d:11:a5:bc:62:3a:a8:38:cc:39:a2:04:66:b4:
                    f7:f7:f3:aa:da:4d:02:0e:bb:5e:8d:69:48:dc:77:
                    c9:28:0e:22:e9:6b:a4:26:ba:4c:e8:c1:fd:4a:6f:
                    2b:1f:ef:8a:ae:f6:90:62:e5:64:1e:eb:2b:3c:67:
                    c8:dc:27:00:f6:91:68:65:a9
                Exponent: 65537 (0x10001)
        X509v3 extensions:
            X509v3 Subject Key Identifier: 
                81:69:0F:F8:DF:DD:CF:34:29:D5:67:75:71:85:C7:75:10:69:59:EC
            X509v3 Authority Key Identifier: 
                keyid:81:69:0F:F8:DF:DD:CF:34:29:D5:67:75:71:85:C7:75:10:69:59:EC
                DirName:/C=US/ST=Montana/L=Bozeman/O=wolfSSL_1024/OU=Programming-1024/CN=www.wolfssl.com/emailAddress=info@wolfssl.com
                serial:BB:D3:10:03:E6:9D:28:03

            X509v3 Basic Constraints: 
                CA:TRUE
    Signature Algorithm: sha256WithRSAEncryption
         84:99:d9:e5:37:c4:44:7d:ce:29:b8:b6:80:0e:ea:a3:e2:fa:
         a2:2f:5c:d2:4a:85:67:b9:8b:fa:9f:7d:da:6d:85:2a:c2:20:
         f3:18:c8:d4:6b:26:b2:7a:68:e7:82:52:87:e7:0c:5b:08:47:
         7a:55:a5:0d:fa:72:ce:6b:a1:b2:ae:5a:a1:63:ff:68:db:e5:
         49:ef:f1:0e:98:96:09:b5:04:5f:d4:0a:9b:8a:af:d2:31:1f:
         95:e5:0f:a8:cd:bb:a1:2d:64:b0:b7:ee:47:a7:58:d9:c7:db:
         b0:92:bb:aa:cf:b8:8a:04:5b:0f:9f:3e:e0:d2:42:52:bd:5d:
         a7:48
-----BEGIN CERTIFICATE-----
MIIDxTCCAy6gAwIBAgIJALvTEAPmnSgDMA0GCSqGSIb3DQEBCwUAMIGeMQswCQYD
VQQGEwJVUzEQMA4GA1UECAwHTW9udGFuYTEQMA4GA1UEBwwHQm96ZW1hbjEVMBMG
A1UECgwMd29sZlNTTF8xMDI0MRkwFwYDVQQLDBBQcm9ncmFtbWluZy0xMDI0MRgw
FgYDVQQDDA93d3cud29sZnNzbC5jb20xHzAdBgkqhkiG9w0BCQEWEGluZm9Ad29s
ZnNzbC5jb20wHhcNMTgwNDEzMTUyMzA5WhcNMjEwMTA3MTUyMzA5WjCBnjELMAkG
A1UEBhMCVVMxEDAOBgNVBAgMB01vbnRhbmExEDAOBgNVBAcMB0JvemVtYW4xFTAT
BgNVBAoMDHdvbGZTU0xfMTAyNDEZMBcGA1UECwwQUHJvZ3JhbW1pbmctMTAyNDEY
MBYGA1UEAwwPd3d3LndvbGZzc2wuY29tMR8wHQYJKoZIhvcNAQkBFhBpbmZvQHdv
bGZzc2wuY29tMIGfMA0GCSqGSIb3DQEBAQUAA4GNADCBiQKBgQC8cw6oSfN0oqnv
GKXaVZkh+cjss21I5TU1dXc37NFhkF8+2eTV35TKwanXGdqGyehNxGE2gv6rrX53
JbuNEaW8YjqoOMw5ogRmtPf386raTQIOu16NaUjcd8koDiLpa6Qmukzowf1Kbysf
74qu9pBi5WQe6ys8Z8jcJwD2kWhlqQIDAQABo4IBBzCCAQMwHQYDVR0OBBYEFIFp
D/jf3c80KdVndXGFx3UQaVnsMIHTBgNVHSMEgcswgciAFIFpD/jf3c80KdVndXGF
x3UQaVnsoYGkpIGhMIGeMQswCQYDVQQGEwJVUzEQMA4GA1UECAwHTW9udGFuYTEQ
MA4GA1UEBwwHQm96ZW1hbjEVMBMGA1UECgwMd29sZlNTTF8xMDI0MRkwFwYDVQQL
DBBQcm9ncmFtbWluZy0xMDI0MRgwFgYDVQQDDA93d3cud29sZnNzbC5jb20xHzAd
BgkqhkiG9w0BCQEWEGluZm9Ad29sZnNzbC5jb22CCQC70xAD5p0oAzAMBgNVHRME
BTADAQH/MA0GCSqGSIb3DQEBCwUAA4GBAISZ2eU3xER9zim4toAO6qPi+qIvXNJK
hWe5i/qffdpthSrCIPMYyNRrJrJ6aOeCUofnDFsIR3pVpQ36cs5robKuWqFj/2jb
5Unv8Q6Ylgm1BF/UCpuKr9IxH5XlD6jNu6EtZLC37kenWNnH27CSu6rPuIoEWw+f
PuDSQlK9XadI
-----END CERTIFICATE-----
