Certificate:
    Data:
        Version: 1 (0x0)
        Serial Number: 9 (0x9)
        Signature Algorithm: sha1WithRSAEncryption
        Issuer: C=US, ST=Montana, L=Bozeman, O=Sawtooth, OU=Consulting, CN=www.yassl.com/emailAddress=info@yassl.com
        Validity
            Not Before: Aug  8 21:58:29 2012 GMT
            Not After : May  5 21:58:29 2015 GMT
        Subject: C=US, ST=Washington, L=Seattle, O=Elliptic - RSAsig, OU=ECC-RSAsig, CN=www.yassl.com/emailAddress=info@yassl.com
        Subject Public Key Info:
            Public Key Algorithm: id-ecPublicKey
            EC Public Key:
                pub: 
                    04:bb:33:ac:4c:27:50:4a:c6:4a:a5:04:c3:3c:de:
                    9f:36:db:72:2d:ce:94:ea:2b:fa:cb:20:09:39:2c:
                    16:e8:61:02:e9:af:4d:d3:02:93:9a:31:5b:97:92:
                    21:7f:f0:cf:18:da:91:11:02:34:86:e8:20:58:33:
                    0b:80:34:89:d8
                ASN1 OID: prime256v1
    Signature Algorithm: sha1WithRSAEncryption
        a0:1c:de:98:e8:61:c8:fb:0a:0e:af:ea:99:4b:c0:49:e6:66:
        68:5e:7a:18:b8:0c:e3:0f:16:86:bc:b5:86:79:02:69:1c:b7:
        e7:ff:53:d9:05:5d:27:39:24:54:67:14:de:ef:8e:c2:a0:11:
        ca:c8:27:99:b9:d6:e9:71:1f:86:c9:8f:b1:74:a2:9f:93:6a:
        0c:74:cf:17:77:8c:26:08:6e:a8:ac:69:d4:55:15:a2:95:87:
        43:7a:ab:72:93:73:40:58:c2:bb:9c:89:f2:73:20:69:df:f1:
        f3:65:08:9c:00:67:97:a6:71:00:2b:31:84:10:ac:bd:54:ac:
        fd:b3:eb:12:36:77:f6:0a:e3:9a:96:d2:a6:22:bc:1d:6b:ce:
        3c:0d:7b:d9:1c:1d:f1:ee:ec:ce:83:c8:98:c9:65:3e:06:31:
        c3:b2:87:da:09:b4:90:0b:e2:6b:29:0e:d6:ae:53:1d:10:98:
        e2:dc:f9:63:38:a1:a2:af:46:23:a4:4c:ab:0c:0b:08:be:cd:
        a4:a6:6d:46:f0:f8:e0:31:99:85:39:10:4a:a0:04:54:3b:21:
        e1:e9:b4:f3:a5:06:cd:37:ae:2c:ca:5d:ac:90:b5:ab:92:81:
        aa:bf:2d:3f:8e:ee:4d:12:81:0a:8e:a4:ca:87:93:af:b0:25:
        7e:e2:07:f7
-----BEGIN CERTIFICATE-----
MIIC1zCCAb8CAQkwDQYJKoZIhvcNAQEFBQAwgZAxCzAJBgNVBAYTAlVTMRAwDgYD
VQQIEwdNb250YW5hMRAwDgYDVQQHEwdCb3plbWFuMREwDwYDVQQKEwhTYXd0b290
aDETMBEGA1UECxMKQ29uc3VsdGluZzEWMBQGA1UEAxMNd3d3Lnlhc3NsLmNvbTEd
MBsGCSqGSIb3DQEJARYOaW5mb0B5YXNzbC5jb20wHhcNMTIwODA4MjE1ODI5WhcN
MTUwNTA1MjE1ODI5WjCBnDELMAkGA1UEBhMCVVMxEzARBgNVBAgTCldhc2hpbmd0
b24xEDAOBgNVBAcTB1NlYXR0bGUxGjAYBgNVBAoTEUVsbGlwdGljIC0gUlNBc2ln
MRMwEQYDVQQLEwpFQ0MtUlNBc2lnMRYwFAYDVQQDEw13d3cueWFzc2wuY29tMR0w
GwYJKoZIhvcNAQkBFg5pbmZvQHlhc3NsLmNvbTBZMBMGByqGSM49AgEGCCqGSM49
AwEHA0IABLszrEwnUErGSqUEwzzenzbbci3OlOor+ssgCTksFuhhAumvTdMCk5ox
W5eSIX/wzxjakRECNIboIFgzC4A0idgwDQYJKoZIhvcNAQEFBQADggEBAKAc3pjo
Ycj7Cg6v6plLwEnmZmheehi4DOMPFoa8tYZ5Amkct+f/U9kFXSc5JFRnFN7vjsKg
EcrIJ5m51ulxH4bJj7F0op+Tagx0zxd3jCYIbqisadRVFaKVh0N6q3KTc0BYwruc
ifJzIGnf8fNlCJwAZ5emcQArMYQQrL1UrP2z6xI2d/YK45qW0qYivB1rzjwNe9kc
HfHu7M6DyJjJZT4GMcOyh9oJtJAL4mspDtauUx0QmOLc+WM4oaKvRiOkTKsMCwi+
zaSmbUbw+OAxmYU5EEqgBFQ7IeHptPOlBs03rizKXayQtauSgaq/LT+O7k0SgQqO
pMqHk6+wJX7iB/c=
-----END CERTIFICATE-----
